
CubesatFreeRTOS.elf:     file format elf32-littlearm

Sections:
Idx Name          Size      VMA       LMA       File off  Algn
  0 .text         0000588c  00000000  00000000  00008000  2**2
                  CONTENTS, ALLOC, LOAD, READONLY, CODE
  1 .relocate     0000006c  20000000  0000588c  00010000  2**2
                  CONTENTS, ALLOC, LOAD, DATA
  2 .bss          00000184  2000006c  000058f8  0001006c  2**2
                  ALLOC
  3 .stack        00002000  200001f0  00005a7c  0001006c  2**0
                  ALLOC
  4 .ARM.attributes 00000028  00000000  00000000  0001006c  2**0
                  CONTENTS, READONLY
  5 .comment      0000005b  00000000  00000000  00010094  2**0
                  CONTENTS, READONLY
  6 .debug_info   000201d7  00000000  00000000  000100ef  2**0
                  CONTENTS, READONLY, DEBUGGING
  7 .debug_abbrev 00002c5f  00000000  00000000  000302c6  2**0
                  CONTENTS, READONLY, DEBUGGING
  8 .debug_loc    00002eb6  00000000  00000000  00032f25  2**0
                  CONTENTS, READONLY, DEBUGGING
  9 .debug_aranges 00000918  00000000  00000000  00035ddb  2**0
                  CONTENTS, READONLY, DEBUGGING
 10 .debug_ranges 000007b8  00000000  00000000  000366f3  2**0
                  CONTENTS, READONLY, DEBUGGING
 11 .debug_macro  0000731b  00000000  00000000  00036eab  2**0
                  CONTENTS, READONLY, DEBUGGING
 12 .debug_line   0000d3fc  00000000  00000000  0003e1c6  2**0
                  CONTENTS, READONLY, DEBUGGING
 13 .debug_str    0008c7ea  00000000  00000000  0004b5c2  2**0
                  CONTENTS, READONLY, DEBUGGING
 14 .debug_frame  00002580  00000000  00000000  000d7dac  2**2
                  CONTENTS, READONLY, DEBUGGING

Disassembly of section .text:

00000000 <_sfixed>:
       0:	200021f0 	.word	0x200021f0
       4:	00002fdd 	.word	0x00002fdd
       8:	00003061 	.word	0x00003061
       c:	00003061 	.word	0x00003061
	...
      2c:	00001ff5 	.word	0x00001ff5
	...
      38:	00002011 	.word	0x00002011
      3c:	00002055 	.word	0x00002055
      40:	00003061 	.word	0x00003061
      44:	00003061 	.word	0x00003061
      48:	00003061 	.word	0x00003061
      4c:	00003061 	.word	0x00003061
      50:	00003061 	.word	0x00003061
      54:	00003061 	.word	0x00003061
      58:	00003061 	.word	0x00003061
      5c:	00003061 	.word	0x00003061
      60:	00003061 	.word	0x00003061
      64:	00001351 	.word	0x00001351
      68:	00001365 	.word	0x00001365
      6c:	00001379 	.word	0x00001379
      70:	0000138d 	.word	0x0000138d
      74:	000013a1 	.word	0x000013a1
      78:	000013b5 	.word	0x000013b5
      7c:	00003061 	.word	0x00003061
      80:	00003061 	.word	0x00003061
      84:	00003061 	.word	0x00003061
      88:	00003061 	.word	0x00003061
      8c:	00003061 	.word	0x00003061
      90:	00003061 	.word	0x00003061
      94:	00003061 	.word	0x00003061
      98:	00003061 	.word	0x00003061
      9c:	00003061 	.word	0x00003061
      a0:	00003061 	.word	0x00003061
      a4:	00003061 	.word	0x00003061
      a8:	00003061 	.word	0x00003061
      ac:	00003061 	.word	0x00003061

000000b0 <__do_global_dtors_aux>:
      b0:	b510      	push	{r4, lr}
      b2:	4c06      	ldr	r4, [pc, #24]	; (cc <__do_global_dtors_aux+0x1c>)
      b4:	7823      	ldrb	r3, [r4, #0]
      b6:	2b00      	cmp	r3, #0
      b8:	d107      	bne.n	ca <__do_global_dtors_aux+0x1a>
      ba:	4b05      	ldr	r3, [pc, #20]	; (d0 <__do_global_dtors_aux+0x20>)
      bc:	2b00      	cmp	r3, #0
      be:	d002      	beq.n	c6 <__do_global_dtors_aux+0x16>
      c0:	4804      	ldr	r0, [pc, #16]	; (d4 <__do_global_dtors_aux+0x24>)
      c2:	e000      	b.n	c6 <__do_global_dtors_aux+0x16>
      c4:	bf00      	nop
      c6:	2301      	movs	r3, #1
      c8:	7023      	strb	r3, [r4, #0]
      ca:	bd10      	pop	{r4, pc}
      cc:	2000006c 	.word	0x2000006c
      d0:	00000000 	.word	0x00000000
      d4:	0000588c 	.word	0x0000588c

000000d8 <frame_dummy>:
      d8:	b508      	push	{r3, lr}
      da:	4b08      	ldr	r3, [pc, #32]	; (fc <frame_dummy+0x24>)
      dc:	2b00      	cmp	r3, #0
      de:	d003      	beq.n	e8 <frame_dummy+0x10>
      e0:	4807      	ldr	r0, [pc, #28]	; (100 <frame_dummy+0x28>)
      e2:	4908      	ldr	r1, [pc, #32]	; (104 <frame_dummy+0x2c>)
      e4:	e000      	b.n	e8 <frame_dummy+0x10>
      e6:	bf00      	nop
      e8:	4807      	ldr	r0, [pc, #28]	; (108 <frame_dummy+0x30>)
      ea:	6803      	ldr	r3, [r0, #0]
      ec:	2b00      	cmp	r3, #0
      ee:	d100      	bne.n	f2 <frame_dummy+0x1a>
      f0:	bd08      	pop	{r3, pc}
      f2:	4b06      	ldr	r3, [pc, #24]	; (10c <frame_dummy+0x34>)
      f4:	2b00      	cmp	r3, #0
      f6:	d0fb      	beq.n	f0 <frame_dummy+0x18>
      f8:	4798      	blx	r3
      fa:	e7f9      	b.n	f0 <frame_dummy+0x18>
      fc:	00000000 	.word	0x00000000
     100:	0000588c 	.word	0x0000588c
     104:	20000070 	.word	0x20000070
     108:	0000588c 	.word	0x0000588c
     10c:	00000000 	.word	0x00000000

00000110 <read_MLX90614>:
#include <MLX90614_IR_Sensor.h>

void read_MLX90614(uint8_t* buf, uint8_t addr) {
     110:	b580      	push	{r7, lr}
     112:	b08a      	sub	sp, #40	; 0x28
     114:	af00      	add	r7, sp, #0
     116:	6078      	str	r0, [r7, #4]
     118:	1c0a      	adds	r2, r1, #0
     11a:	1cfb      	adds	r3, r7, #3
     11c:	701a      	strb	r2, [r3, #0]
	
	uint8_t write_buffer[1] = {
     11e:	2324      	movs	r3, #36	; 0x24
     120:	18fb      	adds	r3, r7, r3
     122:	1cfa      	adds	r2, r7, #3
     124:	7812      	ldrb	r2, [r2, #0]
     126:	701a      	strb	r2, [r3, #0]
		addr
	};
	
	struct i2c_master_packet write_packet = {
     128:	2318      	movs	r3, #24
     12a:	18fb      	adds	r3, r7, r3
     12c:	225a      	movs	r2, #90	; 0x5a
     12e:	801a      	strh	r2, [r3, #0]
     130:	2318      	movs	r3, #24
     132:	18fb      	adds	r3, r7, r3
     134:	2201      	movs	r2, #1
     136:	805a      	strh	r2, [r3, #2]
     138:	2318      	movs	r3, #24
     13a:	18fb      	adds	r3, r7, r3
     13c:	2224      	movs	r2, #36	; 0x24
     13e:	18ba      	adds	r2, r7, r2
     140:	605a      	str	r2, [r3, #4]
     142:	2318      	movs	r3, #24
     144:	18fb      	adds	r3, r7, r3
     146:	2200      	movs	r2, #0
     148:	721a      	strb	r2, [r3, #8]
     14a:	2318      	movs	r3, #24
     14c:	18fb      	adds	r3, r7, r3
     14e:	2200      	movs	r2, #0
     150:	725a      	strb	r2, [r3, #9]
     152:	2318      	movs	r3, #24
     154:	18fb      	adds	r3, r7, r3
     156:	2200      	movs	r2, #0
     158:	729a      	strb	r2, [r3, #10]
		.ten_bit_address = false,
		.high_speed      = false,
		.hs_master_code  = 0x0,
	};
	
	struct i2c_master_packet read_packet = {
     15a:	230c      	movs	r3, #12
     15c:	18fb      	adds	r3, r7, r3
     15e:	225a      	movs	r2, #90	; 0x5a
     160:	801a      	strh	r2, [r3, #0]
     162:	230c      	movs	r3, #12
     164:	18fb      	adds	r3, r7, r3
     166:	2202      	movs	r2, #2
     168:	805a      	strh	r2, [r3, #2]
     16a:	230c      	movs	r3, #12
     16c:	18fb      	adds	r3, r7, r3
     16e:	687a      	ldr	r2, [r7, #4]
     170:	605a      	str	r2, [r3, #4]
     172:	230c      	movs	r3, #12
     174:	18fb      	adds	r3, r7, r3
     176:	2200      	movs	r2, #0
     178:	721a      	strb	r2, [r3, #8]
     17a:	230c      	movs	r3, #12
     17c:	18fb      	adds	r3, r7, r3
     17e:	2200      	movs	r2, #0
     180:	725a      	strb	r2, [r3, #9]
     182:	230c      	movs	r3, #12
     184:	18fb      	adds	r3, r7, r3
     186:	2200      	movs	r2, #0
     188:	729a      	strb	r2, [r3, #10]
		.ten_bit_address = false,
		.high_speed      = false,
		.hs_master_code  = 0x0,
	};
	
	i2c_write_command_no_stop(&write_packet);
     18a:	2318      	movs	r3, #24
     18c:	18fb      	adds	r3, r7, r3
     18e:	1c18      	adds	r0, r3, #0
     190:	4b04      	ldr	r3, [pc, #16]	; (1a4 <read_MLX90614+0x94>)
     192:	4798      	blx	r3
	i2c_read_command(&read_packet);
     194:	230c      	movs	r3, #12
     196:	18fb      	adds	r3, r7, r3
     198:	1c18      	adds	r0, r3, #0
     19a:	4b03      	ldr	r3, [pc, #12]	; (1a8 <read_MLX90614+0x98>)
     19c:	4798      	blx	r3
}
     19e:	46bd      	mov	sp, r7
     1a0:	b00a      	add	sp, #40	; 0x28
     1a2:	bd80      	pop	{r7, pc}
     1a4:	000032d5 	.word	0x000032d5
     1a8:	000032f9 	.word	0x000032f9

000001ac <readTemp>:

float readTemp(uint8_t addr) {
     1ac:	b590      	push	{r4, r7, lr}
     1ae:	b087      	sub	sp, #28
     1b0:	af00      	add	r7, sp, #0
     1b2:	1c02      	adds	r2, r0, #0
     1b4:	1dfb      	adds	r3, r7, #7
     1b6:	701a      	strb	r2, [r3, #0]
	uint8_t read_buffer[2] = {
     1b8:	230c      	movs	r3, #12
     1ba:	18fb      	adds	r3, r7, r3
     1bc:	2200      	movs	r2, #0
     1be:	701a      	strb	r2, [r3, #0]
     1c0:	230c      	movs	r3, #12
     1c2:	18fb      	adds	r3, r7, r3
     1c4:	2200      	movs	r2, #0
     1c6:	705a      	strb	r2, [r3, #1]
		0x0,0x0
	};
	read_MLX90614(read_buffer,addr);
     1c8:	230c      	movs	r3, #12
     1ca:	18fa      	adds	r2, r7, r3
     1cc:	1dfb      	adds	r3, r7, #7
     1ce:	781b      	ldrb	r3, [r3, #0]
     1d0:	1c10      	adds	r0, r2, #0
     1d2:	1c19      	adds	r1, r3, #0
     1d4:	4b23      	ldr	r3, [pc, #140]	; (264 <readTemp+0xb8>)
     1d6:	4798      	blx	r3
	uint16_t res = read_buffer[0] | (((uint16_t)read_buffer[1]) << 8);
     1d8:	230c      	movs	r3, #12
     1da:	18fb      	adds	r3, r7, r3
     1dc:	781b      	ldrb	r3, [r3, #0]
     1de:	b29a      	uxth	r2, r3
     1e0:	230c      	movs	r3, #12
     1e2:	18fb      	adds	r3, r7, r3
     1e4:	785b      	ldrb	r3, [r3, #1]
     1e6:	021b      	lsls	r3, r3, #8
     1e8:	b29b      	uxth	r3, r3
     1ea:	4313      	orrs	r3, r2
     1ec:	b29a      	uxth	r2, r3
     1ee:	2316      	movs	r3, #22
     1f0:	18fb      	adds	r3, r7, r3
     1f2:	801a      	strh	r2, [r3, #0]
	float temp = (float) res;
     1f4:	2316      	movs	r3, #22
     1f6:	18fb      	adds	r3, r7, r3
     1f8:	881a      	ldrh	r2, [r3, #0]
     1fa:	4b1b      	ldr	r3, [pc, #108]	; (268 <readTemp+0xbc>)
     1fc:	1c10      	adds	r0, r2, #0
     1fe:	4798      	blx	r3
     200:	1c03      	adds	r3, r0, #0
     202:	613b      	str	r3, [r7, #16]
	temp *= .02;
     204:	4b19      	ldr	r3, [pc, #100]	; (26c <readTemp+0xc0>)
     206:	6938      	ldr	r0, [r7, #16]
     208:	4798      	blx	r3
     20a:	1c02      	adds	r2, r0, #0
     20c:	1c0b      	adds	r3, r1, #0
     20e:	4c18      	ldr	r4, [pc, #96]	; (270 <readTemp+0xc4>)
     210:	1c10      	adds	r0, r2, #0
     212:	1c19      	adds	r1, r3, #0
     214:	4a17      	ldr	r2, [pc, #92]	; (274 <readTemp+0xc8>)
     216:	4b18      	ldr	r3, [pc, #96]	; (278 <readTemp+0xcc>)
     218:	47a0      	blx	r4
     21a:	1c03      	adds	r3, r0, #0
     21c:	1c0c      	adds	r4, r1, #0
     21e:	1c19      	adds	r1, r3, #0
     220:	1c22      	adds	r2, r4, #0
     222:	4b16      	ldr	r3, [pc, #88]	; (27c <readTemp+0xd0>)
     224:	1c08      	adds	r0, r1, #0
     226:	1c11      	adds	r1, r2, #0
     228:	4798      	blx	r3
     22a:	1c03      	adds	r3, r0, #0
     22c:	613b      	str	r3, [r7, #16]
	temp -= 273.15;
     22e:	4b0f      	ldr	r3, [pc, #60]	; (26c <readTemp+0xc0>)
     230:	6938      	ldr	r0, [r7, #16]
     232:	4798      	blx	r3
     234:	1c02      	adds	r2, r0, #0
     236:	1c0b      	adds	r3, r1, #0
     238:	4c11      	ldr	r4, [pc, #68]	; (280 <readTemp+0xd4>)
     23a:	1c10      	adds	r0, r2, #0
     23c:	1c19      	adds	r1, r3, #0
     23e:	4a11      	ldr	r2, [pc, #68]	; (284 <readTemp+0xd8>)
     240:	4b11      	ldr	r3, [pc, #68]	; (288 <readTemp+0xdc>)
     242:	47a0      	blx	r4
     244:	1c03      	adds	r3, r0, #0
     246:	1c0c      	adds	r4, r1, #0
     248:	1c19      	adds	r1, r3, #0
     24a:	1c22      	adds	r2, r4, #0
     24c:	4b0b      	ldr	r3, [pc, #44]	; (27c <readTemp+0xd0>)
     24e:	1c08      	adds	r0, r1, #0
     250:	1c11      	adds	r1, r2, #0
     252:	4798      	blx	r3
     254:	1c03      	adds	r3, r0, #0
     256:	613b      	str	r3, [r7, #16]
	return temp;
     258:	693b      	ldr	r3, [r7, #16]
}
     25a:	1c18      	adds	r0, r3, #0
     25c:	46bd      	mov	sp, r7
     25e:	b007      	add	sp, #28
     260:	bd90      	pop	{r4, r7, pc}
     262:	46c0      	nop			; (mov r8, r8)
     264:	00000111 	.word	0x00000111
     268:	0000381d 	.word	0x0000381d
     26c:	000044d5 	.word	0x000044d5
     270:	000038ad 	.word	0x000038ad
     274:	47ae147b 	.word	0x47ae147b
     278:	3f947ae1 	.word	0x3f947ae1
     27c:	0000457d 	.word	0x0000457d
     280:	00003de1 	.word	0x00003de1
     284:	66666666 	.word	0x66666666
     288:	40711266 	.word	0x40711266

0000028c <MLX90614_readObjectTempC>:

float MLX90614_readObjectTempC() {
     28c:	b580      	push	{r7, lr}
     28e:	af00      	add	r7, sp, #0
	return readTemp(MLX90614_TOBJ1);
     290:	2007      	movs	r0, #7
     292:	4b03      	ldr	r3, [pc, #12]	; (2a0 <MLX90614_readObjectTempC+0x14>)
     294:	4798      	blx	r3
     296:	1c03      	adds	r3, r0, #0
}
     298:	1c18      	adds	r0, r3, #0
     29a:	46bd      	mov	sp, r7
     29c:	bd80      	pop	{r7, pc}
     29e:	46c0      	nop			; (mov r8, r8)
     2a0:	000001ad 	.word	0x000001ad

000002a4 <cpu_irq_enter_critical>:
     2a4:	b580      	push	{r7, lr}
     2a6:	b082      	sub	sp, #8
     2a8:	af00      	add	r7, sp, #0
     2aa:	4b0f      	ldr	r3, [pc, #60]	; (2e8 <cpu_irq_enter_critical+0x44>)
     2ac:	681b      	ldr	r3, [r3, #0]
     2ae:	2b00      	cmp	r3, #0
     2b0:	d112      	bne.n	2d8 <cpu_irq_enter_critical+0x34>
     2b2:	f3ef 8310 	mrs	r3, PRIMASK
     2b6:	607b      	str	r3, [r7, #4]
     2b8:	687b      	ldr	r3, [r7, #4]
     2ba:	2b00      	cmp	r3, #0
     2bc:	d109      	bne.n	2d2 <cpu_irq_enter_critical+0x2e>
     2be:	b672      	cpsid	i
     2c0:	f3bf 8f5f 	dmb	sy
     2c4:	4b09      	ldr	r3, [pc, #36]	; (2ec <cpu_irq_enter_critical+0x48>)
     2c6:	2200      	movs	r2, #0
     2c8:	701a      	strb	r2, [r3, #0]
     2ca:	4b09      	ldr	r3, [pc, #36]	; (2f0 <cpu_irq_enter_critical+0x4c>)
     2cc:	2201      	movs	r2, #1
     2ce:	701a      	strb	r2, [r3, #0]
     2d0:	e002      	b.n	2d8 <cpu_irq_enter_critical+0x34>
     2d2:	4b07      	ldr	r3, [pc, #28]	; (2f0 <cpu_irq_enter_critical+0x4c>)
     2d4:	2200      	movs	r2, #0
     2d6:	701a      	strb	r2, [r3, #0]
     2d8:	4b03      	ldr	r3, [pc, #12]	; (2e8 <cpu_irq_enter_critical+0x44>)
     2da:	681b      	ldr	r3, [r3, #0]
     2dc:	1c5a      	adds	r2, r3, #1
     2de:	4b02      	ldr	r3, [pc, #8]	; (2e8 <cpu_irq_enter_critical+0x44>)
     2e0:	601a      	str	r2, [r3, #0]
     2e2:	46bd      	mov	sp, r7
     2e4:	b002      	add	sp, #8
     2e6:	bd80      	pop	{r7, pc}
     2e8:	20000088 	.word	0x20000088
     2ec:	20000000 	.word	0x20000000
     2f0:	2000008c 	.word	0x2000008c

000002f4 <cpu_irq_leave_critical>:
     2f4:	b580      	push	{r7, lr}
     2f6:	af00      	add	r7, sp, #0
     2f8:	4b0a      	ldr	r3, [pc, #40]	; (324 <cpu_irq_leave_critical+0x30>)
     2fa:	681b      	ldr	r3, [r3, #0]
     2fc:	1e5a      	subs	r2, r3, #1
     2fe:	4b09      	ldr	r3, [pc, #36]	; (324 <cpu_irq_leave_critical+0x30>)
     300:	601a      	str	r2, [r3, #0]
     302:	4b08      	ldr	r3, [pc, #32]	; (324 <cpu_irq_leave_critical+0x30>)
     304:	681b      	ldr	r3, [r3, #0]
     306:	2b00      	cmp	r3, #0
     308:	d10a      	bne.n	320 <cpu_irq_leave_critical+0x2c>
     30a:	4b07      	ldr	r3, [pc, #28]	; (328 <cpu_irq_leave_critical+0x34>)
     30c:	781b      	ldrb	r3, [r3, #0]
     30e:	b2db      	uxtb	r3, r3
     310:	2b00      	cmp	r3, #0
     312:	d005      	beq.n	320 <cpu_irq_leave_critical+0x2c>
     314:	4b05      	ldr	r3, [pc, #20]	; (32c <cpu_irq_leave_critical+0x38>)
     316:	2201      	movs	r2, #1
     318:	701a      	strb	r2, [r3, #0]
     31a:	f3bf 8f5f 	dmb	sy
     31e:	b662      	cpsie	i
     320:	46bd      	mov	sp, r7
     322:	bd80      	pop	{r7, pc}
     324:	20000088 	.word	0x20000088
     328:	2000008c 	.word	0x2000008c
     32c:	20000000 	.word	0x20000000

00000330 <system_gclk_chan_get_config_defaults>:
 *
 * \param[out] config  Configuration structure to initialize to default values
 */
static inline void system_gclk_chan_get_config_defaults(
		struct system_gclk_chan_config *const config)
{
     330:	b580      	push	{r7, lr}
     332:	b082      	sub	sp, #8
     334:	af00      	add	r7, sp, #0
     336:	6078      	str	r0, [r7, #4]
	/* Sanity check arguments */
	Assert(config);

	/* Default configuration values */
	config->source_generator = GCLK_GENERATOR_0;
     338:	687b      	ldr	r3, [r7, #4]
     33a:	2200      	movs	r2, #0
     33c:	701a      	strb	r2, [r3, #0]
}
     33e:	46bd      	mov	sp, r7
     340:	b002      	add	sp, #8
     342:	bd80      	pop	{r7, pc}

00000344 <system_apb_clock_set_mask>:
 * \retval STATUS_OK               The clock mask was set successfully
 */
static inline enum status_code system_apb_clock_set_mask(
		const enum system_clock_apb_bus bus,
		const uint32_t mask)
{
     344:	b580      	push	{r7, lr}
     346:	b082      	sub	sp, #8
     348:	af00      	add	r7, sp, #0
     34a:	1c02      	adds	r2, r0, #0
     34c:	6039      	str	r1, [r7, #0]
     34e:	1dfb      	adds	r3, r7, #7
     350:	701a      	strb	r2, [r3, #0]
	switch (bus) {
     352:	1dfb      	adds	r3, r7, #7
     354:	781b      	ldrb	r3, [r3, #0]
     356:	2b01      	cmp	r3, #1
     358:	d00a      	beq.n	370 <system_apb_clock_set_mask+0x2c>
     35a:	2b02      	cmp	r3, #2
     35c:	d00f      	beq.n	37e <system_apb_clock_set_mask+0x3a>
     35e:	2b00      	cmp	r3, #0
     360:	d114      	bne.n	38c <system_apb_clock_set_mask+0x48>
		case SYSTEM_CLOCK_APB_APBA:
			PM->APBAMASK.reg |= mask;
     362:	4b0e      	ldr	r3, [pc, #56]	; (39c <system_apb_clock_set_mask+0x58>)
     364:	4a0d      	ldr	r2, [pc, #52]	; (39c <system_apb_clock_set_mask+0x58>)
     366:	6991      	ldr	r1, [r2, #24]
     368:	683a      	ldr	r2, [r7, #0]
     36a:	430a      	orrs	r2, r1
     36c:	619a      	str	r2, [r3, #24]
			break;
     36e:	e00f      	b.n	390 <system_apb_clock_set_mask+0x4c>

		case SYSTEM_CLOCK_APB_APBB:
			PM->APBBMASK.reg |= mask;
     370:	4b0a      	ldr	r3, [pc, #40]	; (39c <system_apb_clock_set_mask+0x58>)
     372:	4a0a      	ldr	r2, [pc, #40]	; (39c <system_apb_clock_set_mask+0x58>)
     374:	69d1      	ldr	r1, [r2, #28]
     376:	683a      	ldr	r2, [r7, #0]
     378:	430a      	orrs	r2, r1
     37a:	61da      	str	r2, [r3, #28]
			break;
     37c:	e008      	b.n	390 <system_apb_clock_set_mask+0x4c>

		case SYSTEM_CLOCK_APB_APBC:
			PM->APBCMASK.reg |= mask;
     37e:	4b07      	ldr	r3, [pc, #28]	; (39c <system_apb_clock_set_mask+0x58>)
     380:	4a06      	ldr	r2, [pc, #24]	; (39c <system_apb_clock_set_mask+0x58>)
     382:	6a11      	ldr	r1, [r2, #32]
     384:	683a      	ldr	r2, [r7, #0]
     386:	430a      	orrs	r2, r1
     388:	621a      	str	r2, [r3, #32]
			break;
     38a:	e001      	b.n	390 <system_apb_clock_set_mask+0x4c>

		default:
			Assert(false);
			return STATUS_ERR_INVALID_ARG;
     38c:	2317      	movs	r3, #23
     38e:	e000      	b.n	392 <system_apb_clock_set_mask+0x4e>

	}

	return STATUS_OK;
     390:	2300      	movs	r3, #0
}
     392:	1c18      	adds	r0, r3, #0
     394:	46bd      	mov	sp, r7
     396:	b002      	add	sp, #8
     398:	bd80      	pop	{r7, pc}
     39a:	46c0      	nop			; (mov r8, r8)
     39c:	40000400 	.word	0x40000400

000003a0 <system_pinmux_get_config_defaults>:
 *
 * \param[out] config  Configuration structure to initialize to default values
 */
static inline void system_pinmux_get_config_defaults(
		struct system_pinmux_config *const config)
{
     3a0:	b580      	push	{r7, lr}
     3a2:	b082      	sub	sp, #8
     3a4:	af00      	add	r7, sp, #0
     3a6:	6078      	str	r0, [r7, #4]
	/* Sanity check arguments */
	Assert(config);

	/* Default configuration values */
	config->mux_position = SYSTEM_PINMUX_GPIO;
     3a8:	687b      	ldr	r3, [r7, #4]
     3aa:	2280      	movs	r2, #128	; 0x80
     3ac:	701a      	strb	r2, [r3, #0]
	config->direction    = SYSTEM_PINMUX_PIN_DIR_INPUT;
     3ae:	687b      	ldr	r3, [r7, #4]
     3b0:	2200      	movs	r2, #0
     3b2:	705a      	strb	r2, [r3, #1]
	config->input_pull   = SYSTEM_PINMUX_PIN_PULL_UP;
     3b4:	687b      	ldr	r3, [r7, #4]
     3b6:	2201      	movs	r2, #1
     3b8:	709a      	strb	r2, [r3, #2]
	config->powersave    = false;
     3ba:	687b      	ldr	r3, [r7, #4]
     3bc:	2200      	movs	r2, #0
     3be:	70da      	strb	r2, [r3, #3]
}
     3c0:	46bd      	mov	sp, r7
     3c2:	b002      	add	sp, #8
     3c4:	bd80      	pop	{r7, pc}
     3c6:	46c0      	nop			; (mov r8, r8)

000003c8 <system_is_debugger_present>:
 * \retval true  Debugger is connected to the system
 * \retval false Debugger is not connected to the system
 *
 */
static inline bool system_is_debugger_present(void)
{
     3c8:	b580      	push	{r7, lr}
     3ca:	af00      	add	r7, sp, #0
	return DSU->STATUSB.reg & DSU_STATUSB_DBGPRES;
     3cc:	4b05      	ldr	r3, [pc, #20]	; (3e4 <system_is_debugger_present+0x1c>)
     3ce:	789b      	ldrb	r3, [r3, #2]
     3d0:	b2db      	uxtb	r3, r3
     3d2:	1c1a      	adds	r2, r3, #0
     3d4:	2302      	movs	r3, #2
     3d6:	4013      	ands	r3, r2
     3d8:	1e5a      	subs	r2, r3, #1
     3da:	4193      	sbcs	r3, r2
     3dc:	b2db      	uxtb	r3, r3
}
     3de:	1c18      	adds	r0, r3, #0
     3e0:	46bd      	mov	sp, r7
     3e2:	bd80      	pop	{r7, pc}
     3e4:	41002000 	.word	0x41002000

000003e8 <i2c_master_is_syncing>:
 * \retval true   Module is busy synchronizing
 * \retval false  Module is not synchronizing
 */
static inline bool i2c_master_is_syncing (
		const struct i2c_master_module *const module)
{
     3e8:	b580      	push	{r7, lr}
     3ea:	b084      	sub	sp, #16
     3ec:	af00      	add	r7, sp, #0
     3ee:	6078      	str	r0, [r7, #4]
	/* Sanity check. */
	Assert(module);
	Assert(module->hw);

	SercomI2cm *const i2c_hw = &(module->hw->I2CM);
     3f0:	687b      	ldr	r3, [r7, #4]
     3f2:	681b      	ldr	r3, [r3, #0]
     3f4:	60fb      	str	r3, [r7, #12]

#if defined(FEATURE_SERCOM_SYNCBUSY_SCHEME_VERSION_1)
	return (i2c_hw->STATUS.reg & SERCOM_I2CM_STATUS_SYNCBUSY);
#elif defined(FEATURE_SERCOM_SYNCBUSY_SCHEME_VERSION_2)
	return (i2c_hw->SYNCBUSY.reg & SERCOM_I2CM_SYNCBUSY_MASK);
     3f6:	68fb      	ldr	r3, [r7, #12]
     3f8:	69db      	ldr	r3, [r3, #28]
     3fa:	2207      	movs	r2, #7
     3fc:	4013      	ands	r3, r2
     3fe:	1e5a      	subs	r2, r3, #1
     400:	4193      	sbcs	r3, r2
     402:	b2db      	uxtb	r3, r3
#else
#  error Unknown SERCOM SYNCBUSY scheme!
#endif
}
     404:	1c18      	adds	r0, r3, #0
     406:	46bd      	mov	sp, r7
     408:	b004      	add	sp, #16
     40a:	bd80      	pop	{r7, pc}

0000040c <_i2c_master_wait_for_sync>:
 *
 * \param[in]  module  Pointer to software module structure
 */
static void _i2c_master_wait_for_sync(
		const struct i2c_master_module *const module)
{
     40c:	b580      	push	{r7, lr}
     40e:	b082      	sub	sp, #8
     410:	af00      	add	r7, sp, #0
     412:	6078      	str	r0, [r7, #4]
	/* Sanity check. */
	Assert(module);

	while (i2c_master_is_syncing(module)) {
     414:	46c0      	nop			; (mov r8, r8)
     416:	687b      	ldr	r3, [r7, #4]
     418:	1c18      	adds	r0, r3, #0
     41a:	4b03      	ldr	r3, [pc, #12]	; (428 <_i2c_master_wait_for_sync+0x1c>)
     41c:	4798      	blx	r3
     41e:	1e03      	subs	r3, r0, #0
     420:	d1f9      	bne.n	416 <_i2c_master_wait_for_sync+0xa>
		/* Wait for I2C module to sync. */
	}
}
     422:	46bd      	mov	sp, r7
     424:	b002      	add	sp, #8
     426:	bd80      	pop	{r7, pc}
     428:	000003e9 	.word	0x000003e9

0000042c <_i2c_master_set_config>:
 *                                          with set GCLK frequency
 */
static enum status_code _i2c_master_set_config(
		struct i2c_master_module *const module,
		const struct i2c_master_config *const config)
{
     42c:	b590      	push	{r4, r7, lr}
     42e:	b08d      	sub	sp, #52	; 0x34
     430:	af00      	add	r7, sp, #0
     432:	6078      	str	r0, [r7, #4]
     434:	6039      	str	r1, [r7, #0]

	/* Temporary variables. */
	uint32_t tmp_ctrla;
	int32_t tmp_baud;
	int32_t tmp_baud_hs;
	enum status_code tmp_status_code = STATUS_OK;
     436:	2327      	movs	r3, #39	; 0x27
     438:	18fb      	adds	r3, r7, r3
     43a:	2200      	movs	r2, #0
     43c:	701a      	strb	r2, [r3, #0]

	SercomI2cm *const i2c_module = &(module->hw->I2CM);
     43e:	687b      	ldr	r3, [r7, #4]
     440:	681b      	ldr	r3, [r3, #0]
     442:	61bb      	str	r3, [r7, #24]
	Sercom *const sercom_hw = module->hw;
     444:	687b      	ldr	r3, [r7, #4]
     446:	681b      	ldr	r3, [r3, #0]
     448:	617b      	str	r3, [r7, #20]

	uint8_t sercom_index = _sercom_get_sercom_inst_index(sercom_hw);
     44a:	2313      	movs	r3, #19
     44c:	18fc      	adds	r4, r7, r3
     44e:	697b      	ldr	r3, [r7, #20]
     450:	1c18      	adds	r0, r3, #0
     452:	4b85      	ldr	r3, [pc, #532]	; (668 <_i2c_master_set_config+0x23c>)
     454:	4798      	blx	r3
     456:	1c03      	adds	r3, r0, #0
     458:	7023      	strb	r3, [r4, #0]

	/* Pin configuration */
	struct system_pinmux_config pin_conf;
	system_pinmux_get_config_defaults(&pin_conf);
     45a:	2308      	movs	r3, #8
     45c:	18fb      	adds	r3, r7, r3
     45e:	1c18      	adds	r0, r3, #0
     460:	4b82      	ldr	r3, [pc, #520]	; (66c <_i2c_master_set_config+0x240>)
     462:	4798      	blx	r3

	uint32_t pad0 = config->pinmux_pad0;
     464:	683b      	ldr	r3, [r7, #0]
     466:	69db      	ldr	r3, [r3, #28]
     468:	623b      	str	r3, [r7, #32]
	uint32_t pad1 = config->pinmux_pad1;
     46a:	683b      	ldr	r3, [r7, #0]
     46c:	6a1b      	ldr	r3, [r3, #32]
     46e:	61fb      	str	r3, [r7, #28]

	/* SERCOM PAD0 - SDA */
	if (pad0 == PINMUX_DEFAULT) {
     470:	6a3b      	ldr	r3, [r7, #32]
     472:	2b00      	cmp	r3, #0
     474:	d106      	bne.n	484 <_i2c_master_set_config+0x58>
		pad0 = _sercom_get_default_pad(sercom_hw, 0);
     476:	697b      	ldr	r3, [r7, #20]
     478:	1c18      	adds	r0, r3, #0
     47a:	2100      	movs	r1, #0
     47c:	4b7c      	ldr	r3, [pc, #496]	; (670 <_i2c_master_set_config+0x244>)
     47e:	4798      	blx	r3
     480:	1c03      	adds	r3, r0, #0
     482:	623b      	str	r3, [r7, #32]
	}
	pin_conf.mux_position = pad0 & 0xFFFF;
     484:	6a3b      	ldr	r3, [r7, #32]
     486:	b2da      	uxtb	r2, r3
     488:	2308      	movs	r3, #8
     48a:	18fb      	adds	r3, r7, r3
     48c:	701a      	strb	r2, [r3, #0]
	pin_conf.direction    = SYSTEM_PINMUX_PIN_DIR_OUTPUT_WITH_READBACK;
     48e:	2308      	movs	r3, #8
     490:	18fb      	adds	r3, r7, r3
     492:	2202      	movs	r2, #2
     494:	705a      	strb	r2, [r3, #1]
	system_pinmux_pin_set_config(pad0 >> 16, &pin_conf);
     496:	6a3b      	ldr	r3, [r7, #32]
     498:	0c1b      	lsrs	r3, r3, #16
     49a:	b2da      	uxtb	r2, r3
     49c:	2308      	movs	r3, #8
     49e:	18fb      	adds	r3, r7, r3
     4a0:	1c10      	adds	r0, r2, #0
     4a2:	1c19      	adds	r1, r3, #0
     4a4:	4b73      	ldr	r3, [pc, #460]	; (674 <_i2c_master_set_config+0x248>)
     4a6:	4798      	blx	r3

	/* SERCOM PAD1 - SCL */
	if (pad1 == PINMUX_DEFAULT) {
     4a8:	69fb      	ldr	r3, [r7, #28]
     4aa:	2b00      	cmp	r3, #0
     4ac:	d106      	bne.n	4bc <_i2c_master_set_config+0x90>
		pad1 = _sercom_get_default_pad(sercom_hw, 1);
     4ae:	697b      	ldr	r3, [r7, #20]
     4b0:	1c18      	adds	r0, r3, #0
     4b2:	2101      	movs	r1, #1
     4b4:	4b6e      	ldr	r3, [pc, #440]	; (670 <_i2c_master_set_config+0x244>)
     4b6:	4798      	blx	r3
     4b8:	1c03      	adds	r3, r0, #0
     4ba:	61fb      	str	r3, [r7, #28]
	}
	pin_conf.mux_position = pad1 & 0xFFFF;
     4bc:	69fb      	ldr	r3, [r7, #28]
     4be:	b2da      	uxtb	r2, r3
     4c0:	2308      	movs	r3, #8
     4c2:	18fb      	adds	r3, r7, r3
     4c4:	701a      	strb	r2, [r3, #0]
	pin_conf.direction    = SYSTEM_PINMUX_PIN_DIR_OUTPUT_WITH_READBACK;
     4c6:	2308      	movs	r3, #8
     4c8:	18fb      	adds	r3, r7, r3
     4ca:	2202      	movs	r2, #2
     4cc:	705a      	strb	r2, [r3, #1]
	system_pinmux_pin_set_config(pad1 >> 16, &pin_conf);
     4ce:	69fb      	ldr	r3, [r7, #28]
     4d0:	0c1b      	lsrs	r3, r3, #16
     4d2:	b2da      	uxtb	r2, r3
     4d4:	2308      	movs	r3, #8
     4d6:	18fb      	adds	r3, r7, r3
     4d8:	1c10      	adds	r0, r2, #0
     4da:	1c19      	adds	r1, r3, #0
     4dc:	4b65      	ldr	r3, [pc, #404]	; (674 <_i2c_master_set_config+0x248>)
     4de:	4798      	blx	r3

	/* Save timeout on unknown bus state in software module. */
	module->unknown_bus_state_timeout = config->unknown_bus_state_timeout;
     4e0:	683b      	ldr	r3, [r7, #0]
     4e2:	8a9a      	ldrh	r2, [r3, #20]
     4e4:	687b      	ldr	r3, [r7, #4]
     4e6:	80da      	strh	r2, [r3, #6]

	/* Save timeout on buffer write. */
	module->buffer_timeout = config->buffer_timeout;
     4e8:	683b      	ldr	r3, [r7, #0]
     4ea:	8ada      	ldrh	r2, [r3, #22]
     4ec:	687b      	ldr	r3, [r7, #4]
     4ee:	811a      	strh	r2, [r3, #8]

	/* Set whether module should run in standby. */
	if (config->run_in_standby || system_is_debugger_present()) {
     4f0:	683b      	ldr	r3, [r7, #0]
     4f2:	7e1b      	ldrb	r3, [r3, #24]
     4f4:	2b00      	cmp	r3, #0
     4f6:	d103      	bne.n	500 <_i2c_master_set_config+0xd4>
     4f8:	4b5f      	ldr	r3, [pc, #380]	; (678 <_i2c_master_set_config+0x24c>)
     4fa:	4798      	blx	r3
     4fc:	1e03      	subs	r3, r0, #0
     4fe:	d002      	beq.n	506 <_i2c_master_set_config+0xda>
		tmp_ctrla = SERCOM_I2CM_CTRLA_RUNSTDBY;
     500:	2380      	movs	r3, #128	; 0x80
     502:	62fb      	str	r3, [r7, #44]	; 0x2c
     504:	e001      	b.n	50a <_i2c_master_set_config+0xde>
	} else {
		tmp_ctrla = 0;
     506:	2300      	movs	r3, #0
     508:	62fb      	str	r3, [r7, #44]	; 0x2c
	}

	/* Check and set start data hold timeout. */
	if (config->start_hold_time != I2C_MASTER_START_HOLD_TIME_DISABLED) {
     50a:	683b      	ldr	r3, [r7, #0]
     50c:	691b      	ldr	r3, [r3, #16]
     50e:	2b00      	cmp	r3, #0
     510:	d004      	beq.n	51c <_i2c_master_set_config+0xf0>
		tmp_ctrla |= config->start_hold_time;
     512:	683b      	ldr	r3, [r7, #0]
     514:	691b      	ldr	r3, [r3, #16]
     516:	6afa      	ldr	r2, [r7, #44]	; 0x2c
     518:	4313      	orrs	r3, r2
     51a:	62fb      	str	r3, [r7, #44]	; 0x2c
	}

	/* Check and set transfer speed */
	tmp_ctrla |= config->transfer_speed;
     51c:	683b      	ldr	r3, [r7, #0]
     51e:	689b      	ldr	r3, [r3, #8]
     520:	6afa      	ldr	r2, [r7, #44]	; 0x2c
     522:	4313      	orrs	r3, r2
     524:	62fb      	str	r3, [r7, #44]	; 0x2c

	/* Check and set SCL low timeout. */
	if (config->scl_low_timeout) {
     526:	683b      	ldr	r3, [r7, #0]
     528:	2224      	movs	r2, #36	; 0x24
     52a:	5c9b      	ldrb	r3, [r3, r2]
     52c:	2b00      	cmp	r3, #0
     52e:	d004      	beq.n	53a <_i2c_master_set_config+0x10e>
		tmp_ctrla |= SERCOM_I2CM_CTRLA_LOWTOUTEN;
     530:	6afb      	ldr	r3, [r7, #44]	; 0x2c
     532:	2280      	movs	r2, #128	; 0x80
     534:	05d2      	lsls	r2, r2, #23
     536:	4313      	orrs	r3, r2
     538:	62fb      	str	r3, [r7, #44]	; 0x2c
	}

	/* Check and set inactive bus timeout. */
	if (config->inactive_timeout != I2C_MASTER_INACTIVE_TIMEOUT_DISABLED) {
     53a:	683b      	ldr	r3, [r7, #0]
     53c:	6a9b      	ldr	r3, [r3, #40]	; 0x28
     53e:	2b00      	cmp	r3, #0
     540:	d004      	beq.n	54c <_i2c_master_set_config+0x120>
		tmp_ctrla |= config->inactive_timeout;
     542:	683b      	ldr	r3, [r7, #0]
     544:	6a9b      	ldr	r3, [r3, #40]	; 0x28
     546:	6afa      	ldr	r2, [r7, #44]	; 0x2c
     548:	4313      	orrs	r3, r2
     54a:	62fb      	str	r3, [r7, #44]	; 0x2c
	}

	/* Check and set SCL clock stretch mode. */
	if (config->scl_stretch_only_after_ack_bit) {
     54c:	683b      	ldr	r3, [r7, #0]
     54e:	222c      	movs	r2, #44	; 0x2c
     550:	5c9b      	ldrb	r3, [r3, r2]
     552:	2b00      	cmp	r3, #0
     554:	d004      	beq.n	560 <_i2c_master_set_config+0x134>
		tmp_ctrla |= SERCOM_I2CM_CTRLA_SCLSM;
     556:	6afb      	ldr	r3, [r7, #44]	; 0x2c
     558:	2280      	movs	r2, #128	; 0x80
     55a:	0512      	lsls	r2, r2, #20
     55c:	4313      	orrs	r3, r2
     55e:	62fb      	str	r3, [r7, #44]	; 0x2c
	}

	/* Check and set slave SCL low extend timeout. */
	if (config->slave_scl_low_extend_timeout) {
     560:	683b      	ldr	r3, [r7, #0]
     562:	222d      	movs	r2, #45	; 0x2d
     564:	5c9b      	ldrb	r3, [r3, r2]
     566:	2b00      	cmp	r3, #0
     568:	d004      	beq.n	574 <_i2c_master_set_config+0x148>
		tmp_ctrla |= SERCOM_I2CM_CTRLA_SEXTTOEN;
     56a:	6afb      	ldr	r3, [r7, #44]	; 0x2c
     56c:	2280      	movs	r2, #128	; 0x80
     56e:	0412      	lsls	r2, r2, #16
     570:	4313      	orrs	r3, r2
     572:	62fb      	str	r3, [r7, #44]	; 0x2c
	}

	/* Check and set master SCL low extend timeout. */
	if (config->master_scl_low_extend_timeout) {
     574:	683b      	ldr	r3, [r7, #0]
     576:	222e      	movs	r2, #46	; 0x2e
     578:	5c9b      	ldrb	r3, [r3, r2]
     57a:	2b00      	cmp	r3, #0
     57c:	d004      	beq.n	588 <_i2c_master_set_config+0x15c>
		tmp_ctrla |= SERCOM_I2CM_CTRLA_MEXTTOEN;
     57e:	6afb      	ldr	r3, [r7, #44]	; 0x2c
     580:	2280      	movs	r2, #128	; 0x80
     582:	03d2      	lsls	r2, r2, #15
     584:	4313      	orrs	r3, r2
     586:	62fb      	str	r3, [r7, #44]	; 0x2c
	}

	/* Write config to register CTRLA. */
	i2c_module->CTRLA.reg |= tmp_ctrla;
     588:	69bb      	ldr	r3, [r7, #24]
     58a:	681a      	ldr	r2, [r3, #0]
     58c:	6afb      	ldr	r3, [r7, #44]	; 0x2c
     58e:	431a      	orrs	r2, r3
     590:	69bb      	ldr	r3, [r7, #24]
     592:	601a      	str	r2, [r3, #0]

	/* Set configurations in CTRLB. */
	i2c_module->CTRLB.reg = SERCOM_I2CM_CTRLB_SMEN;
     594:	69bb      	ldr	r3, [r7, #24]
     596:	2280      	movs	r2, #128	; 0x80
     598:	0052      	lsls	r2, r2, #1
     59a:	605a      	str	r2, [r3, #4]

	/* Find and set baudrate. */
	tmp_baud = (int32_t)(div_ceil(
     59c:	2313      	movs	r3, #19
     59e:	18fb      	adds	r3, r7, r3
     5a0:	781b      	ldrb	r3, [r3, #0]
     5a2:	3314      	adds	r3, #20
     5a4:	b2db      	uxtb	r3, r3
     5a6:	1c18      	adds	r0, r3, #0
     5a8:	4b34      	ldr	r3, [pc, #208]	; (67c <_i2c_master_set_config+0x250>)
     5aa:	4798      	blx	r3
     5ac:	1c01      	adds	r1, r0, #0
     5ae:	683b      	ldr	r3, [r7, #0]
     5b0:	681b      	ldr	r3, [r3, #0]
     5b2:	22fa      	movs	r2, #250	; 0xfa
     5b4:	00d2      	lsls	r2, r2, #3
     5b6:	4353      	muls	r3, r2
     5b8:	18cb      	adds	r3, r1, r3
     5ba:	1e59      	subs	r1, r3, #1
     5bc:	683b      	ldr	r3, [r7, #0]
     5be:	681b      	ldr	r3, [r3, #0]
     5c0:	22fa      	movs	r2, #250	; 0xfa
     5c2:	00d2      	lsls	r2, r2, #3
     5c4:	435a      	muls	r2, r3
     5c6:	4b2e      	ldr	r3, [pc, #184]	; (680 <_i2c_master_set_config+0x254>)
     5c8:	1c08      	adds	r0, r1, #0
     5ca:	1c11      	adds	r1, r2, #0
     5cc:	4798      	blx	r3
     5ce:	1c03      	adds	r3, r0, #0
				system_gclk_chan_get_hz(SERCOM0_GCLK_ID_CORE + sercom_index),
				(2000*(config->baud_rate))) - 5);
     5d0:	3b05      	subs	r3, #5

	/* Set configurations in CTRLB. */
	i2c_module->CTRLB.reg = SERCOM_I2CM_CTRLB_SMEN;

	/* Find and set baudrate. */
	tmp_baud = (int32_t)(div_ceil(
     5d2:	60fb      	str	r3, [r7, #12]
				system_gclk_chan_get_hz(SERCOM0_GCLK_ID_CORE + sercom_index),
				(2000*(config->baud_rate))) - 5);

	/* Check that baudrate is supported at current speed. */
	if (tmp_baud > 255 || tmp_baud < 0) {
     5d4:	68fb      	ldr	r3, [r7, #12]
     5d6:	2bff      	cmp	r3, #255	; 0xff
     5d8:	dc02      	bgt.n	5e0 <_i2c_master_set_config+0x1b4>
     5da:	68fb      	ldr	r3, [r7, #12]
     5dc:	2b00      	cmp	r3, #0
     5de:	da04      	bge.n	5ea <_i2c_master_set_config+0x1be>
		/* Baud rate not supported. */
		tmp_status_code = STATUS_ERR_BAUDRATE_UNAVAILABLE;
     5e0:	2327      	movs	r3, #39	; 0x27
     5e2:	18fb      	adds	r3, r7, r3
     5e4:	2240      	movs	r2, #64	; 0x40
     5e6:	701a      	strb	r2, [r3, #0]
     5e8:	e025      	b.n	636 <_i2c_master_set_config+0x20a>
	} else {
		/* Find baudrate for high speed */
		tmp_baud_hs = (int32_t)(div_ceil(
     5ea:	2313      	movs	r3, #19
     5ec:	18fb      	adds	r3, r7, r3
     5ee:	781b      	ldrb	r3, [r3, #0]
     5f0:	3314      	adds	r3, #20
     5f2:	b2db      	uxtb	r3, r3
     5f4:	1c18      	adds	r0, r3, #0
     5f6:	4b21      	ldr	r3, [pc, #132]	; (67c <_i2c_master_set_config+0x250>)
     5f8:	4798      	blx	r3
     5fa:	1c01      	adds	r1, r0, #0
     5fc:	683b      	ldr	r3, [r7, #0]
     5fe:	685b      	ldr	r3, [r3, #4]
     600:	22fa      	movs	r2, #250	; 0xfa
     602:	00d2      	lsls	r2, r2, #3
     604:	4353      	muls	r3, r2
     606:	18cb      	adds	r3, r1, r3
     608:	1e59      	subs	r1, r3, #1
     60a:	683b      	ldr	r3, [r7, #0]
     60c:	685b      	ldr	r3, [r3, #4]
     60e:	22fa      	movs	r2, #250	; 0xfa
     610:	00d2      	lsls	r2, r2, #3
     612:	435a      	muls	r2, r3
     614:	4b1a      	ldr	r3, [pc, #104]	; (680 <_i2c_master_set_config+0x254>)
     616:	1c08      	adds	r0, r1, #0
     618:	1c11      	adds	r1, r2, #0
     61a:	4798      	blx	r3
     61c:	1c03      	adds	r3, r0, #0
				system_gclk_chan_get_hz(SERCOM0_GCLK_ID_CORE + sercom_index),
				(2000*(config->baud_rate_high_speed))) - 1);
     61e:	3b01      	subs	r3, #1
	if (tmp_baud > 255 || tmp_baud < 0) {
		/* Baud rate not supported. */
		tmp_status_code = STATUS_ERR_BAUDRATE_UNAVAILABLE;
	} else {
		/* Find baudrate for high speed */
		tmp_baud_hs = (int32_t)(div_ceil(
     620:	62bb      	str	r3, [r7, #40]	; 0x28
				system_gclk_chan_get_hz(SERCOM0_GCLK_ID_CORE + sercom_index),
				(2000*(config->baud_rate_high_speed))) - 1);

		/* Check that baudrate is supported at current speed. */
		if (tmp_baud_hs > 255 || tmp_baud_hs < 0) {
     622:	6abb      	ldr	r3, [r7, #40]	; 0x28
     624:	2bff      	cmp	r3, #255	; 0xff
     626:	dc02      	bgt.n	62e <_i2c_master_set_config+0x202>
     628:	6abb      	ldr	r3, [r7, #40]	; 0x28
     62a:	2b00      	cmp	r3, #0
     62c:	da03      	bge.n	636 <_i2c_master_set_config+0x20a>
			/* Baud rate not supported. */
			tmp_status_code = STATUS_ERR_BAUDRATE_UNAVAILABLE;
     62e:	2327      	movs	r3, #39	; 0x27
     630:	18fb      	adds	r3, r7, r3
     632:	2240      	movs	r2, #64	; 0x40
     634:	701a      	strb	r2, [r3, #0]
		}
	}
	if (tmp_status_code != STATUS_ERR_BAUDRATE_UNAVAILABLE) {
     636:	2327      	movs	r3, #39	; 0x27
     638:	18fb      	adds	r3, r7, r3
     63a:	781b      	ldrb	r3, [r3, #0]
     63c:	2b40      	cmp	r3, #64	; 0x40
     63e:	d00b      	beq.n	658 <_i2c_master_set_config+0x22c>
		/* Baud rate acceptable. */
		i2c_module->BAUD.reg = SERCOM_I2CM_BAUD_BAUD(tmp_baud) |
     640:	68fb      	ldr	r3, [r7, #12]
     642:	22ff      	movs	r2, #255	; 0xff
     644:	401a      	ands	r2, r3
			SERCOM_I2CM_BAUD_HSBAUD(tmp_baud_hs);
     646:	6abb      	ldr	r3, [r7, #40]	; 0x28
     648:	041b      	lsls	r3, r3, #16
     64a:	1c19      	adds	r1, r3, #0
     64c:	23ff      	movs	r3, #255	; 0xff
     64e:	041b      	lsls	r3, r3, #16
     650:	400b      	ands	r3, r1
			tmp_status_code = STATUS_ERR_BAUDRATE_UNAVAILABLE;
		}
	}
	if (tmp_status_code != STATUS_ERR_BAUDRATE_UNAVAILABLE) {
		/* Baud rate acceptable. */
		i2c_module->BAUD.reg = SERCOM_I2CM_BAUD_BAUD(tmp_baud) |
     652:	431a      	orrs	r2, r3
     654:	69bb      	ldr	r3, [r7, #24]
     656:	60da      	str	r2, [r3, #12]
			SERCOM_I2CM_BAUD_HSBAUD(tmp_baud_hs);
	}

	return tmp_status_code;
     658:	2327      	movs	r3, #39	; 0x27
     65a:	18fb      	adds	r3, r7, r3
     65c:	781b      	ldrb	r3, [r3, #0]
}
     65e:	1c18      	adds	r0, r3, #0
     660:	46bd      	mov	sp, r7
     662:	b00d      	add	sp, #52	; 0x34
     664:	bd90      	pop	{r4, r7, pc}
     666:	46c0      	nop			; (mov r8, r8)
     668:	00001231 	.word	0x00001231
     66c:	000003a1 	.word	0x000003a1
     670:	00001075 	.word	0x00001075
     674:	00002f5d 	.word	0x00002f5d
     678:	000003c9 	.word	0x000003c9
     67c:	00002d95 	.word	0x00002d95
     680:	000036a5 	.word	0x000036a5

00000684 <i2c_master_init>:
 */
enum status_code i2c_master_init(
		struct i2c_master_module *const module,
		Sercom *const hw,
		const struct i2c_master_config *const config)
{
     684:	b580      	push	{r7, lr}
     686:	b08a      	sub	sp, #40	; 0x28
     688:	af00      	add	r7, sp, #0
     68a:	60f8      	str	r0, [r7, #12]
     68c:	60b9      	str	r1, [r7, #8]
     68e:	607a      	str	r2, [r7, #4]
	Assert(module);
	Assert(hw);
	Assert(config);

	/* Initialize software module */
	module->hw = hw;
     690:	68fb      	ldr	r3, [r7, #12]
     692:	68ba      	ldr	r2, [r7, #8]
     694:	601a      	str	r2, [r3, #0]

	SercomI2cm *const i2c_module = &(module->hw->I2CM);
     696:	68fb      	ldr	r3, [r7, #12]
     698:	681b      	ldr	r3, [r3, #0]
     69a:	627b      	str	r3, [r7, #36]	; 0x24

	uint32_t sercom_index = _sercom_get_sercom_inst_index(module->hw);
     69c:	68fb      	ldr	r3, [r7, #12]
     69e:	681b      	ldr	r3, [r3, #0]
     6a0:	1c18      	adds	r0, r3, #0
     6a2:	4b25      	ldr	r3, [pc, #148]	; (738 <i2c_master_init+0xb4>)
     6a4:	4798      	blx	r3
     6a6:	1c03      	adds	r3, r0, #0
     6a8:	623b      	str	r3, [r7, #32]
	uint32_t pm_index     = sercom_index + PM_APBCMASK_SERCOM0_Pos;
     6aa:	6a3b      	ldr	r3, [r7, #32]
     6ac:	3302      	adds	r3, #2
     6ae:	61fb      	str	r3, [r7, #28]
	uint32_t gclk_index   = sercom_index + SERCOM0_GCLK_ID_CORE;
     6b0:	6a3b      	ldr	r3, [r7, #32]
     6b2:	3314      	adds	r3, #20
     6b4:	61bb      	str	r3, [r7, #24]

	/* Turn on module in PM */
	system_apb_clock_set_mask(SYSTEM_CLOCK_APB_APBC, 1 << pm_index);
     6b6:	69fb      	ldr	r3, [r7, #28]
     6b8:	2201      	movs	r2, #1
     6ba:	409a      	lsls	r2, r3
     6bc:	1c13      	adds	r3, r2, #0
     6be:	2002      	movs	r0, #2
     6c0:	1c19      	adds	r1, r3, #0
     6c2:	4b1e      	ldr	r3, [pc, #120]	; (73c <i2c_master_init+0xb8>)
     6c4:	4798      	blx	r3

	/* Set up the GCLK for the module */
	struct system_gclk_chan_config gclk_chan_conf;
	system_gclk_chan_get_config_defaults(&gclk_chan_conf);
     6c6:	2314      	movs	r3, #20
     6c8:	18fb      	adds	r3, r7, r3
     6ca:	1c18      	adds	r0, r3, #0
     6cc:	4b1c      	ldr	r3, [pc, #112]	; (740 <i2c_master_init+0xbc>)
     6ce:	4798      	blx	r3
	gclk_chan_conf.source_generator = config->generator_source;
     6d0:	687b      	ldr	r3, [r7, #4]
     6d2:	7b1a      	ldrb	r2, [r3, #12]
     6d4:	2314      	movs	r3, #20
     6d6:	18fb      	adds	r3, r7, r3
     6d8:	701a      	strb	r2, [r3, #0]
	system_gclk_chan_set_config(gclk_index, &gclk_chan_conf);
     6da:	69bb      	ldr	r3, [r7, #24]
     6dc:	b2da      	uxtb	r2, r3
     6de:	2314      	movs	r3, #20
     6e0:	18fb      	adds	r3, r7, r3
     6e2:	1c10      	adds	r0, r2, #0
     6e4:	1c19      	adds	r1, r3, #0
     6e6:	4b17      	ldr	r3, [pc, #92]	; (744 <i2c_master_init+0xc0>)
     6e8:	4798      	blx	r3
	system_gclk_chan_enable(gclk_index);
     6ea:	69bb      	ldr	r3, [r7, #24]
     6ec:	b2db      	uxtb	r3, r3
     6ee:	1c18      	adds	r0, r3, #0
     6f0:	4b15      	ldr	r3, [pc, #84]	; (748 <i2c_master_init+0xc4>)
     6f2:	4798      	blx	r3
	sercom_set_gclk_generator(config->generator_source, false);
     6f4:	687b      	ldr	r3, [r7, #4]
     6f6:	7b1b      	ldrb	r3, [r3, #12]
     6f8:	1c18      	adds	r0, r3, #0
     6fa:	2100      	movs	r1, #0
     6fc:	4b13      	ldr	r3, [pc, #76]	; (74c <i2c_master_init+0xc8>)
     6fe:	4798      	blx	r3

	/* Check if module is enabled. */
	if (i2c_module->CTRLA.reg & SERCOM_I2CM_CTRLA_ENABLE) {
     700:	6a7b      	ldr	r3, [r7, #36]	; 0x24
     702:	681b      	ldr	r3, [r3, #0]
     704:	2202      	movs	r2, #2
     706:	4013      	ands	r3, r2
     708:	d001      	beq.n	70e <i2c_master_init+0x8a>
		return STATUS_ERR_DENIED;
     70a:	231c      	movs	r3, #28
     70c:	e010      	b.n	730 <i2c_master_init+0xac>
	}

	/* Check if reset is in progress. */
	if (i2c_module->CTRLA.reg & SERCOM_I2CM_CTRLA_SWRST) {
     70e:	6a7b      	ldr	r3, [r7, #36]	; 0x24
     710:	681b      	ldr	r3, [r3, #0]
     712:	2201      	movs	r2, #1
     714:	4013      	ands	r3, r2
     716:	d001      	beq.n	71c <i2c_master_init+0x98>
		return STATUS_BUSY;
     718:	2305      	movs	r3, #5
     71a:	e009      	b.n	730 <i2c_master_init+0xac>
	module->status = STATUS_OK;
	module->buffer = NULL;
#endif

	/* Set sercom module to operate in I2C master mode. */
	i2c_module->CTRLA.reg = SERCOM_I2CM_CTRLA_MODE_I2C_MASTER;
     71c:	6a7b      	ldr	r3, [r7, #36]	; 0x24
     71e:	2214      	movs	r2, #20
     720:	601a      	str	r2, [r3, #0]

	/* Set config and return status. */
	return _i2c_master_set_config(module, config);
     722:	68fa      	ldr	r2, [r7, #12]
     724:	687b      	ldr	r3, [r7, #4]
     726:	1c10      	adds	r0, r2, #0
     728:	1c19      	adds	r1, r3, #0
     72a:	4b09      	ldr	r3, [pc, #36]	; (750 <i2c_master_init+0xcc>)
     72c:	4798      	blx	r3
     72e:	1c03      	adds	r3, r0, #0
}
     730:	1c18      	adds	r0, r3, #0
     732:	46bd      	mov	sp, r7
     734:	b00a      	add	sp, #40	; 0x28
     736:	bd80      	pop	{r7, pc}
     738:	00001231 	.word	0x00001231
     73c:	00000345 	.word	0x00000345
     740:	00000331 	.word	0x00000331
     744:	00002c71 	.word	0x00002c71
     748:	00002cb5 	.word	0x00002cb5
     74c:	00000fe9 	.word	0x00000fe9
     750:	0000042d 	.word	0x0000042d

00000754 <_i2c_master_address_response>:
 * \retval STATUS_ERR_BAD_ADDRESS       If slave is busy, or no slave
 *                                      acknowledged the address
 */
enum status_code _i2c_master_address_response(
		struct i2c_master_module *const module)
{
     754:	b580      	push	{r7, lr}
     756:	b084      	sub	sp, #16
     758:	af00      	add	r7, sp, #0
     75a:	6078      	str	r0, [r7, #4]
	/* Sanity check arguments */
	Assert(module);
	Assert(module->hw);

	SercomI2cm *const i2c_module = &(module->hw->I2CM);
     75c:	687b      	ldr	r3, [r7, #4]
     75e:	681b      	ldr	r3, [r3, #0]
     760:	60fb      	str	r3, [r7, #12]

	/* Check for error and ignore bus-error; workaround for BUSSTATE stuck in
	 * BUSY */
	if (i2c_module->INTFLAG.reg & SERCOM_I2CM_INTFLAG_SB) {
     762:	68fb      	ldr	r3, [r7, #12]
     764:	7e1b      	ldrb	r3, [r3, #24]
     766:	b2db      	uxtb	r3, r3
     768:	1c1a      	adds	r2, r3, #0
     76a:	2302      	movs	r3, #2
     76c:	4013      	ands	r3, r2
     76e:	d00b      	beq.n	788 <_i2c_master_address_response+0x34>

		/* Clear write interrupt flag */
		i2c_module->INTFLAG.reg = SERCOM_I2CM_INTFLAG_SB;
     770:	68fb      	ldr	r3, [r7, #12]
     772:	2202      	movs	r2, #2
     774:	761a      	strb	r2, [r3, #24]

		/* Check arbitration. */
		if (i2c_module->STATUS.reg & SERCOM_I2CM_STATUS_ARBLOST) {
     776:	68fb      	ldr	r3, [r7, #12]
     778:	8b5b      	ldrh	r3, [r3, #26]
     77a:	b29b      	uxth	r3, r3
     77c:	1c1a      	adds	r2, r3, #0
     77e:	2302      	movs	r3, #2
     780:	4013      	ands	r3, r2
     782:	d013      	beq.n	7ac <_i2c_master_address_response+0x58>
			/* Return packet collision. */
			return STATUS_ERR_PACKET_COLLISION;
     784:	2341      	movs	r3, #65	; 0x41
     786:	e012      	b.n	7ae <_i2c_master_address_response+0x5a>
		}
	/* Check that slave responded with ack. */
	} else if (i2c_module->STATUS.reg & SERCOM_I2CM_STATUS_RXNACK) {
     788:	68fb      	ldr	r3, [r7, #12]
     78a:	8b5b      	ldrh	r3, [r3, #26]
     78c:	b29b      	uxth	r3, r3
     78e:	1c1a      	adds	r2, r3, #0
     790:	2304      	movs	r3, #4
     792:	4013      	ands	r3, r2
     794:	d00a      	beq.n	7ac <_i2c_master_address_response+0x58>
		/* Slave busy. Issue ack and stop command. */
		int x = SERCOM_I2CM_STATUS_RXNACK;
     796:	2304      	movs	r3, #4
     798:	60bb      	str	r3, [r7, #8]
		i2c_module->CTRLB.reg |= SERCOM_I2CM_CTRLB_CMD(3);
     79a:	68fb      	ldr	r3, [r7, #12]
     79c:	685b      	ldr	r3, [r3, #4]
     79e:	22c0      	movs	r2, #192	; 0xc0
     7a0:	0292      	lsls	r2, r2, #10
     7a2:	431a      	orrs	r2, r3
     7a4:	68fb      	ldr	r3, [r7, #12]
     7a6:	605a      	str	r2, [r3, #4]

		/* Return bad address value. */
		return STATUS_ERR_BAD_ADDRESS;
     7a8:	2318      	movs	r3, #24
     7aa:	e000      	b.n	7ae <_i2c_master_address_response+0x5a>
	}

	return STATUS_OK;
     7ac:	2300      	movs	r3, #0
}
     7ae:	1c18      	adds	r0, r3, #0
     7b0:	46bd      	mov	sp, r7
     7b2:	b004      	add	sp, #16
     7b4:	bd80      	pop	{r7, pc}
     7b6:	46c0      	nop			; (mov r8, r8)

000007b8 <_i2c_master_wait_for_bus>:
 * \retval STATUS_ERR_TIMEOUT  If no response was given within specified timeout
 *                             period
 */
enum status_code _i2c_master_wait_for_bus(
		struct i2c_master_module *const module)
{
     7b8:	b580      	push	{r7, lr}
     7ba:	b084      	sub	sp, #16
     7bc:	af00      	add	r7, sp, #0
     7be:	6078      	str	r0, [r7, #4]
	/* Sanity check arguments */
	Assert(module);
	Assert(module->hw);

	SercomI2cm *const i2c_module = &(module->hw->I2CM);
     7c0:	687b      	ldr	r3, [r7, #4]
     7c2:	681b      	ldr	r3, [r3, #0]
     7c4:	60bb      	str	r3, [r7, #8]

	/* Wait for reply. */
	uint16_t timeout_counter = 0;
     7c6:	230e      	movs	r3, #14
     7c8:	18fb      	adds	r3, r7, r3
     7ca:	2200      	movs	r2, #0
     7cc:	801a      	strh	r2, [r3, #0]
	while (!(i2c_module->INTFLAG.reg & SERCOM_I2CM_INTFLAG_MB) &&
     7ce:	e00f      	b.n	7f0 <_i2c_master_wait_for_bus+0x38>
			!(i2c_module->INTFLAG.reg & SERCOM_I2CM_INTFLAG_SB)) {

		/* Check timeout condition. */
		if (++timeout_counter >= module->buffer_timeout) {
     7d0:	230e      	movs	r3, #14
     7d2:	18fb      	adds	r3, r7, r3
     7d4:	220e      	movs	r2, #14
     7d6:	18ba      	adds	r2, r7, r2
     7d8:	8812      	ldrh	r2, [r2, #0]
     7da:	3201      	adds	r2, #1
     7dc:	801a      	strh	r2, [r3, #0]
     7de:	687b      	ldr	r3, [r7, #4]
     7e0:	891b      	ldrh	r3, [r3, #8]
     7e2:	220e      	movs	r2, #14
     7e4:	18ba      	adds	r2, r7, r2
     7e6:	8812      	ldrh	r2, [r2, #0]
     7e8:	429a      	cmp	r2, r3
     7ea:	d301      	bcc.n	7f0 <_i2c_master_wait_for_bus+0x38>
			return STATUS_ERR_TIMEOUT;
     7ec:	2312      	movs	r3, #18
     7ee:	e00e      	b.n	80e <_i2c_master_wait_for_bus+0x56>

	SercomI2cm *const i2c_module = &(module->hw->I2CM);

	/* Wait for reply. */
	uint16_t timeout_counter = 0;
	while (!(i2c_module->INTFLAG.reg & SERCOM_I2CM_INTFLAG_MB) &&
     7f0:	68bb      	ldr	r3, [r7, #8]
     7f2:	7e1b      	ldrb	r3, [r3, #24]
     7f4:	b2db      	uxtb	r3, r3
     7f6:	1c1a      	adds	r2, r3, #0
     7f8:	2301      	movs	r3, #1
     7fa:	4013      	ands	r3, r2
     7fc:	d106      	bne.n	80c <_i2c_master_wait_for_bus+0x54>
			!(i2c_module->INTFLAG.reg & SERCOM_I2CM_INTFLAG_SB)) {
     7fe:	68bb      	ldr	r3, [r7, #8]
     800:	7e1b      	ldrb	r3, [r3, #24]
     802:	b2db      	uxtb	r3, r3
     804:	1c1a      	adds	r2, r3, #0
     806:	2302      	movs	r3, #2
     808:	4013      	ands	r3, r2

	SercomI2cm *const i2c_module = &(module->hw->I2CM);

	/* Wait for reply. */
	uint16_t timeout_counter = 0;
	while (!(i2c_module->INTFLAG.reg & SERCOM_I2CM_INTFLAG_MB) &&
     80a:	d0e1      	beq.n	7d0 <_i2c_master_wait_for_bus+0x18>
		/* Check timeout condition. */
		if (++timeout_counter >= module->buffer_timeout) {
			return STATUS_ERR_TIMEOUT;
		}
	}
	return STATUS_OK;
     80c:	2300      	movs	r3, #0
}
     80e:	1c18      	adds	r0, r3, #0
     810:	46bd      	mov	sp, r7
     812:	b004      	add	sp, #16
     814:	bd80      	pop	{r7, pc}
     816:	46c0      	nop			; (mov r8, r8)

00000818 <_i2c_master_send_hs_master_code>:
 * \retval STATUS_OK           No error happen.
 */
enum status_code _i2c_master_send_hs_master_code(
		struct i2c_master_module *const module,
		uint8_t hs_master_code)
{
     818:	b590      	push	{r4, r7, lr}
     81a:	b085      	sub	sp, #20
     81c:	af00      	add	r7, sp, #0
     81e:	6078      	str	r0, [r7, #4]
     820:	1c0a      	adds	r2, r1, #0
     822:	1cfb      	adds	r3, r7, #3
     824:	701a      	strb	r2, [r3, #0]
	SercomI2cm *const i2c_module = &(module->hw->I2CM);
     826:	687b      	ldr	r3, [r7, #4]
     828:	681b      	ldr	r3, [r3, #0]
     82a:	60fb      	str	r3, [r7, #12]
	/* Return value. */
	enum status_code tmp_status;

	/* Set NACK for high speed code */
	i2c_module->CTRLB.reg |= SERCOM_I2CM_CTRLB_ACKACT;
     82c:	68fb      	ldr	r3, [r7, #12]
     82e:	685b      	ldr	r3, [r3, #4]
     830:	2280      	movs	r2, #128	; 0x80
     832:	02d2      	lsls	r2, r2, #11
     834:	431a      	orrs	r2, r3
     836:	68fb      	ldr	r3, [r7, #12]
     838:	605a      	str	r2, [r3, #4]
	/* Send high speed code */
	i2c_module->ADDR.reg = hs_master_code;
     83a:	1cfb      	adds	r3, r7, #3
     83c:	781a      	ldrb	r2, [r3, #0]
     83e:	68fb      	ldr	r3, [r7, #12]
     840:	625a      	str	r2, [r3, #36]	; 0x24
	/* Wait for response on bus. */
	tmp_status = _i2c_master_wait_for_bus(module);
     842:	230b      	movs	r3, #11
     844:	18fc      	adds	r4, r7, r3
     846:	687b      	ldr	r3, [r7, #4]
     848:	1c18      	adds	r0, r3, #0
     84a:	4b07      	ldr	r3, [pc, #28]	; (868 <_i2c_master_send_hs_master_code+0x50>)
     84c:	4798      	blx	r3
     84e:	1c03      	adds	r3, r0, #0
     850:	7023      	strb	r3, [r4, #0]
	/* Clear write interrupt flag */
	i2c_module->INTFLAG.reg = SERCOM_I2CM_INTENCLR_MB;
     852:	68fb      	ldr	r3, [r7, #12]
     854:	2201      	movs	r2, #1
     856:	761a      	strb	r2, [r3, #24]

	return tmp_status;
     858:	230b      	movs	r3, #11
     85a:	18fb      	adds	r3, r7, r3
     85c:	781b      	ldrb	r3, [r3, #0]
}
     85e:	1c18      	adds	r0, r3, #0
     860:	46bd      	mov	sp, r7
     862:	b005      	add	sp, #20
     864:	bd90      	pop	{r4, r7, pc}
     866:	46c0      	nop			; (mov r8, r8)
     868:	000007b9 	.word	0x000007b9

0000086c <_i2c_master_read_packet>:
 *
 */
static enum status_code _i2c_master_read_packet(
		struct i2c_master_module *const module,
		struct i2c_master_packet *const packet)
{
     86c:	b590      	push	{r4, r7, lr}
     86e:	b087      	sub	sp, #28
     870:	af00      	add	r7, sp, #0
     872:	6078      	str	r0, [r7, #4]
     874:	6039      	str	r1, [r7, #0]
	/* Sanity check arguments */
	Assert(module);
	Assert(module->hw);
	Assert(packet);

	SercomI2cm *const i2c_module = &(module->hw->I2CM);
     876:	687b      	ldr	r3, [r7, #4]
     878:	681b      	ldr	r3, [r3, #0]
     87a:	60fb      	str	r3, [r7, #12]

	/* Return value. */
	enum status_code tmp_status;
	uint16_t tmp_data_length = packet->data_length;
     87c:	2314      	movs	r3, #20
     87e:	18fb      	adds	r3, r7, r3
     880:	683a      	ldr	r2, [r7, #0]
     882:	8852      	ldrh	r2, [r2, #2]
     884:	801a      	strh	r2, [r3, #0]

	/* Written buffer counter. */
	uint16_t counter = 0;
     886:	2312      	movs	r3, #18
     888:	18fb      	adds	r3, r7, r3
     88a:	2200      	movs	r2, #0
     88c:	801a      	strh	r2, [r3, #0]

	bool sclsm_flag = i2c_module->CTRLA.bit.SCLSM;
     88e:	68fb      	ldr	r3, [r7, #12]
     890:	681b      	ldr	r3, [r3, #0]
     892:	0edb      	lsrs	r3, r3, #27
     894:	1c1a      	adds	r2, r3, #0
     896:	2301      	movs	r3, #1
     898:	4013      	ands	r3, r2
     89a:	b2db      	uxtb	r3, r3
     89c:	1c1a      	adds	r2, r3, #0
     89e:	230b      	movs	r3, #11
     8a0:	18fb      	adds	r3, r7, r3
     8a2:	1e51      	subs	r1, r2, #1
     8a4:	418a      	sbcs	r2, r1
     8a6:	701a      	strb	r2, [r3, #0]

	/* Switch to high speed mode */
	if (packet->high_speed) {
     8a8:	683b      	ldr	r3, [r7, #0]
     8aa:	7a5b      	ldrb	r3, [r3, #9]
     8ac:	2b00      	cmp	r3, #0
     8ae:	d006      	beq.n	8be <_i2c_master_read_packet+0x52>
		_i2c_master_send_hs_master_code(module, packet->hs_master_code);
     8b0:	683b      	ldr	r3, [r7, #0]
     8b2:	7a9b      	ldrb	r3, [r3, #10]
     8b4:	687a      	ldr	r2, [r7, #4]
     8b6:	1c10      	adds	r0, r2, #0
     8b8:	1c19      	adds	r1, r3, #0
     8ba:	4b7a      	ldr	r3, [pc, #488]	; (aa4 <_i2c_master_read_packet+0x238>)
     8bc:	4798      	blx	r3
	}

	/* Set action to ACK. */
	i2c_module->CTRLB.reg &= ~SERCOM_I2CM_CTRLB_ACKACT;
     8be:	68fb      	ldr	r3, [r7, #12]
     8c0:	685b      	ldr	r3, [r3, #4]
     8c2:	4a79      	ldr	r2, [pc, #484]	; (aa8 <_i2c_master_read_packet+0x23c>)
     8c4:	401a      	ands	r2, r3
     8c6:	68fb      	ldr	r3, [r7, #12]
     8c8:	605a      	str	r2, [r3, #4]

	/* Set address and direction bit. Will send start command on bus. */
	if (packet->ten_bit_address) {
     8ca:	683b      	ldr	r3, [r7, #0]
     8cc:	7a1b      	ldrb	r3, [r3, #8]
     8ce:	2b00      	cmp	r3, #0
     8d0:	d042      	beq.n	958 <_i2c_master_read_packet+0xec>
		/*
		 * Write ADDR.ADDR[10:1] with the 10-bit address. ADDR.TENBITEN must
		 * be set and read/write bit (ADDR.ADDR[0]) equal to 0.
		 */
		i2c_module->ADDR.reg = (packet->address << 1) |
     8d2:	683b      	ldr	r3, [r7, #0]
     8d4:	881b      	ldrh	r3, [r3, #0]
     8d6:	005a      	lsls	r2, r3, #1
			(packet->high_speed << SERCOM_I2CM_ADDR_HS_Pos) |
     8d8:	683b      	ldr	r3, [r7, #0]
     8da:	7a5b      	ldrb	r3, [r3, #9]
     8dc:	039b      	lsls	r3, r3, #14
	if (packet->ten_bit_address) {
		/*
		 * Write ADDR.ADDR[10:1] with the 10-bit address. ADDR.TENBITEN must
		 * be set and read/write bit (ADDR.ADDR[0]) equal to 0.
		 */
		i2c_module->ADDR.reg = (packet->address << 1) |
     8de:	4313      	orrs	r3, r2
     8e0:	1c1a      	adds	r2, r3, #0
			(packet->high_speed << SERCOM_I2CM_ADDR_HS_Pos) |
     8e2:	2380      	movs	r3, #128	; 0x80
     8e4:	021b      	lsls	r3, r3, #8
     8e6:	431a      	orrs	r2, r3
	if (packet->ten_bit_address) {
		/*
		 * Write ADDR.ADDR[10:1] with the 10-bit address. ADDR.TENBITEN must
		 * be set and read/write bit (ADDR.ADDR[0]) equal to 0.
		 */
		i2c_module->ADDR.reg = (packet->address << 1) |
     8e8:	68fb      	ldr	r3, [r7, #12]
     8ea:	625a      	str	r2, [r3, #36]	; 0x24
			(packet->high_speed << SERCOM_I2CM_ADDR_HS_Pos) |
			SERCOM_I2CM_ADDR_TENBITEN;

		/* Wait for response on bus. */
		tmp_status = _i2c_master_wait_for_bus(module);
     8ec:	2317      	movs	r3, #23
     8ee:	18fc      	adds	r4, r7, r3
     8f0:	687b      	ldr	r3, [r7, #4]
     8f2:	1c18      	adds	r0, r3, #0
     8f4:	4b6d      	ldr	r3, [pc, #436]	; (aac <_i2c_master_read_packet+0x240>)
     8f6:	4798      	blx	r3
     8f8:	1c03      	adds	r3, r0, #0
     8fa:	7023      	strb	r3, [r4, #0]

		/* Set action to ack. */
		i2c_module->CTRLB.reg &= ~SERCOM_I2CM_CTRLB_ACKACT;
     8fc:	68fb      	ldr	r3, [r7, #12]
     8fe:	685b      	ldr	r3, [r3, #4]
     900:	4a69      	ldr	r2, [pc, #420]	; (aa8 <_i2c_master_read_packet+0x23c>)
     902:	401a      	ands	r2, r3
     904:	68fb      	ldr	r3, [r7, #12]
     906:	605a      	str	r2, [r3, #4]

		/* Check for address response error unless previous error is
		 * detected. */
		if (tmp_status == STATUS_OK) {
     908:	2317      	movs	r3, #23
     90a:	18fb      	adds	r3, r7, r3
     90c:	781b      	ldrb	r3, [r3, #0]
     90e:	2b00      	cmp	r3, #0
     910:	d107      	bne.n	922 <_i2c_master_read_packet+0xb6>
			tmp_status = _i2c_master_address_response(module);
     912:	2317      	movs	r3, #23
     914:	18fc      	adds	r4, r7, r3
     916:	687b      	ldr	r3, [r7, #4]
     918:	1c18      	adds	r0, r3, #0
     91a:	4b65      	ldr	r3, [pc, #404]	; (ab0 <_i2c_master_read_packet+0x244>)
     91c:	4798      	blx	r3
     91e:	1c03      	adds	r3, r0, #0
     920:	7023      	strb	r3, [r4, #0]
		}

		if (tmp_status == STATUS_OK) {
     922:	2317      	movs	r3, #23
     924:	18fb      	adds	r3, r7, r3
     926:	781b      	ldrb	r3, [r3, #0]
     928:	2b00      	cmp	r3, #0
     92a:	d111      	bne.n	950 <_i2c_master_read_packet+0xe4>
			/*
			 * Write ADDR[7:0] register to 11110 address[9:8] 1.
			 * ADDR.TENBITEN must be cleared
			 */
			i2c_module->ADDR.reg = (((packet->address >> 8) | 0x78) << 1) |
     92c:	683b      	ldr	r3, [r7, #0]
     92e:	881b      	ldrh	r3, [r3, #0]
     930:	0a1b      	lsrs	r3, r3, #8
     932:	b29b      	uxth	r3, r3
     934:	2278      	movs	r2, #120	; 0x78
     936:	4313      	orrs	r3, r2
     938:	b29b      	uxth	r3, r3
     93a:	005a      	lsls	r2, r3, #1
				(packet->high_speed << SERCOM_I2CM_ADDR_HS_Pos) |
     93c:	683b      	ldr	r3, [r7, #0]
     93e:	7a5b      	ldrb	r3, [r3, #9]
     940:	039b      	lsls	r3, r3, #14
		if (tmp_status == STATUS_OK) {
			/*
			 * Write ADDR[7:0] register to 11110 address[9:8] 1.
			 * ADDR.TENBITEN must be cleared
			 */
			i2c_module->ADDR.reg = (((packet->address >> 8) | 0x78) << 1) |
     942:	4313      	orrs	r3, r2
				(packet->high_speed << SERCOM_I2CM_ADDR_HS_Pos) |
     944:	2201      	movs	r2, #1
     946:	4313      	orrs	r3, r2
		if (tmp_status == STATUS_OK) {
			/*
			 * Write ADDR[7:0] register to 11110 address[9:8] 1.
			 * ADDR.TENBITEN must be cleared
			 */
			i2c_module->ADDR.reg = (((packet->address >> 8) | 0x78) << 1) |
     948:	1c1a      	adds	r2, r3, #0
     94a:	68fb      	ldr	r3, [r7, #12]
     94c:	625a      	str	r2, [r3, #36]	; 0x24
     94e:	e00f      	b.n	970 <_i2c_master_read_packet+0x104>
				(packet->high_speed << SERCOM_I2CM_ADDR_HS_Pos) |
				I2C_TRANSFER_READ;
		} else {
			return tmp_status;
     950:	2317      	movs	r3, #23
     952:	18fb      	adds	r3, r7, r3
     954:	781b      	ldrb	r3, [r3, #0]
     956:	e0a0      	b.n	a9a <_i2c_master_read_packet+0x22e>
		}
	} else {
		i2c_module->ADDR.reg = (packet->address << 1) | I2C_TRANSFER_READ |
     958:	683b      	ldr	r3, [r7, #0]
     95a:	881b      	ldrh	r3, [r3, #0]
     95c:	005b      	lsls	r3, r3, #1
     95e:	2201      	movs	r2, #1
     960:	431a      	orrs	r2, r3
			(packet->high_speed << SERCOM_I2CM_ADDR_HS_Pos);
     962:	683b      	ldr	r3, [r7, #0]
     964:	7a5b      	ldrb	r3, [r3, #9]
     966:	039b      	lsls	r3, r3, #14
				I2C_TRANSFER_READ;
		} else {
			return tmp_status;
		}
	} else {
		i2c_module->ADDR.reg = (packet->address << 1) | I2C_TRANSFER_READ |
     968:	4313      	orrs	r3, r2
     96a:	1c1a      	adds	r2, r3, #0
     96c:	68fb      	ldr	r3, [r7, #12]
     96e:	625a      	str	r2, [r3, #36]	; 0x24
			(packet->high_speed << SERCOM_I2CM_ADDR_HS_Pos);
	}

	/* Wait for response on bus. */
	tmp_status = _i2c_master_wait_for_bus(module);
     970:	2317      	movs	r3, #23
     972:	18fc      	adds	r4, r7, r3
     974:	687b      	ldr	r3, [r7, #4]
     976:	1c18      	adds	r0, r3, #0
     978:	4b4c      	ldr	r3, [pc, #304]	; (aac <_i2c_master_read_packet+0x240>)
     97a:	4798      	blx	r3
     97c:	1c03      	adds	r3, r0, #0
     97e:	7023      	strb	r3, [r4, #0]

	/* Set action to ack. */
	i2c_module->CTRLB.reg &= ~SERCOM_I2CM_CTRLB_ACKACT;
     980:	68fb      	ldr	r3, [r7, #12]
     982:	685b      	ldr	r3, [r3, #4]
     984:	4a48      	ldr	r2, [pc, #288]	; (aa8 <_i2c_master_read_packet+0x23c>)
     986:	401a      	ands	r2, r3
     988:	68fb      	ldr	r3, [r7, #12]
     98a:	605a      	str	r2, [r3, #4]

	/* Check for address response error unless previous error is
	 * detected. */
	if (tmp_status == STATUS_OK) {
     98c:	2317      	movs	r3, #23
     98e:	18fb      	adds	r3, r7, r3
     990:	781b      	ldrb	r3, [r3, #0]
     992:	2b00      	cmp	r3, #0
     994:	d107      	bne.n	9a6 <_i2c_master_read_packet+0x13a>
		tmp_status = _i2c_master_address_response(module);
     996:	2317      	movs	r3, #23
     998:	18fc      	adds	r4, r7, r3
     99a:	687b      	ldr	r3, [r7, #4]
     99c:	1c18      	adds	r0, r3, #0
     99e:	4b44      	ldr	r3, [pc, #272]	; (ab0 <_i2c_master_read_packet+0x244>)
     9a0:	4798      	blx	r3
     9a2:	1c03      	adds	r3, r0, #0
     9a4:	7023      	strb	r3, [r4, #0]
	}

	/* Check that no error has occurred. */
	if (tmp_status == STATUS_OK) {
     9a6:	2317      	movs	r3, #23
     9a8:	18fb      	adds	r3, r7, r3
     9aa:	781b      	ldrb	r3, [r3, #0]
     9ac:	2b00      	cmp	r3, #0
     9ae:	d000      	beq.n	9b2 <_i2c_master_read_packet+0x146>
     9b0:	e070      	b.n	a94 <_i2c_master_read_packet+0x228>
		/* Read data buffer. */
		while (tmp_data_length--) {
     9b2:	e048      	b.n	a46 <_i2c_master_read_packet+0x1da>
			/* Check that bus ownership is not lost. */
			if (!(i2c_module->STATUS.reg & SERCOM_I2CM_STATUS_BUSSTATE(2))) {
     9b4:	68fb      	ldr	r3, [r7, #12]
     9b6:	8b5b      	ldrh	r3, [r3, #26]
     9b8:	b29b      	uxth	r3, r3
     9ba:	1c1a      	adds	r2, r3, #0
     9bc:	2320      	movs	r3, #32
     9be:	4013      	ands	r3, r2
     9c0:	d101      	bne.n	9c6 <_i2c_master_read_packet+0x15a>
				return STATUS_ERR_PACKET_COLLISION;
     9c2:	2341      	movs	r3, #65	; 0x41
     9c4:	e069      	b.n	a9a <_i2c_master_read_packet+0x22e>
			}

			if (((!sclsm_flag) && (tmp_data_length == 0)) ||
     9c6:	230b      	movs	r3, #11
     9c8:	18fb      	adds	r3, r7, r3
     9ca:	781b      	ldrb	r3, [r3, #0]
     9cc:	2201      	movs	r2, #1
     9ce:	4053      	eors	r3, r2
     9d0:	b2db      	uxtb	r3, r3
     9d2:	2b00      	cmp	r3, #0
     9d4:	d004      	beq.n	9e0 <_i2c_master_read_packet+0x174>
     9d6:	2314      	movs	r3, #20
     9d8:	18fb      	adds	r3, r7, r3
     9da:	881b      	ldrh	r3, [r3, #0]
     9dc:	2b00      	cmp	r3, #0
     9de:	d009      	beq.n	9f4 <_i2c_master_read_packet+0x188>
     9e0:	230b      	movs	r3, #11
     9e2:	18fb      	adds	r3, r7, r3
     9e4:	781b      	ldrb	r3, [r3, #0]
     9e6:	2b00      	cmp	r3, #0
     9e8:	d00c      	beq.n	a04 <_i2c_master_read_packet+0x198>
					((sclsm_flag) && (tmp_data_length == 1))) {
     9ea:	2314      	movs	r3, #20
     9ec:	18fb      	adds	r3, r7, r3
     9ee:	881b      	ldrh	r3, [r3, #0]
     9f0:	2b01      	cmp	r3, #1
     9f2:	d107      	bne.n	a04 <_i2c_master_read_packet+0x198>
				/* Set action to NACK */
				i2c_module->CTRLB.reg |= SERCOM_I2CM_CTRLB_ACKACT;
     9f4:	68fb      	ldr	r3, [r7, #12]
     9f6:	685b      	ldr	r3, [r3, #4]
     9f8:	2280      	movs	r2, #128	; 0x80
     9fa:	02d2      	lsls	r2, r2, #11
     9fc:	431a      	orrs	r2, r3
     9fe:	68fb      	ldr	r3, [r7, #12]
     a00:	605a      	str	r2, [r3, #4]
     a02:	e01a      	b.n	a3a <_i2c_master_read_packet+0x1ce>
			} else {
				/* Save data to buffer. */
				_i2c_master_wait_for_sync(module);
     a04:	687b      	ldr	r3, [r7, #4]
     a06:	1c18      	adds	r0, r3, #0
     a08:	4b2a      	ldr	r3, [pc, #168]	; (ab4 <_i2c_master_read_packet+0x248>)
     a0a:	4798      	blx	r3
				packet->data[counter++] = i2c_module->DATA.reg;
     a0c:	683b      	ldr	r3, [r7, #0]
     a0e:	685a      	ldr	r2, [r3, #4]
     a10:	2312      	movs	r3, #18
     a12:	18fb      	adds	r3, r7, r3
     a14:	881b      	ldrh	r3, [r3, #0]
     a16:	2112      	movs	r1, #18
     a18:	1879      	adds	r1, r7, r1
     a1a:	1c58      	adds	r0, r3, #1
     a1c:	8008      	strh	r0, [r1, #0]
     a1e:	18d3      	adds	r3, r2, r3
     a20:	68fa      	ldr	r2, [r7, #12]
     a22:	2128      	movs	r1, #40	; 0x28
     a24:	5c52      	ldrb	r2, [r2, r1]
     a26:	b2d2      	uxtb	r2, r2
     a28:	701a      	strb	r2, [r3, #0]
				/* Wait for response. */
				tmp_status = _i2c_master_wait_for_bus(module);
     a2a:	2317      	movs	r3, #23
     a2c:	18fc      	adds	r4, r7, r3
     a2e:	687b      	ldr	r3, [r7, #4]
     a30:	1c18      	adds	r0, r3, #0
     a32:	4b1e      	ldr	r3, [pc, #120]	; (aac <_i2c_master_read_packet+0x240>)
     a34:	4798      	blx	r3
     a36:	1c03      	adds	r3, r0, #0
     a38:	7023      	strb	r3, [r4, #0]
			}

			/* Check for error. */
			if (tmp_status != STATUS_OK) {
     a3a:	2317      	movs	r3, #23
     a3c:	18fb      	adds	r3, r7, r3
     a3e:	781b      	ldrb	r3, [r3, #0]
     a40:	2b00      	cmp	r3, #0
     a42:	d000      	beq.n	a46 <_i2c_master_read_packet+0x1da>
				break;
     a44:	e008      	b.n	a58 <_i2c_master_read_packet+0x1ec>
	}

	/* Check that no error has occurred. */
	if (tmp_status == STATUS_OK) {
		/* Read data buffer. */
		while (tmp_data_length--) {
     a46:	2314      	movs	r3, #20
     a48:	18fb      	adds	r3, r7, r3
     a4a:	881b      	ldrh	r3, [r3, #0]
     a4c:	2214      	movs	r2, #20
     a4e:	18ba      	adds	r2, r7, r2
     a50:	1e59      	subs	r1, r3, #1
     a52:	8011      	strh	r1, [r2, #0]
     a54:	2b00      	cmp	r3, #0
     a56:	d1ad      	bne.n	9b4 <_i2c_master_read_packet+0x148>
			if (tmp_status != STATUS_OK) {
				break;
			}
		}

		if (module->send_stop) {
     a58:	687b      	ldr	r3, [r7, #4]
     a5a:	7a9b      	ldrb	r3, [r3, #10]
     a5c:	2b00      	cmp	r3, #0
     a5e:	d00a      	beq.n	a76 <_i2c_master_read_packet+0x20a>
			/* Send stop command unless arbitration is lost. */
			_i2c_master_wait_for_sync(module);
     a60:	687b      	ldr	r3, [r7, #4]
     a62:	1c18      	adds	r0, r3, #0
     a64:	4b13      	ldr	r3, [pc, #76]	; (ab4 <_i2c_master_read_packet+0x248>)
     a66:	4798      	blx	r3
			i2c_module->CTRLB.reg |= SERCOM_I2CM_CTRLB_CMD(3);
     a68:	68fb      	ldr	r3, [r7, #12]
     a6a:	685b      	ldr	r3, [r3, #4]
     a6c:	22c0      	movs	r2, #192	; 0xc0
     a6e:	0292      	lsls	r2, r2, #10
     a70:	431a      	orrs	r2, r3
     a72:	68fb      	ldr	r3, [r7, #12]
     a74:	605a      	str	r2, [r3, #4]
		}

		/* Save last data to buffer. */
		_i2c_master_wait_for_sync(module);
     a76:	687b      	ldr	r3, [r7, #4]
     a78:	1c18      	adds	r0, r3, #0
     a7a:	4b0e      	ldr	r3, [pc, #56]	; (ab4 <_i2c_master_read_packet+0x248>)
     a7c:	4798      	blx	r3
		packet->data[counter] = i2c_module->DATA.reg;
     a7e:	683b      	ldr	r3, [r7, #0]
     a80:	685a      	ldr	r2, [r3, #4]
     a82:	2312      	movs	r3, #18
     a84:	18fb      	adds	r3, r7, r3
     a86:	881b      	ldrh	r3, [r3, #0]
     a88:	18d3      	adds	r3, r2, r3
     a8a:	68fa      	ldr	r2, [r7, #12]
     a8c:	2128      	movs	r1, #40	; 0x28
     a8e:	5c52      	ldrb	r2, [r2, r1]
     a90:	b2d2      	uxtb	r2, r2
     a92:	701a      	strb	r2, [r3, #0]
	}

	return tmp_status;
     a94:	2317      	movs	r3, #23
     a96:	18fb      	adds	r3, r7, r3
     a98:	781b      	ldrb	r3, [r3, #0]
}
     a9a:	1c18      	adds	r0, r3, #0
     a9c:	46bd      	mov	sp, r7
     a9e:	b007      	add	sp, #28
     aa0:	bd90      	pop	{r4, r7, pc}
     aa2:	46c0      	nop			; (mov r8, r8)
     aa4:	00000819 	.word	0x00000819
     aa8:	fffbffff 	.word	0xfffbffff
     aac:	000007b9 	.word	0x000007b9
     ab0:	00000755 	.word	0x00000755
     ab4:	0000040d 	.word	0x0000040d

00000ab8 <i2c_master_read_packet_wait>:
 *                                      acknowledged the address
 */
enum status_code i2c_master_read_packet_wait(
		struct i2c_master_module *const module,
		struct i2c_master_packet *const packet)
{
     ab8:	b580      	push	{r7, lr}
     aba:	b082      	sub	sp, #8
     abc:	af00      	add	r7, sp, #0
     abe:	6078      	str	r0, [r7, #4]
     ac0:	6039      	str	r1, [r7, #0]
	if (module->buffer_remaining > 0) {
		return STATUS_BUSY;
	}
#endif

	module->send_stop = true;
     ac2:	687b      	ldr	r3, [r7, #4]
     ac4:	2201      	movs	r2, #1
     ac6:	729a      	strb	r2, [r3, #10]

	return _i2c_master_read_packet(module, packet);
     ac8:	687a      	ldr	r2, [r7, #4]
     aca:	683b      	ldr	r3, [r7, #0]
     acc:	1c10      	adds	r0, r2, #0
     ace:	1c19      	adds	r1, r3, #0
     ad0:	4b03      	ldr	r3, [pc, #12]	; (ae0 <i2c_master_read_packet_wait+0x28>)
     ad2:	4798      	blx	r3
     ad4:	1c03      	adds	r3, r0, #0
}
     ad6:	1c18      	adds	r0, r3, #0
     ad8:	46bd      	mov	sp, r7
     ada:	b002      	add	sp, #8
     adc:	bd80      	pop	{r7, pc}
     ade:	46c0      	nop			; (mov r8, r8)
     ae0:	0000086d 	.word	0x0000086d

00000ae4 <_i2c_master_write_packet>:
 *                                      acknowledged the address
 */
static enum status_code _i2c_master_write_packet(
		struct i2c_master_module *const module,
		struct i2c_master_packet *const packet)
{
     ae4:	b590      	push	{r4, r7, lr}
     ae6:	b087      	sub	sp, #28
     ae8:	af00      	add	r7, sp, #0
     aea:	6078      	str	r0, [r7, #4]
     aec:	6039      	str	r1, [r7, #0]
	SercomI2cm *const i2c_module = &(module->hw->I2CM);
     aee:	687b      	ldr	r3, [r7, #4]
     af0:	681b      	ldr	r3, [r3, #0]
     af2:	60fb      	str	r3, [r7, #12]

	/* Return value. */
	enum status_code tmp_status;
	uint16_t tmp_data_length = packet->data_length;
     af4:	2314      	movs	r3, #20
     af6:	18fb      	adds	r3, r7, r3
     af8:	683a      	ldr	r2, [r7, #0]
     afa:	8852      	ldrh	r2, [r2, #2]
     afc:	801a      	strh	r2, [r3, #0]

	_i2c_master_wait_for_sync(module);
     afe:	687b      	ldr	r3, [r7, #4]
     b00:	1c18      	adds	r0, r3, #0
     b02:	4b51      	ldr	r3, [pc, #324]	; (c48 <_i2c_master_write_packet+0x164>)
     b04:	4798      	blx	r3

	/* Switch to high speed mode */
	if (packet->high_speed) {
     b06:	683b      	ldr	r3, [r7, #0]
     b08:	7a5b      	ldrb	r3, [r3, #9]
     b0a:	2b00      	cmp	r3, #0
     b0c:	d006      	beq.n	b1c <_i2c_master_write_packet+0x38>
		_i2c_master_send_hs_master_code(module, packet->hs_master_code);
     b0e:	683b      	ldr	r3, [r7, #0]
     b10:	7a9b      	ldrb	r3, [r3, #10]
     b12:	687a      	ldr	r2, [r7, #4]
     b14:	1c10      	adds	r0, r2, #0
     b16:	1c19      	adds	r1, r3, #0
     b18:	4b4c      	ldr	r3, [pc, #304]	; (c4c <_i2c_master_write_packet+0x168>)
     b1a:	4798      	blx	r3
	}

	/* Set action to ACK. */
	i2c_module->CTRLB.reg &= ~SERCOM_I2CM_CTRLB_ACKACT;
     b1c:	68fb      	ldr	r3, [r7, #12]
     b1e:	685b      	ldr	r3, [r3, #4]
     b20:	4a4b      	ldr	r2, [pc, #300]	; (c50 <_i2c_master_write_packet+0x16c>)
     b22:	401a      	ands	r2, r3
     b24:	68fb      	ldr	r3, [r7, #12]
     b26:	605a      	str	r2, [r3, #4]

	/* Set address and direction bit. Will send start command on bus. */
	if (packet->ten_bit_address) {
     b28:	683b      	ldr	r3, [r7, #0]
     b2a:	7a1b      	ldrb	r3, [r3, #8]
     b2c:	2b00      	cmp	r3, #0
     b2e:	d00d      	beq.n	b4c <_i2c_master_write_packet+0x68>
		i2c_module->ADDR.reg = (packet->address << 1) | I2C_TRANSFER_WRITE |
     b30:	683b      	ldr	r3, [r7, #0]
     b32:	881b      	ldrh	r3, [r3, #0]
     b34:	005a      	lsls	r2, r3, #1
			(packet->high_speed << SERCOM_I2CM_ADDR_HS_Pos) |
     b36:	683b      	ldr	r3, [r7, #0]
     b38:	7a5b      	ldrb	r3, [r3, #9]
     b3a:	039b      	lsls	r3, r3, #14
	/* Set action to ACK. */
	i2c_module->CTRLB.reg &= ~SERCOM_I2CM_CTRLB_ACKACT;

	/* Set address and direction bit. Will send start command on bus. */
	if (packet->ten_bit_address) {
		i2c_module->ADDR.reg = (packet->address << 1) | I2C_TRANSFER_WRITE |
     b3c:	4313      	orrs	r3, r2
     b3e:	1c1a      	adds	r2, r3, #0
			(packet->high_speed << SERCOM_I2CM_ADDR_HS_Pos) |
     b40:	2380      	movs	r3, #128	; 0x80
     b42:	021b      	lsls	r3, r3, #8
     b44:	431a      	orrs	r2, r3
	/* Set action to ACK. */
	i2c_module->CTRLB.reg &= ~SERCOM_I2CM_CTRLB_ACKACT;

	/* Set address and direction bit. Will send start command on bus. */
	if (packet->ten_bit_address) {
		i2c_module->ADDR.reg = (packet->address << 1) | I2C_TRANSFER_WRITE |
     b46:	68fb      	ldr	r3, [r7, #12]
     b48:	625a      	str	r2, [r3, #36]	; 0x24
     b4a:	e009      	b.n	b60 <_i2c_master_write_packet+0x7c>
			(packet->high_speed << SERCOM_I2CM_ADDR_HS_Pos) |
			SERCOM_I2CM_ADDR_TENBITEN;
	} else {
		i2c_module->ADDR.reg = (packet->address << 1) | I2C_TRANSFER_WRITE |
     b4c:	683b      	ldr	r3, [r7, #0]
     b4e:	881b      	ldrh	r3, [r3, #0]
     b50:	005a      	lsls	r2, r3, #1
			(packet->high_speed << SERCOM_I2CM_ADDR_HS_Pos);
     b52:	683b      	ldr	r3, [r7, #0]
     b54:	7a5b      	ldrb	r3, [r3, #9]
     b56:	039b      	lsls	r3, r3, #14
	if (packet->ten_bit_address) {
		i2c_module->ADDR.reg = (packet->address << 1) | I2C_TRANSFER_WRITE |
			(packet->high_speed << SERCOM_I2CM_ADDR_HS_Pos) |
			SERCOM_I2CM_ADDR_TENBITEN;
	} else {
		i2c_module->ADDR.reg = (packet->address << 1) | I2C_TRANSFER_WRITE |
     b58:	4313      	orrs	r3, r2
     b5a:	1c1a      	adds	r2, r3, #0
     b5c:	68fb      	ldr	r3, [r7, #12]
     b5e:	625a      	str	r2, [r3, #36]	; 0x24
			(packet->high_speed << SERCOM_I2CM_ADDR_HS_Pos);
	}
	/* Wait for response on bus. */
	tmp_status = _i2c_master_wait_for_bus(module);
     b60:	2317      	movs	r3, #23
     b62:	18fc      	adds	r4, r7, r3
     b64:	687b      	ldr	r3, [r7, #4]
     b66:	1c18      	adds	r0, r3, #0
     b68:	4b3a      	ldr	r3, [pc, #232]	; (c54 <_i2c_master_write_packet+0x170>)
     b6a:	4798      	blx	r3
     b6c:	1c03      	adds	r3, r0, #0
     b6e:	7023      	strb	r3, [r4, #0]

	/* Check for address response error unless previous error is
	 * detected. */
	if (tmp_status == STATUS_OK) {
     b70:	2317      	movs	r3, #23
     b72:	18fb      	adds	r3, r7, r3
     b74:	781b      	ldrb	r3, [r3, #0]
     b76:	2b00      	cmp	r3, #0
     b78:	d107      	bne.n	b8a <_i2c_master_write_packet+0xa6>
		tmp_status = _i2c_master_address_response(module);
     b7a:	2317      	movs	r3, #23
     b7c:	18fc      	adds	r4, r7, r3
     b7e:	687b      	ldr	r3, [r7, #4]
     b80:	1c18      	adds	r0, r3, #0
     b82:	4b35      	ldr	r3, [pc, #212]	; (c58 <_i2c_master_write_packet+0x174>)
     b84:	4798      	blx	r3
     b86:	1c03      	adds	r3, r0, #0
     b88:	7023      	strb	r3, [r4, #0]
	}

	/* Check that no error has occurred. */
	if (tmp_status == STATUS_OK) {
     b8a:	2317      	movs	r3, #23
     b8c:	18fb      	adds	r3, r7, r3
     b8e:	781b      	ldrb	r3, [r3, #0]
     b90:	2b00      	cmp	r3, #0
     b92:	d151      	bne.n	c38 <_i2c_master_write_packet+0x154>
		/* Buffer counter. */
		uint16_t buffer_counter = 0;
     b94:	2312      	movs	r3, #18
     b96:	18fb      	adds	r3, r7, r3
     b98:	2200      	movs	r2, #0
     b9a:	801a      	strh	r2, [r3, #0]

		/* Write data buffer. */
		while (tmp_data_length--) {
     b9c:	e034      	b.n	c08 <_i2c_master_write_packet+0x124>
			/* Check that bus ownership is not lost. */
			if (!(i2c_module->STATUS.reg & SERCOM_I2CM_STATUS_BUSSTATE(2))) {
     b9e:	68fb      	ldr	r3, [r7, #12]
     ba0:	8b5b      	ldrh	r3, [r3, #26]
     ba2:	b29b      	uxth	r3, r3
     ba4:	1c1a      	adds	r2, r3, #0
     ba6:	2320      	movs	r3, #32
     ba8:	4013      	ands	r3, r2
     baa:	d101      	bne.n	bb0 <_i2c_master_write_packet+0xcc>
				return STATUS_ERR_PACKET_COLLISION;
     bac:	2341      	movs	r3, #65	; 0x41
     bae:	e046      	b.n	c3e <_i2c_master_write_packet+0x15a>
			}

			/* Write byte to slave. */
			_i2c_master_wait_for_sync(module);
     bb0:	687b      	ldr	r3, [r7, #4]
     bb2:	1c18      	adds	r0, r3, #0
     bb4:	4b24      	ldr	r3, [pc, #144]	; (c48 <_i2c_master_write_packet+0x164>)
     bb6:	4798      	blx	r3
			i2c_module->DATA.reg = packet->data[buffer_counter++];
     bb8:	683b      	ldr	r3, [r7, #0]
     bba:	685a      	ldr	r2, [r3, #4]
     bbc:	2312      	movs	r3, #18
     bbe:	18fb      	adds	r3, r7, r3
     bc0:	881b      	ldrh	r3, [r3, #0]
     bc2:	2112      	movs	r1, #18
     bc4:	1879      	adds	r1, r7, r1
     bc6:	1c58      	adds	r0, r3, #1
     bc8:	8008      	strh	r0, [r1, #0]
     bca:	18d3      	adds	r3, r2, r3
     bcc:	7819      	ldrb	r1, [r3, #0]
     bce:	68fb      	ldr	r3, [r7, #12]
     bd0:	2228      	movs	r2, #40	; 0x28
     bd2:	5499      	strb	r1, [r3, r2]

			/* Wait for response. */
			tmp_status = _i2c_master_wait_for_bus(module);
     bd4:	2317      	movs	r3, #23
     bd6:	18fc      	adds	r4, r7, r3
     bd8:	687b      	ldr	r3, [r7, #4]
     bda:	1c18      	adds	r0, r3, #0
     bdc:	4b1d      	ldr	r3, [pc, #116]	; (c54 <_i2c_master_write_packet+0x170>)
     bde:	4798      	blx	r3
     be0:	1c03      	adds	r3, r0, #0
     be2:	7023      	strb	r3, [r4, #0]

			/* Check for error. */
			if (tmp_status != STATUS_OK) {
     be4:	2317      	movs	r3, #23
     be6:	18fb      	adds	r3, r7, r3
     be8:	781b      	ldrb	r3, [r3, #0]
     bea:	2b00      	cmp	r3, #0
     bec:	d000      	beq.n	bf0 <_i2c_master_write_packet+0x10c>
				break;
     bee:	e014      	b.n	c1a <_i2c_master_write_packet+0x136>
			}

			/* Check for NACK from slave. */
			if (i2c_module->STATUS.reg & SERCOM_I2CM_STATUS_RXNACK) {
     bf0:	68fb      	ldr	r3, [r7, #12]
     bf2:	8b5b      	ldrh	r3, [r3, #26]
     bf4:	b29b      	uxth	r3, r3
     bf6:	1c1a      	adds	r2, r3, #0
     bf8:	2304      	movs	r3, #4
     bfa:	4013      	ands	r3, r2
     bfc:	d004      	beq.n	c08 <_i2c_master_write_packet+0x124>
				/* Return bad data value. */
				tmp_status = STATUS_ERR_OVERFLOW;
     bfe:	2317      	movs	r3, #23
     c00:	18fb      	adds	r3, r7, r3
     c02:	221e      	movs	r2, #30
     c04:	701a      	strb	r2, [r3, #0]
				break;
     c06:	e008      	b.n	c1a <_i2c_master_write_packet+0x136>
	if (tmp_status == STATUS_OK) {
		/* Buffer counter. */
		uint16_t buffer_counter = 0;

		/* Write data buffer. */
		while (tmp_data_length--) {
     c08:	2314      	movs	r3, #20
     c0a:	18fb      	adds	r3, r7, r3
     c0c:	881b      	ldrh	r3, [r3, #0]
     c0e:	2214      	movs	r2, #20
     c10:	18ba      	adds	r2, r7, r2
     c12:	1e59      	subs	r1, r3, #1
     c14:	8011      	strh	r1, [r2, #0]
     c16:	2b00      	cmp	r3, #0
     c18:	d1c1      	bne.n	b9e <_i2c_master_write_packet+0xba>
				tmp_status = STATUS_ERR_OVERFLOW;
				break;
			}
		}

		if (module->send_stop) {
     c1a:	687b      	ldr	r3, [r7, #4]
     c1c:	7a9b      	ldrb	r3, [r3, #10]
     c1e:	2b00      	cmp	r3, #0
     c20:	d00a      	beq.n	c38 <_i2c_master_write_packet+0x154>
			/* Stop command */
			_i2c_master_wait_for_sync(module);
     c22:	687b      	ldr	r3, [r7, #4]
     c24:	1c18      	adds	r0, r3, #0
     c26:	4b08      	ldr	r3, [pc, #32]	; (c48 <_i2c_master_write_packet+0x164>)
     c28:	4798      	blx	r3
			i2c_module->CTRLB.reg |= SERCOM_I2CM_CTRLB_CMD(3);
     c2a:	68fb      	ldr	r3, [r7, #12]
     c2c:	685b      	ldr	r3, [r3, #4]
     c2e:	22c0      	movs	r2, #192	; 0xc0
     c30:	0292      	lsls	r2, r2, #10
     c32:	431a      	orrs	r2, r3
     c34:	68fb      	ldr	r3, [r7, #12]
     c36:	605a      	str	r2, [r3, #4]
		}
	}

	return tmp_status;
     c38:	2317      	movs	r3, #23
     c3a:	18fb      	adds	r3, r7, r3
     c3c:	781b      	ldrb	r3, [r3, #0]
}
     c3e:	1c18      	adds	r0, r3, #0
     c40:	46bd      	mov	sp, r7
     c42:	b007      	add	sp, #28
     c44:	bd90      	pop	{r4, r7, pc}
     c46:	46c0      	nop			; (mov r8, r8)
     c48:	0000040d 	.word	0x0000040d
     c4c:	00000819 	.word	0x00000819
     c50:	fffbffff 	.word	0xfffbffff
     c54:	000007b9 	.word	0x000007b9
     c58:	00000755 	.word	0x00000755

00000c5c <i2c_master_write_packet_wait_no_stop>:
 *                                      more data
 */
enum status_code i2c_master_write_packet_wait_no_stop(
		struct i2c_master_module *const module,
		struct i2c_master_packet *const packet)
{
     c5c:	b580      	push	{r7, lr}
     c5e:	b082      	sub	sp, #8
     c60:	af00      	add	r7, sp, #0
     c62:	6078      	str	r0, [r7, #4]
     c64:	6039      	str	r1, [r7, #0]
	if (module->buffer_remaining > 0) {
		return STATUS_BUSY;
	}
#endif

	module->send_stop = false;
     c66:	687b      	ldr	r3, [r7, #4]
     c68:	2200      	movs	r2, #0
     c6a:	729a      	strb	r2, [r3, #10]

	return _i2c_master_write_packet(module, packet);
     c6c:	687a      	ldr	r2, [r7, #4]
     c6e:	683b      	ldr	r3, [r7, #0]
     c70:	1c10      	adds	r0, r2, #0
     c72:	1c19      	adds	r1, r3, #0
     c74:	4b03      	ldr	r3, [pc, #12]	; (c84 <i2c_master_write_packet_wait_no_stop+0x28>)
     c76:	4798      	blx	r3
     c78:	1c03      	adds	r3, r0, #0
}
     c7a:	1c18      	adds	r0, r3, #0
     c7c:	46bd      	mov	sp, r7
     c7e:	b002      	add	sp, #8
     c80:	bd80      	pop	{r7, pc}
     c82:	46c0      	nop			; (mov r8, r8)
     c84:	00000ae5 	.word	0x00000ae5

00000c88 <system_gclk_chan_get_config_defaults>:
     c88:	b580      	push	{r7, lr}
     c8a:	b082      	sub	sp, #8
     c8c:	af00      	add	r7, sp, #0
     c8e:	6078      	str	r0, [r7, #4]
     c90:	687b      	ldr	r3, [r7, #4]
     c92:	2200      	movs	r2, #0
     c94:	701a      	strb	r2, [r3, #0]
     c96:	46bd      	mov	sp, r7
     c98:	b002      	add	sp, #8
     c9a:	bd80      	pop	{r7, pc}

00000c9c <long_division>:
     c9c:	b5f0      	push	{r4, r5, r6, r7, lr}
     c9e:	b08d      	sub	sp, #52	; 0x34
     ca0:	af00      	add	r7, sp, #0
     ca2:	60b8      	str	r0, [r7, #8]
     ca4:	60f9      	str	r1, [r7, #12]
     ca6:	603a      	str	r2, [r7, #0]
     ca8:	607b      	str	r3, [r7, #4]
     caa:	2300      	movs	r3, #0
     cac:	2400      	movs	r4, #0
     cae:	623b      	str	r3, [r7, #32]
     cb0:	627c      	str	r4, [r7, #36]	; 0x24
     cb2:	2300      	movs	r3, #0
     cb4:	2400      	movs	r4, #0
     cb6:	61bb      	str	r3, [r7, #24]
     cb8:	61fc      	str	r4, [r7, #28]
     cba:	233f      	movs	r3, #63	; 0x3f
     cbc:	62fb      	str	r3, [r7, #44]	; 0x2c
     cbe:	e053      	b.n	d68 <long_division+0xcc>
     cc0:	6afb      	ldr	r3, [r7, #44]	; 0x2c
     cc2:	3b20      	subs	r3, #32
     cc4:	2b00      	cmp	r3, #0
     cc6:	db04      	blt.n	cd2 <long_division+0x36>
     cc8:	2201      	movs	r2, #1
     cca:	409a      	lsls	r2, r3
     ccc:	1c13      	adds	r3, r2, #0
     cce:	617b      	str	r3, [r7, #20]
     cd0:	e00b      	b.n	cea <long_division+0x4e>
     cd2:	6afb      	ldr	r3, [r7, #44]	; 0x2c
     cd4:	2220      	movs	r2, #32
     cd6:	1ad3      	subs	r3, r2, r3
     cd8:	2201      	movs	r2, #1
     cda:	40da      	lsrs	r2, r3
     cdc:	1c13      	adds	r3, r2, #0
     cde:	2100      	movs	r1, #0
     ce0:	6afa      	ldr	r2, [r7, #44]	; 0x2c
     ce2:	4091      	lsls	r1, r2
     ce4:	1c0a      	adds	r2, r1, #0
     ce6:	4313      	orrs	r3, r2
     ce8:	617b      	str	r3, [r7, #20]
     cea:	2201      	movs	r2, #1
     cec:	6afb      	ldr	r3, [r7, #44]	; 0x2c
     cee:	409a      	lsls	r2, r3
     cf0:	1c13      	adds	r3, r2, #0
     cf2:	613b      	str	r3, [r7, #16]
     cf4:	69bb      	ldr	r3, [r7, #24]
     cf6:	69fc      	ldr	r4, [r7, #28]
     cf8:	18db      	adds	r3, r3, r3
     cfa:	4164      	adcs	r4, r4
     cfc:	61bb      	str	r3, [r7, #24]
     cfe:	61fc      	str	r4, [r7, #28]
     d00:	68bb      	ldr	r3, [r7, #8]
     d02:	693a      	ldr	r2, [r7, #16]
     d04:	401a      	ands	r2, r3
     d06:	1c15      	adds	r5, r2, #0
     d08:	68fb      	ldr	r3, [r7, #12]
     d0a:	697a      	ldr	r2, [r7, #20]
     d0c:	401a      	ands	r2, r3
     d0e:	1c16      	adds	r6, r2, #0
     d10:	1c2b      	adds	r3, r5, #0
     d12:	4333      	orrs	r3, r6
     d14:	d007      	beq.n	d26 <long_division+0x8a>
     d16:	69bb      	ldr	r3, [r7, #24]
     d18:	2201      	movs	r2, #1
     d1a:	4313      	orrs	r3, r2
     d1c:	61bb      	str	r3, [r7, #24]
     d1e:	69fb      	ldr	r3, [r7, #28]
     d20:	2200      	movs	r2, #0
     d22:	4313      	orrs	r3, r2
     d24:	61fb      	str	r3, [r7, #28]
     d26:	687a      	ldr	r2, [r7, #4]
     d28:	69fb      	ldr	r3, [r7, #28]
     d2a:	429a      	cmp	r2, r3
     d2c:	d819      	bhi.n	d62 <long_division+0xc6>
     d2e:	687a      	ldr	r2, [r7, #4]
     d30:	69fb      	ldr	r3, [r7, #28]
     d32:	429a      	cmp	r2, r3
     d34:	d103      	bne.n	d3e <long_division+0xa2>
     d36:	683a      	ldr	r2, [r7, #0]
     d38:	69bb      	ldr	r3, [r7, #24]
     d3a:	429a      	cmp	r2, r3
     d3c:	d811      	bhi.n	d62 <long_division+0xc6>
     d3e:	69b9      	ldr	r1, [r7, #24]
     d40:	69fa      	ldr	r2, [r7, #28]
     d42:	683b      	ldr	r3, [r7, #0]
     d44:	687c      	ldr	r4, [r7, #4]
     d46:	1ac9      	subs	r1, r1, r3
     d48:	41a2      	sbcs	r2, r4
     d4a:	1c0b      	adds	r3, r1, #0
     d4c:	1c14      	adds	r4, r2, #0
     d4e:	61bb      	str	r3, [r7, #24]
     d50:	61fc      	str	r4, [r7, #28]
     d52:	6a3a      	ldr	r2, [r7, #32]
     d54:	693b      	ldr	r3, [r7, #16]
     d56:	4313      	orrs	r3, r2
     d58:	623b      	str	r3, [r7, #32]
     d5a:	6a7a      	ldr	r2, [r7, #36]	; 0x24
     d5c:	697b      	ldr	r3, [r7, #20]
     d5e:	4313      	orrs	r3, r2
     d60:	627b      	str	r3, [r7, #36]	; 0x24
     d62:	6afb      	ldr	r3, [r7, #44]	; 0x2c
     d64:	3b01      	subs	r3, #1
     d66:	62fb      	str	r3, [r7, #44]	; 0x2c
     d68:	6afb      	ldr	r3, [r7, #44]	; 0x2c
     d6a:	2b00      	cmp	r3, #0
     d6c:	daa8      	bge.n	cc0 <long_division+0x24>
     d6e:	6a3b      	ldr	r3, [r7, #32]
     d70:	6a7c      	ldr	r4, [r7, #36]	; 0x24
     d72:	1c18      	adds	r0, r3, #0
     d74:	1c21      	adds	r1, r4, #0
     d76:	46bd      	mov	sp, r7
     d78:	b00d      	add	sp, #52	; 0x34
     d7a:	bdf0      	pop	{r4, r5, r6, r7, pc}

00000d7c <_sercom_get_sync_baud_val>:
     d7c:	b580      	push	{r7, lr}
     d7e:	b086      	sub	sp, #24
     d80:	af00      	add	r7, sp, #0
     d82:	60f8      	str	r0, [r7, #12]
     d84:	60b9      	str	r1, [r7, #8]
     d86:	607a      	str	r2, [r7, #4]
     d88:	2316      	movs	r3, #22
     d8a:	18fb      	adds	r3, r7, r3
     d8c:	2200      	movs	r2, #0
     d8e:	801a      	strh	r2, [r3, #0]
     d90:	68bb      	ldr	r3, [r7, #8]
     d92:	613b      	str	r3, [r7, #16]
     d94:	68bb      	ldr	r3, [r7, #8]
     d96:	085a      	lsrs	r2, r3, #1
     d98:	68fb      	ldr	r3, [r7, #12]
     d9a:	429a      	cmp	r2, r3
     d9c:	d201      	bcs.n	da2 <_sercom_get_sync_baud_val+0x26>
     d9e:	2340      	movs	r3, #64	; 0x40
     da0:	e026      	b.n	df0 <_sercom_get_sync_baud_val+0x74>
     da2:	68bb      	ldr	r3, [r7, #8]
     da4:	085b      	lsrs	r3, r3, #1
     da6:	613b      	str	r3, [r7, #16]
     da8:	e00a      	b.n	dc0 <_sercom_get_sync_baud_val+0x44>
     daa:	693a      	ldr	r2, [r7, #16]
     dac:	68fb      	ldr	r3, [r7, #12]
     dae:	1ad3      	subs	r3, r2, r3
     db0:	613b      	str	r3, [r7, #16]
     db2:	2316      	movs	r3, #22
     db4:	18fb      	adds	r3, r7, r3
     db6:	881a      	ldrh	r2, [r3, #0]
     db8:	2316      	movs	r3, #22
     dba:	18fb      	adds	r3, r7, r3
     dbc:	3201      	adds	r2, #1
     dbe:	801a      	strh	r2, [r3, #0]
     dc0:	693a      	ldr	r2, [r7, #16]
     dc2:	68fb      	ldr	r3, [r7, #12]
     dc4:	429a      	cmp	r2, r3
     dc6:	d2f0      	bcs.n	daa <_sercom_get_sync_baud_val+0x2e>
     dc8:	2316      	movs	r3, #22
     dca:	18fb      	adds	r3, r7, r3
     dcc:	2216      	movs	r2, #22
     dce:	18ba      	adds	r2, r7, r2
     dd0:	8812      	ldrh	r2, [r2, #0]
     dd2:	3a01      	subs	r2, #1
     dd4:	801a      	strh	r2, [r3, #0]
     dd6:	2316      	movs	r3, #22
     dd8:	18fb      	adds	r3, r7, r3
     dda:	881b      	ldrh	r3, [r3, #0]
     ddc:	2bff      	cmp	r3, #255	; 0xff
     dde:	d901      	bls.n	de4 <_sercom_get_sync_baud_val+0x68>
     de0:	2340      	movs	r3, #64	; 0x40
     de2:	e005      	b.n	df0 <_sercom_get_sync_baud_val+0x74>
     de4:	687b      	ldr	r3, [r7, #4]
     de6:	2216      	movs	r2, #22
     de8:	18ba      	adds	r2, r7, r2
     dea:	8812      	ldrh	r2, [r2, #0]
     dec:	801a      	strh	r2, [r3, #0]
     dee:	2300      	movs	r3, #0
     df0:	1c18      	adds	r0, r3, #0
     df2:	46bd      	mov	sp, r7
     df4:	b006      	add	sp, #24
     df6:	bd80      	pop	{r7, pc}

00000df8 <_sercom_get_async_baud_val>:
     df8:	b5f0      	push	{r4, r5, r6, r7, lr}
     dfa:	b09d      	sub	sp, #116	; 0x74
     dfc:	af00      	add	r7, sp, #0
     dfe:	63f8      	str	r0, [r7, #60]	; 0x3c
     e00:	63b9      	str	r1, [r7, #56]	; 0x38
     e02:	637a      	str	r2, [r7, #52]	; 0x34
     e04:	2233      	movs	r2, #51	; 0x33
     e06:	18ba      	adds	r2, r7, r2
     e08:	7013      	strb	r3, [r2, #0]
     e0a:	2300      	movs	r3, #0
     e0c:	2400      	movs	r4, #0
     e0e:	65bb      	str	r3, [r7, #88]	; 0x58
     e10:	65fc      	str	r4, [r7, #92]	; 0x5c
     e12:	2300      	movs	r3, #0
     e14:	2400      	movs	r4, #0
     e16:	653b      	str	r3, [r7, #80]	; 0x50
     e18:	657c      	str	r4, [r7, #84]	; 0x54
     e1a:	2300      	movs	r3, #0
     e1c:	2400      	movs	r4, #0
     e1e:	66bb      	str	r3, [r7, #104]	; 0x68
     e20:	66fc      	str	r4, [r7, #108]	; 0x6c
     e22:	2300      	movs	r3, #0
     e24:	663b      	str	r3, [r7, #96]	; 0x60
     e26:	2358      	movs	r3, #88	; 0x58
     e28:	2230      	movs	r2, #48	; 0x30
     e2a:	4694      	mov	ip, r2
     e2c:	44bc      	add	ip, r7
     e2e:	4463      	add	r3, ip
     e30:	781a      	ldrb	r2, [r3, #0]
     e32:	6bfb      	ldr	r3, [r7, #60]	; 0x3c
     e34:	435a      	muls	r2, r3
     e36:	6bbb      	ldr	r3, [r7, #56]	; 0x38
     e38:	429a      	cmp	r2, r3
     e3a:	d901      	bls.n	e40 <_sercom_get_async_baud_val+0x48>
     e3c:	2340      	movs	r3, #64	; 0x40
     e3e:	e0c9      	b.n	fd4 <_sercom_get_async_baud_val+0x1dc>
     e40:	2333      	movs	r3, #51	; 0x33
     e42:	18fb      	adds	r3, r7, r3
     e44:	781b      	ldrb	r3, [r3, #0]
     e46:	2b00      	cmp	r3, #0
     e48:	d13f      	bne.n	eca <_sercom_get_async_baud_val+0xd2>
     e4a:	2358      	movs	r3, #88	; 0x58
     e4c:	2230      	movs	r2, #48	; 0x30
     e4e:	4694      	mov	ip, r2
     e50:	44bc      	add	ip, r7
     e52:	4463      	add	r3, ip
     e54:	781b      	ldrb	r3, [r3, #0]
     e56:	b2db      	uxtb	r3, r3
     e58:	613b      	str	r3, [r7, #16]
     e5a:	2300      	movs	r3, #0
     e5c:	617b      	str	r3, [r7, #20]
     e5e:	6bfb      	ldr	r3, [r7, #60]	; 0x3c
     e60:	60bb      	str	r3, [r7, #8]
     e62:	2300      	movs	r3, #0
     e64:	60fb      	str	r3, [r7, #12]
     e66:	4c5d      	ldr	r4, [pc, #372]	; (fdc <_sercom_get_async_baud_val+0x1e4>)
     e68:	6938      	ldr	r0, [r7, #16]
     e6a:	6979      	ldr	r1, [r7, #20]
     e6c:	68ba      	ldr	r2, [r7, #8]
     e6e:	68fb      	ldr	r3, [r7, #12]
     e70:	47a0      	blx	r4
     e72:	1c03      	adds	r3, r0, #0
     e74:	1c0c      	adds	r4, r1, #0
     e76:	001b      	movs	r3, r3
     e78:	64fb      	str	r3, [r7, #76]	; 0x4c
     e7a:	2300      	movs	r3, #0
     e7c:	64bb      	str	r3, [r7, #72]	; 0x48
     e7e:	6bbb      	ldr	r3, [r7, #56]	; 0x38
     e80:	603b      	str	r3, [r7, #0]
     e82:	2300      	movs	r3, #0
     e84:	607b      	str	r3, [r7, #4]
     e86:	6cbb      	ldr	r3, [r7, #72]	; 0x48
     e88:	6cfc      	ldr	r4, [r7, #76]	; 0x4c
     e8a:	1c18      	adds	r0, r3, #0
     e8c:	1c21      	adds	r1, r4, #0
     e8e:	683a      	ldr	r2, [r7, #0]
     e90:	687b      	ldr	r3, [r7, #4]
     e92:	4c53      	ldr	r4, [pc, #332]	; (fe0 <_sercom_get_async_baud_val+0x1e8>)
     e94:	47a0      	blx	r4
     e96:	1c03      	adds	r3, r0, #0
     e98:	1c0c      	adds	r4, r1, #0
     e9a:	65bb      	str	r3, [r7, #88]	; 0x58
     e9c:	65fc      	str	r4, [r7, #92]	; 0x5c
     e9e:	2100      	movs	r1, #0
     ea0:	2201      	movs	r2, #1
     ea2:	6dbb      	ldr	r3, [r7, #88]	; 0x58
     ea4:	6dfc      	ldr	r4, [r7, #92]	; 0x5c
     ea6:	1ac9      	subs	r1, r1, r3
     ea8:	41a2      	sbcs	r2, r4
     eaa:	1c0b      	adds	r3, r1, #0
     eac:	1c14      	adds	r4, r2, #0
     eae:	653b      	str	r3, [r7, #80]	; 0x50
     eb0:	657c      	str	r4, [r7, #84]	; 0x54
     eb2:	6d3b      	ldr	r3, [r7, #80]	; 0x50
     eb4:	0c1b      	lsrs	r3, r3, #16
     eb6:	6d7a      	ldr	r2, [r7, #84]	; 0x54
     eb8:	0416      	lsls	r6, r2, #16
     eba:	431e      	orrs	r6, r3
     ebc:	6d3b      	ldr	r3, [r7, #80]	; 0x50
     ebe:	041d      	lsls	r5, r3, #16
     ec0:	0033      	movs	r3, r6
     ec2:	66bb      	str	r3, [r7, #104]	; 0x68
     ec4:	2300      	movs	r3, #0
     ec6:	66fb      	str	r3, [r7, #108]	; 0x6c
     ec8:	e07e      	b.n	fc8 <_sercom_get_async_baud_val+0x1d0>
     eca:	2333      	movs	r3, #51	; 0x33
     ecc:	18fb      	adds	r3, r7, r3
     ece:	781b      	ldrb	r3, [r3, #0]
     ed0:	2b01      	cmp	r3, #1
     ed2:	d000      	beq.n	ed6 <_sercom_get_async_baud_val+0xde>
     ed4:	e078      	b.n	fc8 <_sercom_get_async_baud_val+0x1d0>
     ed6:	2337      	movs	r3, #55	; 0x37
     ed8:	2230      	movs	r2, #48	; 0x30
     eda:	4694      	mov	ip, r2
     edc:	44bc      	add	ip, r7
     ede:	4463      	add	r3, ip
     ee0:	2200      	movs	r2, #0
     ee2:	701a      	strb	r2, [r3, #0]
     ee4:	e051      	b.n	f8a <_sercom_get_async_baud_val+0x192>
     ee6:	6bbb      	ldr	r3, [r7, #56]	; 0x38
     ee8:	62bb      	str	r3, [r7, #40]	; 0x28
     eea:	2300      	movs	r3, #0
     eec:	62fb      	str	r3, [r7, #44]	; 0x2c
     eee:	6ab8      	ldr	r0, [r7, #40]	; 0x28
     ef0:	6af9      	ldr	r1, [r7, #44]	; 0x2c
     ef2:	1c03      	adds	r3, r0, #0
     ef4:	0f5b      	lsrs	r3, r3, #29
     ef6:	1c0a      	adds	r2, r1, #0
     ef8:	00d2      	lsls	r2, r2, #3
     efa:	4313      	orrs	r3, r2
     efc:	64fb      	str	r3, [r7, #76]	; 0x4c
     efe:	1c03      	adds	r3, r0, #0
     f00:	00db      	lsls	r3, r3, #3
     f02:	64bb      	str	r3, [r7, #72]	; 0x48
     f04:	6bfb      	ldr	r3, [r7, #60]	; 0x3c
     f06:	623b      	str	r3, [r7, #32]
     f08:	2300      	movs	r3, #0
     f0a:	627b      	str	r3, [r7, #36]	; 0x24
     f0c:	2358      	movs	r3, #88	; 0x58
     f0e:	2230      	movs	r2, #48	; 0x30
     f10:	4694      	mov	ip, r2
     f12:	44bc      	add	ip, r7
     f14:	4463      	add	r3, ip
     f16:	781b      	ldrb	r3, [r3, #0]
     f18:	b2db      	uxtb	r3, r3
     f1a:	61bb      	str	r3, [r7, #24]
     f1c:	2300      	movs	r3, #0
     f1e:	61fb      	str	r3, [r7, #28]
     f20:	4c2e      	ldr	r4, [pc, #184]	; (fdc <_sercom_get_async_baud_val+0x1e4>)
     f22:	6a38      	ldr	r0, [r7, #32]
     f24:	6a79      	ldr	r1, [r7, #36]	; 0x24
     f26:	69ba      	ldr	r2, [r7, #24]
     f28:	69fb      	ldr	r3, [r7, #28]
     f2a:	47a0      	blx	r4
     f2c:	1c03      	adds	r3, r0, #0
     f2e:	1c0c      	adds	r4, r1, #0
     f30:	643b      	str	r3, [r7, #64]	; 0x40
     f32:	647c      	str	r4, [r7, #68]	; 0x44
     f34:	6cb9      	ldr	r1, [r7, #72]	; 0x48
     f36:	6cfa      	ldr	r2, [r7, #76]	; 0x4c
     f38:	6c3b      	ldr	r3, [r7, #64]	; 0x40
     f3a:	6c7c      	ldr	r4, [r7, #68]	; 0x44
     f3c:	1c08      	adds	r0, r1, #0
     f3e:	1c11      	adds	r1, r2, #0
     f40:	1c1a      	adds	r2, r3, #0
     f42:	1c23      	adds	r3, r4, #0
     f44:	4c26      	ldr	r4, [pc, #152]	; (fe0 <_sercom_get_async_baud_val+0x1e8>)
     f46:	47a0      	blx	r4
     f48:	1c03      	adds	r3, r0, #0
     f4a:	1c0c      	adds	r4, r1, #0
     f4c:	663b      	str	r3, [r7, #96]	; 0x60
     f4e:	2337      	movs	r3, #55	; 0x37
     f50:	2230      	movs	r2, #48	; 0x30
     f52:	4694      	mov	ip, r2
     f54:	44bc      	add	ip, r7
     f56:	4463      	add	r3, ip
     f58:	781b      	ldrb	r3, [r3, #0]
     f5a:	6e3a      	ldr	r2, [r7, #96]	; 0x60
     f5c:	1ad3      	subs	r3, r2, r3
     f5e:	663b      	str	r3, [r7, #96]	; 0x60
     f60:	6e3b      	ldr	r3, [r7, #96]	; 0x60
     f62:	08db      	lsrs	r3, r3, #3
     f64:	663b      	str	r3, [r7, #96]	; 0x60
     f66:	6e3b      	ldr	r3, [r7, #96]	; 0x60
     f68:	4a1e      	ldr	r2, [pc, #120]	; (fe4 <_sercom_get_async_baud_val+0x1ec>)
     f6a:	4293      	cmp	r3, r2
     f6c:	d800      	bhi.n	f70 <_sercom_get_async_baud_val+0x178>
     f6e:	e014      	b.n	f9a <_sercom_get_async_baud_val+0x1a2>
     f70:	2337      	movs	r3, #55	; 0x37
     f72:	2230      	movs	r2, #48	; 0x30
     f74:	4694      	mov	ip, r2
     f76:	44bc      	add	ip, r7
     f78:	4463      	add	r3, ip
     f7a:	781a      	ldrb	r2, [r3, #0]
     f7c:	2337      	movs	r3, #55	; 0x37
     f7e:	2130      	movs	r1, #48	; 0x30
     f80:	468c      	mov	ip, r1
     f82:	44bc      	add	ip, r7
     f84:	4463      	add	r3, ip
     f86:	3201      	adds	r2, #1
     f88:	701a      	strb	r2, [r3, #0]
     f8a:	2337      	movs	r3, #55	; 0x37
     f8c:	2230      	movs	r2, #48	; 0x30
     f8e:	4694      	mov	ip, r2
     f90:	44bc      	add	ip, r7
     f92:	4463      	add	r3, ip
     f94:	781b      	ldrb	r3, [r3, #0]
     f96:	2b07      	cmp	r3, #7
     f98:	d9a5      	bls.n	ee6 <_sercom_get_async_baud_val+0xee>
     f9a:	2337      	movs	r3, #55	; 0x37
     f9c:	2230      	movs	r2, #48	; 0x30
     f9e:	4694      	mov	ip, r2
     fa0:	44bc      	add	ip, r7
     fa2:	4463      	add	r3, ip
     fa4:	781b      	ldrb	r3, [r3, #0]
     fa6:	2b08      	cmp	r3, #8
     fa8:	d101      	bne.n	fae <_sercom_get_async_baud_val+0x1b6>
     faa:	2340      	movs	r3, #64	; 0x40
     fac:	e012      	b.n	fd4 <_sercom_get_async_baud_val+0x1dc>
     fae:	2337      	movs	r3, #55	; 0x37
     fb0:	2230      	movs	r2, #48	; 0x30
     fb2:	4694      	mov	ip, r2
     fb4:	44bc      	add	ip, r7
     fb6:	4463      	add	r3, ip
     fb8:	781b      	ldrb	r3, [r3, #0]
     fba:	035b      	lsls	r3, r3, #13
     fbc:	1c1a      	adds	r2, r3, #0
     fbe:	6e3b      	ldr	r3, [r7, #96]	; 0x60
     fc0:	4313      	orrs	r3, r2
     fc2:	66bb      	str	r3, [r7, #104]	; 0x68
     fc4:	2300      	movs	r3, #0
     fc6:	66fb      	str	r3, [r7, #108]	; 0x6c
     fc8:	6ebb      	ldr	r3, [r7, #104]	; 0x68
     fca:	6efc      	ldr	r4, [r7, #108]	; 0x6c
     fcc:	b29a      	uxth	r2, r3
     fce:	6b7b      	ldr	r3, [r7, #52]	; 0x34
     fd0:	801a      	strh	r2, [r3, #0]
     fd2:	2300      	movs	r3, #0
     fd4:	1c18      	adds	r0, r3, #0
     fd6:	46bd      	mov	sp, r7
     fd8:	b01d      	add	sp, #116	; 0x74
     fda:	bdf0      	pop	{r4, r5, r6, r7, pc}
     fdc:	000037c9 	.word	0x000037c9
     fe0:	00000c9d 	.word	0x00000c9d
     fe4:	00001fff 	.word	0x00001fff

00000fe8 <sercom_set_gclk_generator>:
     fe8:	b580      	push	{r7, lr}
     fea:	b084      	sub	sp, #16
     fec:	af00      	add	r7, sp, #0
     fee:	1c02      	adds	r2, r0, #0
     ff0:	1dfb      	adds	r3, r7, #7
     ff2:	701a      	strb	r2, [r3, #0]
     ff4:	1dbb      	adds	r3, r7, #6
     ff6:	1c0a      	adds	r2, r1, #0
     ff8:	701a      	strb	r2, [r3, #0]
     ffa:	4b1a      	ldr	r3, [pc, #104]	; (1064 <sercom_set_gclk_generator+0x7c>)
     ffc:	781b      	ldrb	r3, [r3, #0]
     ffe:	2201      	movs	r2, #1
    1000:	4053      	eors	r3, r2
    1002:	b2db      	uxtb	r3, r3
    1004:	2b00      	cmp	r3, #0
    1006:	d103      	bne.n	1010 <sercom_set_gclk_generator+0x28>
    1008:	1dbb      	adds	r3, r7, #6
    100a:	781b      	ldrb	r3, [r3, #0]
    100c:	2b00      	cmp	r3, #0
    100e:	d01b      	beq.n	1048 <sercom_set_gclk_generator+0x60>
    1010:	230c      	movs	r3, #12
    1012:	18fb      	adds	r3, r7, r3
    1014:	1c18      	adds	r0, r3, #0
    1016:	4b14      	ldr	r3, [pc, #80]	; (1068 <sercom_set_gclk_generator+0x80>)
    1018:	4798      	blx	r3
    101a:	230c      	movs	r3, #12
    101c:	18fb      	adds	r3, r7, r3
    101e:	1dfa      	adds	r2, r7, #7
    1020:	7812      	ldrb	r2, [r2, #0]
    1022:	701a      	strb	r2, [r3, #0]
    1024:	230c      	movs	r3, #12
    1026:	18fb      	adds	r3, r7, r3
    1028:	2013      	movs	r0, #19
    102a:	1c19      	adds	r1, r3, #0
    102c:	4b0f      	ldr	r3, [pc, #60]	; (106c <sercom_set_gclk_generator+0x84>)
    102e:	4798      	blx	r3
    1030:	2013      	movs	r0, #19
    1032:	4b0f      	ldr	r3, [pc, #60]	; (1070 <sercom_set_gclk_generator+0x88>)
    1034:	4798      	blx	r3
    1036:	4b0b      	ldr	r3, [pc, #44]	; (1064 <sercom_set_gclk_generator+0x7c>)
    1038:	1dfa      	adds	r2, r7, #7
    103a:	7812      	ldrb	r2, [r2, #0]
    103c:	705a      	strb	r2, [r3, #1]
    103e:	4b09      	ldr	r3, [pc, #36]	; (1064 <sercom_set_gclk_generator+0x7c>)
    1040:	2201      	movs	r2, #1
    1042:	701a      	strb	r2, [r3, #0]
    1044:	2300      	movs	r3, #0
    1046:	e008      	b.n	105a <sercom_set_gclk_generator+0x72>
    1048:	4b06      	ldr	r3, [pc, #24]	; (1064 <sercom_set_gclk_generator+0x7c>)
    104a:	785b      	ldrb	r3, [r3, #1]
    104c:	1dfa      	adds	r2, r7, #7
    104e:	7812      	ldrb	r2, [r2, #0]
    1050:	429a      	cmp	r2, r3
    1052:	d101      	bne.n	1058 <sercom_set_gclk_generator+0x70>
    1054:	2300      	movs	r3, #0
    1056:	e000      	b.n	105a <sercom_set_gclk_generator+0x72>
    1058:	231d      	movs	r3, #29
    105a:	1c18      	adds	r0, r3, #0
    105c:	46bd      	mov	sp, r7
    105e:	b004      	add	sp, #16
    1060:	bd80      	pop	{r7, pc}
    1062:	46c0      	nop			; (mov r8, r8)
    1064:	20000090 	.word	0x20000090
    1068:	00000c89 	.word	0x00000c89
    106c:	00002c71 	.word	0x00002c71
    1070:	00002cb5 	.word	0x00002cb5

00001074 <_sercom_get_default_pad>:
    1074:	b580      	push	{r7, lr}
    1076:	b082      	sub	sp, #8
    1078:	af00      	add	r7, sp, #0
    107a:	6078      	str	r0, [r7, #4]
    107c:	1c0a      	adds	r2, r1, #0
    107e:	1cfb      	adds	r3, r7, #3
    1080:	701a      	strb	r2, [r3, #0]
    1082:	687b      	ldr	r3, [r7, #4]
    1084:	4a4d      	ldr	r2, [pc, #308]	; (11bc <_sercom_get_default_pad+0x148>)
    1086:	4293      	cmp	r3, r2
    1088:	d03f      	beq.n	110a <_sercom_get_default_pad+0x96>
    108a:	4a4c      	ldr	r2, [pc, #304]	; (11bc <_sercom_get_default_pad+0x148>)
    108c:	4293      	cmp	r3, r2
    108e:	d806      	bhi.n	109e <_sercom_get_default_pad+0x2a>
    1090:	4a4b      	ldr	r2, [pc, #300]	; (11c0 <_sercom_get_default_pad+0x14c>)
    1092:	4293      	cmp	r3, r2
    1094:	d00f      	beq.n	10b6 <_sercom_get_default_pad+0x42>
    1096:	4a4b      	ldr	r2, [pc, #300]	; (11c4 <_sercom_get_default_pad+0x150>)
    1098:	4293      	cmp	r3, r2
    109a:	d021      	beq.n	10e0 <_sercom_get_default_pad+0x6c>
    109c:	e089      	b.n	11b2 <_sercom_get_default_pad+0x13e>
    109e:	4a4a      	ldr	r2, [pc, #296]	; (11c8 <_sercom_get_default_pad+0x154>)
    10a0:	4293      	cmp	r3, r2
    10a2:	d100      	bne.n	10a6 <_sercom_get_default_pad+0x32>
    10a4:	e05b      	b.n	115e <_sercom_get_default_pad+0xea>
    10a6:	4a49      	ldr	r2, [pc, #292]	; (11cc <_sercom_get_default_pad+0x158>)
    10a8:	4293      	cmp	r3, r2
    10aa:	d100      	bne.n	10ae <_sercom_get_default_pad+0x3a>
    10ac:	e06c      	b.n	1188 <_sercom_get_default_pad+0x114>
    10ae:	4a48      	ldr	r2, [pc, #288]	; (11d0 <_sercom_get_default_pad+0x15c>)
    10b0:	4293      	cmp	r3, r2
    10b2:	d03f      	beq.n	1134 <_sercom_get_default_pad+0xc0>
    10b4:	e07d      	b.n	11b2 <_sercom_get_default_pad+0x13e>
    10b6:	1cfb      	adds	r3, r7, #3
    10b8:	781b      	ldrb	r3, [r3, #0]
    10ba:	2b01      	cmp	r3, #1
    10bc:	d00a      	beq.n	10d4 <_sercom_get_default_pad+0x60>
    10be:	dc02      	bgt.n	10c6 <_sercom_get_default_pad+0x52>
    10c0:	2b00      	cmp	r3, #0
    10c2:	d005      	beq.n	10d0 <_sercom_get_default_pad+0x5c>
    10c4:	e075      	b.n	11b2 <_sercom_get_default_pad+0x13e>
    10c6:	2b02      	cmp	r3, #2
    10c8:	d006      	beq.n	10d8 <_sercom_get_default_pad+0x64>
    10ca:	2b03      	cmp	r3, #3
    10cc:	d006      	beq.n	10dc <_sercom_get_default_pad+0x68>
    10ce:	e070      	b.n	11b2 <_sercom_get_default_pad+0x13e>
    10d0:	4b40      	ldr	r3, [pc, #256]	; (11d4 <_sercom_get_default_pad+0x160>)
    10d2:	e06f      	b.n	11b4 <_sercom_get_default_pad+0x140>
    10d4:	4b40      	ldr	r3, [pc, #256]	; (11d8 <_sercom_get_default_pad+0x164>)
    10d6:	e06d      	b.n	11b4 <_sercom_get_default_pad+0x140>
    10d8:	4b40      	ldr	r3, [pc, #256]	; (11dc <_sercom_get_default_pad+0x168>)
    10da:	e06b      	b.n	11b4 <_sercom_get_default_pad+0x140>
    10dc:	4b40      	ldr	r3, [pc, #256]	; (11e0 <_sercom_get_default_pad+0x16c>)
    10de:	e069      	b.n	11b4 <_sercom_get_default_pad+0x140>
    10e0:	1cfb      	adds	r3, r7, #3
    10e2:	781b      	ldrb	r3, [r3, #0]
    10e4:	2b01      	cmp	r3, #1
    10e6:	d00a      	beq.n	10fe <_sercom_get_default_pad+0x8a>
    10e8:	dc02      	bgt.n	10f0 <_sercom_get_default_pad+0x7c>
    10ea:	2b00      	cmp	r3, #0
    10ec:	d005      	beq.n	10fa <_sercom_get_default_pad+0x86>
    10ee:	e060      	b.n	11b2 <_sercom_get_default_pad+0x13e>
    10f0:	2b02      	cmp	r3, #2
    10f2:	d006      	beq.n	1102 <_sercom_get_default_pad+0x8e>
    10f4:	2b03      	cmp	r3, #3
    10f6:	d006      	beq.n	1106 <_sercom_get_default_pad+0x92>
    10f8:	e05b      	b.n	11b2 <_sercom_get_default_pad+0x13e>
    10fa:	2303      	movs	r3, #3
    10fc:	e05a      	b.n	11b4 <_sercom_get_default_pad+0x140>
    10fe:	4b39      	ldr	r3, [pc, #228]	; (11e4 <_sercom_get_default_pad+0x170>)
    1100:	e058      	b.n	11b4 <_sercom_get_default_pad+0x140>
    1102:	4b39      	ldr	r3, [pc, #228]	; (11e8 <_sercom_get_default_pad+0x174>)
    1104:	e056      	b.n	11b4 <_sercom_get_default_pad+0x140>
    1106:	4b39      	ldr	r3, [pc, #228]	; (11ec <_sercom_get_default_pad+0x178>)
    1108:	e054      	b.n	11b4 <_sercom_get_default_pad+0x140>
    110a:	1cfb      	adds	r3, r7, #3
    110c:	781b      	ldrb	r3, [r3, #0]
    110e:	2b01      	cmp	r3, #1
    1110:	d00a      	beq.n	1128 <_sercom_get_default_pad+0xb4>
    1112:	dc02      	bgt.n	111a <_sercom_get_default_pad+0xa6>
    1114:	2b00      	cmp	r3, #0
    1116:	d005      	beq.n	1124 <_sercom_get_default_pad+0xb0>
    1118:	e04b      	b.n	11b2 <_sercom_get_default_pad+0x13e>
    111a:	2b02      	cmp	r3, #2
    111c:	d006      	beq.n	112c <_sercom_get_default_pad+0xb8>
    111e:	2b03      	cmp	r3, #3
    1120:	d006      	beq.n	1130 <_sercom_get_default_pad+0xbc>
    1122:	e046      	b.n	11b2 <_sercom_get_default_pad+0x13e>
    1124:	4b32      	ldr	r3, [pc, #200]	; (11f0 <_sercom_get_default_pad+0x17c>)
    1126:	e045      	b.n	11b4 <_sercom_get_default_pad+0x140>
    1128:	4b32      	ldr	r3, [pc, #200]	; (11f4 <_sercom_get_default_pad+0x180>)
    112a:	e043      	b.n	11b4 <_sercom_get_default_pad+0x140>
    112c:	4b32      	ldr	r3, [pc, #200]	; (11f8 <_sercom_get_default_pad+0x184>)
    112e:	e041      	b.n	11b4 <_sercom_get_default_pad+0x140>
    1130:	4b32      	ldr	r3, [pc, #200]	; (11fc <_sercom_get_default_pad+0x188>)
    1132:	e03f      	b.n	11b4 <_sercom_get_default_pad+0x140>
    1134:	1cfb      	adds	r3, r7, #3
    1136:	781b      	ldrb	r3, [r3, #0]
    1138:	2b01      	cmp	r3, #1
    113a:	d00a      	beq.n	1152 <_sercom_get_default_pad+0xde>
    113c:	dc02      	bgt.n	1144 <_sercom_get_default_pad+0xd0>
    113e:	2b00      	cmp	r3, #0
    1140:	d005      	beq.n	114e <_sercom_get_default_pad+0xda>
    1142:	e036      	b.n	11b2 <_sercom_get_default_pad+0x13e>
    1144:	2b02      	cmp	r3, #2
    1146:	d006      	beq.n	1156 <_sercom_get_default_pad+0xe2>
    1148:	2b03      	cmp	r3, #3
    114a:	d006      	beq.n	115a <_sercom_get_default_pad+0xe6>
    114c:	e031      	b.n	11b2 <_sercom_get_default_pad+0x13e>
    114e:	4b2c      	ldr	r3, [pc, #176]	; (1200 <_sercom_get_default_pad+0x18c>)
    1150:	e030      	b.n	11b4 <_sercom_get_default_pad+0x140>
    1152:	4b2c      	ldr	r3, [pc, #176]	; (1204 <_sercom_get_default_pad+0x190>)
    1154:	e02e      	b.n	11b4 <_sercom_get_default_pad+0x140>
    1156:	4b2c      	ldr	r3, [pc, #176]	; (1208 <_sercom_get_default_pad+0x194>)
    1158:	e02c      	b.n	11b4 <_sercom_get_default_pad+0x140>
    115a:	4b2c      	ldr	r3, [pc, #176]	; (120c <_sercom_get_default_pad+0x198>)
    115c:	e02a      	b.n	11b4 <_sercom_get_default_pad+0x140>
    115e:	1cfb      	adds	r3, r7, #3
    1160:	781b      	ldrb	r3, [r3, #0]
    1162:	2b01      	cmp	r3, #1
    1164:	d00a      	beq.n	117c <_sercom_get_default_pad+0x108>
    1166:	dc02      	bgt.n	116e <_sercom_get_default_pad+0xfa>
    1168:	2b00      	cmp	r3, #0
    116a:	d005      	beq.n	1178 <_sercom_get_default_pad+0x104>
    116c:	e021      	b.n	11b2 <_sercom_get_default_pad+0x13e>
    116e:	2b02      	cmp	r3, #2
    1170:	d006      	beq.n	1180 <_sercom_get_default_pad+0x10c>
    1172:	2b03      	cmp	r3, #3
    1174:	d006      	beq.n	1184 <_sercom_get_default_pad+0x110>
    1176:	e01c      	b.n	11b2 <_sercom_get_default_pad+0x13e>
    1178:	4b25      	ldr	r3, [pc, #148]	; (1210 <_sercom_get_default_pad+0x19c>)
    117a:	e01b      	b.n	11b4 <_sercom_get_default_pad+0x140>
    117c:	4b25      	ldr	r3, [pc, #148]	; (1214 <_sercom_get_default_pad+0x1a0>)
    117e:	e019      	b.n	11b4 <_sercom_get_default_pad+0x140>
    1180:	4b25      	ldr	r3, [pc, #148]	; (1218 <_sercom_get_default_pad+0x1a4>)
    1182:	e017      	b.n	11b4 <_sercom_get_default_pad+0x140>
    1184:	4b25      	ldr	r3, [pc, #148]	; (121c <_sercom_get_default_pad+0x1a8>)
    1186:	e015      	b.n	11b4 <_sercom_get_default_pad+0x140>
    1188:	1cfb      	adds	r3, r7, #3
    118a:	781b      	ldrb	r3, [r3, #0]
    118c:	2b01      	cmp	r3, #1
    118e:	d00a      	beq.n	11a6 <_sercom_get_default_pad+0x132>
    1190:	dc02      	bgt.n	1198 <_sercom_get_default_pad+0x124>
    1192:	2b00      	cmp	r3, #0
    1194:	d005      	beq.n	11a2 <_sercom_get_default_pad+0x12e>
    1196:	e00c      	b.n	11b2 <_sercom_get_default_pad+0x13e>
    1198:	2b02      	cmp	r3, #2
    119a:	d006      	beq.n	11aa <_sercom_get_default_pad+0x136>
    119c:	2b03      	cmp	r3, #3
    119e:	d006      	beq.n	11ae <_sercom_get_default_pad+0x13a>
    11a0:	e007      	b.n	11b2 <_sercom_get_default_pad+0x13e>
    11a2:	4b1f      	ldr	r3, [pc, #124]	; (1220 <_sercom_get_default_pad+0x1ac>)
    11a4:	e006      	b.n	11b4 <_sercom_get_default_pad+0x140>
    11a6:	4b1f      	ldr	r3, [pc, #124]	; (1224 <_sercom_get_default_pad+0x1b0>)
    11a8:	e004      	b.n	11b4 <_sercom_get_default_pad+0x140>
    11aa:	4b1f      	ldr	r3, [pc, #124]	; (1228 <_sercom_get_default_pad+0x1b4>)
    11ac:	e002      	b.n	11b4 <_sercom_get_default_pad+0x140>
    11ae:	4b1f      	ldr	r3, [pc, #124]	; (122c <_sercom_get_default_pad+0x1b8>)
    11b0:	e000      	b.n	11b4 <_sercom_get_default_pad+0x140>
    11b2:	2300      	movs	r3, #0
    11b4:	1c18      	adds	r0, r3, #0
    11b6:	46bd      	mov	sp, r7
    11b8:	b002      	add	sp, #8
    11ba:	bd80      	pop	{r7, pc}
    11bc:	42001000 	.word	0x42001000
    11c0:	42000800 	.word	0x42000800
    11c4:	42000c00 	.word	0x42000c00
    11c8:	42001800 	.word	0x42001800
    11cc:	42001c00 	.word	0x42001c00
    11d0:	42001400 	.word	0x42001400
    11d4:	00040003 	.word	0x00040003
    11d8:	00050003 	.word	0x00050003
    11dc:	00060003 	.word	0x00060003
    11e0:	00070003 	.word	0x00070003
    11e4:	00010003 	.word	0x00010003
    11e8:	001e0003 	.word	0x001e0003
    11ec:	001f0003 	.word	0x001f0003
    11f0:	00080003 	.word	0x00080003
    11f4:	00090003 	.word	0x00090003
    11f8:	000a0003 	.word	0x000a0003
    11fc:	000b0003 	.word	0x000b0003
    1200:	00100003 	.word	0x00100003
    1204:	00110003 	.word	0x00110003
    1208:	00120003 	.word	0x00120003
    120c:	00130003 	.word	0x00130003
    1210:	000c0003 	.word	0x000c0003
    1214:	000d0003 	.word	0x000d0003
    1218:	000e0003 	.word	0x000e0003
    121c:	000f0003 	.word	0x000f0003
    1220:	00160003 	.word	0x00160003
    1224:	00170003 	.word	0x00170003
    1228:	00180003 	.word	0x00180003
    122c:	00190003 	.word	0x00190003

00001230 <_sercom_get_sercom_inst_index>:
    1230:	b590      	push	{r4, r7, lr}
    1232:	b08b      	sub	sp, #44	; 0x2c
    1234:	af00      	add	r7, sp, #0
    1236:	6078      	str	r0, [r7, #4]
    1238:	230c      	movs	r3, #12
    123a:	18fb      	adds	r3, r7, r3
    123c:	4a0e      	ldr	r2, [pc, #56]	; (1278 <_sercom_get_sercom_inst_index+0x48>)
    123e:	ca13      	ldmia	r2!, {r0, r1, r4}
    1240:	c313      	stmia	r3!, {r0, r1, r4}
    1242:	ca13      	ldmia	r2!, {r0, r1, r4}
    1244:	c313      	stmia	r3!, {r0, r1, r4}
    1246:	2300      	movs	r3, #0
    1248:	627b      	str	r3, [r7, #36]	; 0x24
    124a:	e00d      	b.n	1268 <_sercom_get_sercom_inst_index+0x38>
    124c:	687b      	ldr	r3, [r7, #4]
    124e:	220c      	movs	r2, #12
    1250:	18ba      	adds	r2, r7, r2
    1252:	6a79      	ldr	r1, [r7, #36]	; 0x24
    1254:	0089      	lsls	r1, r1, #2
    1256:	588a      	ldr	r2, [r1, r2]
    1258:	4293      	cmp	r3, r2
    125a:	d102      	bne.n	1262 <_sercom_get_sercom_inst_index+0x32>
    125c:	6a7b      	ldr	r3, [r7, #36]	; 0x24
    125e:	b2db      	uxtb	r3, r3
    1260:	e006      	b.n	1270 <_sercom_get_sercom_inst_index+0x40>
    1262:	6a7b      	ldr	r3, [r7, #36]	; 0x24
    1264:	3301      	adds	r3, #1
    1266:	627b      	str	r3, [r7, #36]	; 0x24
    1268:	6a7b      	ldr	r3, [r7, #36]	; 0x24
    126a:	2b05      	cmp	r3, #5
    126c:	d9ee      	bls.n	124c <_sercom_get_sercom_inst_index+0x1c>
    126e:	2300      	movs	r3, #0
    1270:	1c18      	adds	r0, r3, #0
    1272:	46bd      	mov	sp, r7
    1274:	b00b      	add	sp, #44	; 0x2c
    1276:	bd90      	pop	{r4, r7, pc}
    1278:	0000567c 	.word	0x0000567c

0000127c <_sercom_default_handler>:
    127c:	b580      	push	{r7, lr}
    127e:	b082      	sub	sp, #8
    1280:	af00      	add	r7, sp, #0
    1282:	1c02      	adds	r2, r0, #0
    1284:	1dfb      	adds	r3, r7, #7
    1286:	701a      	strb	r2, [r3, #0]
    1288:	46bd      	mov	sp, r7
    128a:	b002      	add	sp, #8
    128c:	bd80      	pop	{r7, pc}
    128e:	46c0      	nop			; (mov r8, r8)

00001290 <_sercom_set_handler>:
    1290:	b580      	push	{r7, lr}
    1292:	b084      	sub	sp, #16
    1294:	af00      	add	r7, sp, #0
    1296:	1c02      	adds	r2, r0, #0
    1298:	6039      	str	r1, [r7, #0]
    129a:	1dfb      	adds	r3, r7, #7
    129c:	701a      	strb	r2, [r3, #0]
    129e:	4b13      	ldr	r3, [pc, #76]	; (12ec <_sercom_set_handler+0x5c>)
    12a0:	781b      	ldrb	r3, [r3, #0]
    12a2:	2201      	movs	r2, #1
    12a4:	4053      	eors	r3, r2
    12a6:	b2db      	uxtb	r3, r3
    12a8:	2b00      	cmp	r3, #0
    12aa:	d015      	beq.n	12d8 <_sercom_set_handler+0x48>
    12ac:	2300      	movs	r3, #0
    12ae:	60fb      	str	r3, [r7, #12]
    12b0:	e00c      	b.n	12cc <_sercom_set_handler+0x3c>
    12b2:	4b0f      	ldr	r3, [pc, #60]	; (12f0 <_sercom_set_handler+0x60>)
    12b4:	68fa      	ldr	r2, [r7, #12]
    12b6:	0092      	lsls	r2, r2, #2
    12b8:	490e      	ldr	r1, [pc, #56]	; (12f4 <_sercom_set_handler+0x64>)
    12ba:	50d1      	str	r1, [r2, r3]
    12bc:	4b0e      	ldr	r3, [pc, #56]	; (12f8 <_sercom_set_handler+0x68>)
    12be:	68fa      	ldr	r2, [r7, #12]
    12c0:	0092      	lsls	r2, r2, #2
    12c2:	2100      	movs	r1, #0
    12c4:	50d1      	str	r1, [r2, r3]
    12c6:	68fb      	ldr	r3, [r7, #12]
    12c8:	3301      	adds	r3, #1
    12ca:	60fb      	str	r3, [r7, #12]
    12cc:	68fb      	ldr	r3, [r7, #12]
    12ce:	2b05      	cmp	r3, #5
    12d0:	d9ef      	bls.n	12b2 <_sercom_set_handler+0x22>
    12d2:	4b06      	ldr	r3, [pc, #24]	; (12ec <_sercom_set_handler+0x5c>)
    12d4:	2201      	movs	r2, #1
    12d6:	701a      	strb	r2, [r3, #0]
    12d8:	1dfb      	adds	r3, r7, #7
    12da:	781a      	ldrb	r2, [r3, #0]
    12dc:	4b04      	ldr	r3, [pc, #16]	; (12f0 <_sercom_set_handler+0x60>)
    12de:	0092      	lsls	r2, r2, #2
    12e0:	6839      	ldr	r1, [r7, #0]
    12e2:	50d1      	str	r1, [r2, r3]
    12e4:	46bd      	mov	sp, r7
    12e6:	b004      	add	sp, #16
    12e8:	bd80      	pop	{r7, pc}
    12ea:	46c0      	nop			; (mov r8, r8)
    12ec:	20000092 	.word	0x20000092
    12f0:	20000094 	.word	0x20000094
    12f4:	0000127d 	.word	0x0000127d
    12f8:	200001c8 	.word	0x200001c8

000012fc <_sercom_get_interrupt_vector>:
    12fc:	b590      	push	{r4, r7, lr}
    12fe:	b085      	sub	sp, #20
    1300:	af00      	add	r7, sp, #0
    1302:	6078      	str	r0, [r7, #4]
    1304:	2308      	movs	r3, #8
    1306:	18fa      	adds	r2, r7, r3
    1308:	4b0e      	ldr	r3, [pc, #56]	; (1344 <_sercom_get_interrupt_vector+0x48>)
    130a:	1c11      	adds	r1, r2, #0
    130c:	1c1a      	adds	r2, r3, #0
    130e:	2306      	movs	r3, #6
    1310:	1c08      	adds	r0, r1, #0
    1312:	1c11      	adds	r1, r2, #0
    1314:	1c1a      	adds	r2, r3, #0
    1316:	4b0c      	ldr	r3, [pc, #48]	; (1348 <_sercom_get_interrupt_vector+0x4c>)
    1318:	4798      	blx	r3
    131a:	230f      	movs	r3, #15
    131c:	18fc      	adds	r4, r7, r3
    131e:	687b      	ldr	r3, [r7, #4]
    1320:	1c18      	adds	r0, r3, #0
    1322:	4b0a      	ldr	r3, [pc, #40]	; (134c <_sercom_get_interrupt_vector+0x50>)
    1324:	4798      	blx	r3
    1326:	1c03      	adds	r3, r0, #0
    1328:	7023      	strb	r3, [r4, #0]
    132a:	230f      	movs	r3, #15
    132c:	18fb      	adds	r3, r7, r3
    132e:	781b      	ldrb	r3, [r3, #0]
    1330:	2208      	movs	r2, #8
    1332:	18ba      	adds	r2, r7, r2
    1334:	5cd3      	ldrb	r3, [r2, r3]
    1336:	b2db      	uxtb	r3, r3
    1338:	b25b      	sxtb	r3, r3
    133a:	1c18      	adds	r0, r3, #0
    133c:	46bd      	mov	sp, r7
    133e:	b005      	add	sp, #20
    1340:	bd90      	pop	{r4, r7, pc}
    1342:	46c0      	nop			; (mov r8, r8)
    1344:	00005694 	.word	0x00005694
    1348:	00004725 	.word	0x00004725
    134c:	00001231 	.word	0x00001231

00001350 <SERCOM0_Handler>:
    1350:	b580      	push	{r7, lr}
    1352:	af00      	add	r7, sp, #0
    1354:	4b02      	ldr	r3, [pc, #8]	; (1360 <SERCOM0_Handler+0x10>)
    1356:	681b      	ldr	r3, [r3, #0]
    1358:	2000      	movs	r0, #0
    135a:	4798      	blx	r3
    135c:	46bd      	mov	sp, r7
    135e:	bd80      	pop	{r7, pc}
    1360:	20000094 	.word	0x20000094

00001364 <SERCOM1_Handler>:
    1364:	b580      	push	{r7, lr}
    1366:	af00      	add	r7, sp, #0
    1368:	4b02      	ldr	r3, [pc, #8]	; (1374 <SERCOM1_Handler+0x10>)
    136a:	685b      	ldr	r3, [r3, #4]
    136c:	2001      	movs	r0, #1
    136e:	4798      	blx	r3
    1370:	46bd      	mov	sp, r7
    1372:	bd80      	pop	{r7, pc}
    1374:	20000094 	.word	0x20000094

00001378 <SERCOM2_Handler>:
    1378:	b580      	push	{r7, lr}
    137a:	af00      	add	r7, sp, #0
    137c:	4b02      	ldr	r3, [pc, #8]	; (1388 <SERCOM2_Handler+0x10>)
    137e:	689b      	ldr	r3, [r3, #8]
    1380:	2002      	movs	r0, #2
    1382:	4798      	blx	r3
    1384:	46bd      	mov	sp, r7
    1386:	bd80      	pop	{r7, pc}
    1388:	20000094 	.word	0x20000094

0000138c <SERCOM3_Handler>:
    138c:	b580      	push	{r7, lr}
    138e:	af00      	add	r7, sp, #0
    1390:	4b02      	ldr	r3, [pc, #8]	; (139c <SERCOM3_Handler+0x10>)
    1392:	68db      	ldr	r3, [r3, #12]
    1394:	2003      	movs	r0, #3
    1396:	4798      	blx	r3
    1398:	46bd      	mov	sp, r7
    139a:	bd80      	pop	{r7, pc}
    139c:	20000094 	.word	0x20000094

000013a0 <SERCOM4_Handler>:
    13a0:	b580      	push	{r7, lr}
    13a2:	af00      	add	r7, sp, #0
    13a4:	4b02      	ldr	r3, [pc, #8]	; (13b0 <SERCOM4_Handler+0x10>)
    13a6:	691b      	ldr	r3, [r3, #16]
    13a8:	2004      	movs	r0, #4
    13aa:	4798      	blx	r3
    13ac:	46bd      	mov	sp, r7
    13ae:	bd80      	pop	{r7, pc}
    13b0:	20000094 	.word	0x20000094

000013b4 <SERCOM5_Handler>:
    13b4:	b580      	push	{r7, lr}
    13b6:	af00      	add	r7, sp, #0
    13b8:	4b02      	ldr	r3, [pc, #8]	; (13c4 <SERCOM5_Handler+0x10>)
    13ba:	695b      	ldr	r3, [r3, #20]
    13bc:	2005      	movs	r0, #5
    13be:	4798      	blx	r3
    13c0:	46bd      	mov	sp, r7
    13c2:	bd80      	pop	{r7, pc}
    13c4:	20000094 	.word	0x20000094

000013c8 <system_gclk_chan_get_config_defaults>:
    13c8:	b580      	push	{r7, lr}
    13ca:	b082      	sub	sp, #8
    13cc:	af00      	add	r7, sp, #0
    13ce:	6078      	str	r0, [r7, #4]
    13d0:	687b      	ldr	r3, [r7, #4]
    13d2:	2200      	movs	r2, #0
    13d4:	701a      	strb	r2, [r3, #0]
    13d6:	46bd      	mov	sp, r7
    13d8:	b002      	add	sp, #8
    13da:	bd80      	pop	{r7, pc}

000013dc <system_apb_clock_set_mask>:
    13dc:	b580      	push	{r7, lr}
    13de:	b082      	sub	sp, #8
    13e0:	af00      	add	r7, sp, #0
    13e2:	1c02      	adds	r2, r0, #0
    13e4:	6039      	str	r1, [r7, #0]
    13e6:	1dfb      	adds	r3, r7, #7
    13e8:	701a      	strb	r2, [r3, #0]
    13ea:	1dfb      	adds	r3, r7, #7
    13ec:	781b      	ldrb	r3, [r3, #0]
    13ee:	2b01      	cmp	r3, #1
    13f0:	d00a      	beq.n	1408 <system_apb_clock_set_mask+0x2c>
    13f2:	2b02      	cmp	r3, #2
    13f4:	d00f      	beq.n	1416 <system_apb_clock_set_mask+0x3a>
    13f6:	2b00      	cmp	r3, #0
    13f8:	d114      	bne.n	1424 <system_apb_clock_set_mask+0x48>
    13fa:	4b0e      	ldr	r3, [pc, #56]	; (1434 <system_apb_clock_set_mask+0x58>)
    13fc:	4a0d      	ldr	r2, [pc, #52]	; (1434 <system_apb_clock_set_mask+0x58>)
    13fe:	6991      	ldr	r1, [r2, #24]
    1400:	683a      	ldr	r2, [r7, #0]
    1402:	430a      	orrs	r2, r1
    1404:	619a      	str	r2, [r3, #24]
    1406:	e00f      	b.n	1428 <system_apb_clock_set_mask+0x4c>
    1408:	4b0a      	ldr	r3, [pc, #40]	; (1434 <system_apb_clock_set_mask+0x58>)
    140a:	4a0a      	ldr	r2, [pc, #40]	; (1434 <system_apb_clock_set_mask+0x58>)
    140c:	69d1      	ldr	r1, [r2, #28]
    140e:	683a      	ldr	r2, [r7, #0]
    1410:	430a      	orrs	r2, r1
    1412:	61da      	str	r2, [r3, #28]
    1414:	e008      	b.n	1428 <system_apb_clock_set_mask+0x4c>
    1416:	4b07      	ldr	r3, [pc, #28]	; (1434 <system_apb_clock_set_mask+0x58>)
    1418:	4a06      	ldr	r2, [pc, #24]	; (1434 <system_apb_clock_set_mask+0x58>)
    141a:	6a11      	ldr	r1, [r2, #32]
    141c:	683a      	ldr	r2, [r7, #0]
    141e:	430a      	orrs	r2, r1
    1420:	621a      	str	r2, [r3, #32]
    1422:	e001      	b.n	1428 <system_apb_clock_set_mask+0x4c>
    1424:	2317      	movs	r3, #23
    1426:	e000      	b.n	142a <system_apb_clock_set_mask+0x4e>
    1428:	2300      	movs	r3, #0
    142a:	1c18      	adds	r0, r3, #0
    142c:	46bd      	mov	sp, r7
    142e:	b002      	add	sp, #8
    1430:	bd80      	pop	{r7, pc}
    1432:	46c0      	nop			; (mov r8, r8)
    1434:	40000400 	.word	0x40000400

00001438 <system_pinmux_get_config_defaults>:
    1438:	b580      	push	{r7, lr}
    143a:	b082      	sub	sp, #8
    143c:	af00      	add	r7, sp, #0
    143e:	6078      	str	r0, [r7, #4]
    1440:	687b      	ldr	r3, [r7, #4]
    1442:	2280      	movs	r2, #128	; 0x80
    1444:	701a      	strb	r2, [r3, #0]
    1446:	687b      	ldr	r3, [r7, #4]
    1448:	2200      	movs	r2, #0
    144a:	705a      	strb	r2, [r3, #1]
    144c:	687b      	ldr	r3, [r7, #4]
    144e:	2201      	movs	r2, #1
    1450:	709a      	strb	r2, [r3, #2]
    1452:	687b      	ldr	r3, [r7, #4]
    1454:	2200      	movs	r2, #0
    1456:	70da      	strb	r2, [r3, #3]
    1458:	46bd      	mov	sp, r7
    145a:	b002      	add	sp, #8
    145c:	bd80      	pop	{r7, pc}
    145e:	46c0      	nop			; (mov r8, r8)

00001460 <system_is_debugger_present>:
    1460:	b580      	push	{r7, lr}
    1462:	af00      	add	r7, sp, #0
    1464:	4b05      	ldr	r3, [pc, #20]	; (147c <system_is_debugger_present+0x1c>)
    1466:	789b      	ldrb	r3, [r3, #2]
    1468:	b2db      	uxtb	r3, r3
    146a:	1c1a      	adds	r2, r3, #0
    146c:	2302      	movs	r3, #2
    146e:	4013      	ands	r3, r2
    1470:	1e5a      	subs	r2, r3, #1
    1472:	4193      	sbcs	r3, r2
    1474:	b2db      	uxtb	r3, r3
    1476:	1c18      	adds	r0, r3, #0
    1478:	46bd      	mov	sp, r7
    147a:	bd80      	pop	{r7, pc}
    147c:	41002000 	.word	0x41002000

00001480 <usart_is_syncing>:
    1480:	b580      	push	{r7, lr}
    1482:	b084      	sub	sp, #16
    1484:	af00      	add	r7, sp, #0
    1486:	6078      	str	r0, [r7, #4]
    1488:	687b      	ldr	r3, [r7, #4]
    148a:	681b      	ldr	r3, [r3, #0]
    148c:	60fb      	str	r3, [r7, #12]
    148e:	68fb      	ldr	r3, [r7, #12]
    1490:	69db      	ldr	r3, [r3, #28]
    1492:	1e5a      	subs	r2, r3, #1
    1494:	4193      	sbcs	r3, r2
    1496:	b2db      	uxtb	r3, r3
    1498:	1c18      	adds	r0, r3, #0
    149a:	46bd      	mov	sp, r7
    149c:	b004      	add	sp, #16
    149e:	bd80      	pop	{r7, pc}

000014a0 <_usart_wait_for_sync>:
    14a0:	b580      	push	{r7, lr}
    14a2:	b082      	sub	sp, #8
    14a4:	af00      	add	r7, sp, #0
    14a6:	6078      	str	r0, [r7, #4]
    14a8:	46c0      	nop			; (mov r8, r8)
    14aa:	687b      	ldr	r3, [r7, #4]
    14ac:	1c18      	adds	r0, r3, #0
    14ae:	4b03      	ldr	r3, [pc, #12]	; (14bc <_usart_wait_for_sync+0x1c>)
    14b0:	4798      	blx	r3
    14b2:	1e03      	subs	r3, r0, #0
    14b4:	d1f9      	bne.n	14aa <_usart_wait_for_sync+0xa>
    14b6:	46bd      	mov	sp, r7
    14b8:	b002      	add	sp, #8
    14ba:	bd80      	pop	{r7, pc}
    14bc:	00001481 	.word	0x00001481

000014c0 <_usart_set_config>:
    14c0:	b5f0      	push	{r4, r5, r6, r7, lr}
    14c2:	b08d      	sub	sp, #52	; 0x34
    14c4:	af02      	add	r7, sp, #8
    14c6:	6078      	str	r0, [r7, #4]
    14c8:	6039      	str	r1, [r7, #0]
    14ca:	687b      	ldr	r3, [r7, #4]
    14cc:	681b      	ldr	r3, [r3, #0]
    14ce:	61bb      	str	r3, [r7, #24]
    14d0:	687b      	ldr	r3, [r7, #4]
    14d2:	681b      	ldr	r3, [r3, #0]
    14d4:	1c18      	adds	r0, r3, #0
    14d6:	4bae      	ldr	r3, [pc, #696]	; (1790 <_usart_set_config+0x2d0>)
    14d8:	4798      	blx	r3
    14da:	1c03      	adds	r3, r0, #0
    14dc:	617b      	str	r3, [r7, #20]
    14de:	697b      	ldr	r3, [r7, #20]
    14e0:	3314      	adds	r3, #20
    14e2:	613b      	str	r3, [r7, #16]
    14e4:	2300      	movs	r3, #0
    14e6:	627b      	str	r3, [r7, #36]	; 0x24
    14e8:	2300      	movs	r3, #0
    14ea:	623b      	str	r3, [r7, #32]
    14ec:	230e      	movs	r3, #14
    14ee:	18fb      	adds	r3, r7, r3
    14f0:	2200      	movs	r2, #0
    14f2:	801a      	strh	r2, [r3, #0]
    14f4:	231f      	movs	r3, #31
    14f6:	18fb      	adds	r3, r7, r3
    14f8:	2200      	movs	r2, #0
    14fa:	701a      	strb	r2, [r3, #0]
    14fc:	231e      	movs	r3, #30
    14fe:	18fb      	adds	r3, r7, r3
    1500:	2210      	movs	r2, #16
    1502:	701a      	strb	r2, [r3, #0]
    1504:	683b      	ldr	r3, [r7, #0]
    1506:	8a1b      	ldrh	r3, [r3, #16]
    1508:	2280      	movs	r2, #128	; 0x80
    150a:	01d2      	lsls	r2, r2, #7
    150c:	4293      	cmp	r3, r2
    150e:	d01c      	beq.n	154a <_usart_set_config+0x8a>
    1510:	2280      	movs	r2, #128	; 0x80
    1512:	01d2      	lsls	r2, r2, #7
    1514:	4293      	cmp	r3, r2
    1516:	dc06      	bgt.n	1526 <_usart_set_config+0x66>
    1518:	2b00      	cmp	r3, #0
    151a:	d00d      	beq.n	1538 <_usart_set_config+0x78>
    151c:	2280      	movs	r2, #128	; 0x80
    151e:	0192      	lsls	r2, r2, #6
    1520:	4293      	cmp	r3, r2
    1522:	d024      	beq.n	156e <_usart_set_config+0xae>
    1524:	e035      	b.n	1592 <_usart_set_config+0xd2>
    1526:	22c0      	movs	r2, #192	; 0xc0
    1528:	01d2      	lsls	r2, r2, #7
    152a:	4293      	cmp	r3, r2
    152c:	d028      	beq.n	1580 <_usart_set_config+0xc0>
    152e:	2280      	movs	r2, #128	; 0x80
    1530:	0212      	lsls	r2, r2, #8
    1532:	4293      	cmp	r3, r2
    1534:	d012      	beq.n	155c <_usart_set_config+0x9c>
    1536:	e02c      	b.n	1592 <_usart_set_config+0xd2>
    1538:	231f      	movs	r3, #31
    153a:	18fb      	adds	r3, r7, r3
    153c:	2200      	movs	r2, #0
    153e:	701a      	strb	r2, [r3, #0]
    1540:	231e      	movs	r3, #30
    1542:	18fb      	adds	r3, r7, r3
    1544:	2210      	movs	r2, #16
    1546:	701a      	strb	r2, [r3, #0]
    1548:	e023      	b.n	1592 <_usart_set_config+0xd2>
    154a:	231f      	movs	r3, #31
    154c:	18fb      	adds	r3, r7, r3
    154e:	2200      	movs	r2, #0
    1550:	701a      	strb	r2, [r3, #0]
    1552:	231e      	movs	r3, #30
    1554:	18fb      	adds	r3, r7, r3
    1556:	2208      	movs	r2, #8
    1558:	701a      	strb	r2, [r3, #0]
    155a:	e01a      	b.n	1592 <_usart_set_config+0xd2>
    155c:	231f      	movs	r3, #31
    155e:	18fb      	adds	r3, r7, r3
    1560:	2200      	movs	r2, #0
    1562:	701a      	strb	r2, [r3, #0]
    1564:	231e      	movs	r3, #30
    1566:	18fb      	adds	r3, r7, r3
    1568:	2203      	movs	r2, #3
    156a:	701a      	strb	r2, [r3, #0]
    156c:	e011      	b.n	1592 <_usart_set_config+0xd2>
    156e:	231f      	movs	r3, #31
    1570:	18fb      	adds	r3, r7, r3
    1572:	2201      	movs	r2, #1
    1574:	701a      	strb	r2, [r3, #0]
    1576:	231e      	movs	r3, #30
    1578:	18fb      	adds	r3, r7, r3
    157a:	2210      	movs	r2, #16
    157c:	701a      	strb	r2, [r3, #0]
    157e:	e008      	b.n	1592 <_usart_set_config+0xd2>
    1580:	231f      	movs	r3, #31
    1582:	18fb      	adds	r3, r7, r3
    1584:	2201      	movs	r2, #1
    1586:	701a      	strb	r2, [r3, #0]
    1588:	231e      	movs	r3, #30
    158a:	18fb      	adds	r3, r7, r3
    158c:	2208      	movs	r2, #8
    158e:	701a      	strb	r2, [r3, #0]
    1590:	46c0      	nop			; (mov r8, r8)
    1592:	683b      	ldr	r3, [r7, #0]
    1594:	681a      	ldr	r2, [r3, #0]
    1596:	683b      	ldr	r3, [r7, #0]
    1598:	68db      	ldr	r3, [r3, #12]
    159a:	431a      	orrs	r2, r3
    159c:	683b      	ldr	r3, [r7, #0]
    159e:	695b      	ldr	r3, [r3, #20]
    15a0:	4313      	orrs	r3, r2
    15a2:	683a      	ldr	r2, [r7, #0]
    15a4:	8a12      	ldrh	r2, [r2, #16]
    15a6:	4313      	orrs	r3, r2
    15a8:	683a      	ldr	r2, [r7, #0]
    15aa:	7e12      	ldrb	r2, [r2, #24]
    15ac:	0212      	lsls	r2, r2, #8
    15ae:	4313      	orrs	r3, r2
    15b0:	683a      	ldr	r2, [r7, #0]
    15b2:	2126      	movs	r1, #38	; 0x26
    15b4:	5c52      	ldrb	r2, [r2, r1]
    15b6:	0752      	lsls	r2, r2, #29
    15b8:	4313      	orrs	r3, r2
    15ba:	627b      	str	r3, [r7, #36]	; 0x24
    15bc:	231d      	movs	r3, #29
    15be:	18fb      	adds	r3, r7, r3
    15c0:	2200      	movs	r2, #0
    15c2:	701a      	strb	r2, [r3, #0]
    15c4:	683b      	ldr	r3, [r7, #0]
    15c6:	685b      	ldr	r3, [r3, #4]
    15c8:	2b00      	cmp	r3, #0
    15ca:	d020      	beq.n	160e <_usart_set_config+0x14e>
    15cc:	2280      	movs	r2, #128	; 0x80
    15ce:	0552      	lsls	r2, r2, #21
    15d0:	4293      	cmp	r3, r2
    15d2:	d150      	bne.n	1676 <_usart_set_config+0x1b6>
    15d4:	683b      	ldr	r3, [r7, #0]
    15d6:	2227      	movs	r2, #39	; 0x27
    15d8:	5c9b      	ldrb	r3, [r3, r2]
    15da:	2201      	movs	r2, #1
    15dc:	4053      	eors	r3, r2
    15de:	b2db      	uxtb	r3, r3
    15e0:	2b00      	cmp	r3, #0
    15e2:	d013      	beq.n	160c <_usart_set_config+0x14c>
    15e4:	683b      	ldr	r3, [r7, #0]
    15e6:	6a1d      	ldr	r5, [r3, #32]
    15e8:	693b      	ldr	r3, [r7, #16]
    15ea:	b2db      	uxtb	r3, r3
    15ec:	1c18      	adds	r0, r3, #0
    15ee:	4b69      	ldr	r3, [pc, #420]	; (1794 <_usart_set_config+0x2d4>)
    15f0:	4798      	blx	r3
    15f2:	1c02      	adds	r2, r0, #0
    15f4:	231d      	movs	r3, #29
    15f6:	18fc      	adds	r4, r7, r3
    15f8:	230e      	movs	r3, #14
    15fa:	18fb      	adds	r3, r7, r3
    15fc:	1c28      	adds	r0, r5, #0
    15fe:	1c11      	adds	r1, r2, #0
    1600:	1c1a      	adds	r2, r3, #0
    1602:	4b65      	ldr	r3, [pc, #404]	; (1798 <_usart_set_config+0x2d8>)
    1604:	4798      	blx	r3
    1606:	1c03      	adds	r3, r0, #0
    1608:	7023      	strb	r3, [r4, #0]
    160a:	e034      	b.n	1676 <_usart_set_config+0x1b6>
    160c:	e033      	b.n	1676 <_usart_set_config+0x1b6>
    160e:	683b      	ldr	r3, [r7, #0]
    1610:	2227      	movs	r2, #39	; 0x27
    1612:	5c9b      	ldrb	r3, [r3, r2]
    1614:	2b00      	cmp	r3, #0
    1616:	d014      	beq.n	1642 <_usart_set_config+0x182>
    1618:	683b      	ldr	r3, [r7, #0]
    161a:	6a18      	ldr	r0, [r3, #32]
    161c:	683b      	ldr	r3, [r7, #0]
    161e:	6a99      	ldr	r1, [r3, #40]	; 0x28
    1620:	231d      	movs	r3, #29
    1622:	18fc      	adds	r4, r7, r3
    1624:	230e      	movs	r3, #14
    1626:	18fa      	adds	r2, r7, r3
    1628:	231f      	movs	r3, #31
    162a:	18fb      	adds	r3, r7, r3
    162c:	781d      	ldrb	r5, [r3, #0]
    162e:	231e      	movs	r3, #30
    1630:	18fb      	adds	r3, r7, r3
    1632:	781b      	ldrb	r3, [r3, #0]
    1634:	9300      	str	r3, [sp, #0]
    1636:	1c2b      	adds	r3, r5, #0
    1638:	4d58      	ldr	r5, [pc, #352]	; (179c <_usart_set_config+0x2dc>)
    163a:	47a8      	blx	r5
    163c:	1c03      	adds	r3, r0, #0
    163e:	7023      	strb	r3, [r4, #0]
    1640:	e018      	b.n	1674 <_usart_set_config+0x1b4>
    1642:	683b      	ldr	r3, [r7, #0]
    1644:	6a1e      	ldr	r6, [r3, #32]
    1646:	693b      	ldr	r3, [r7, #16]
    1648:	b2db      	uxtb	r3, r3
    164a:	1c18      	adds	r0, r3, #0
    164c:	4b51      	ldr	r3, [pc, #324]	; (1794 <_usart_set_config+0x2d4>)
    164e:	4798      	blx	r3
    1650:	1c01      	adds	r1, r0, #0
    1652:	231d      	movs	r3, #29
    1654:	18fc      	adds	r4, r7, r3
    1656:	230e      	movs	r3, #14
    1658:	18fa      	adds	r2, r7, r3
    165a:	231f      	movs	r3, #31
    165c:	18fb      	adds	r3, r7, r3
    165e:	781d      	ldrb	r5, [r3, #0]
    1660:	231e      	movs	r3, #30
    1662:	18fb      	adds	r3, r7, r3
    1664:	781b      	ldrb	r3, [r3, #0]
    1666:	9300      	str	r3, [sp, #0]
    1668:	1c30      	adds	r0, r6, #0
    166a:	1c2b      	adds	r3, r5, #0
    166c:	4d4b      	ldr	r5, [pc, #300]	; (179c <_usart_set_config+0x2dc>)
    166e:	47a8      	blx	r5
    1670:	1c03      	adds	r3, r0, #0
    1672:	7023      	strb	r3, [r4, #0]
    1674:	46c0      	nop			; (mov r8, r8)
    1676:	231d      	movs	r3, #29
    1678:	18fb      	adds	r3, r7, r3
    167a:	781b      	ldrb	r3, [r3, #0]
    167c:	2b00      	cmp	r3, #0
    167e:	d003      	beq.n	1688 <_usart_set_config+0x1c8>
    1680:	231d      	movs	r3, #29
    1682:	18fb      	adds	r3, r7, r3
    1684:	781b      	ldrb	r3, [r3, #0]
    1686:	e07e      	b.n	1786 <_usart_set_config+0x2c6>
    1688:	683b      	ldr	r3, [r7, #0]
    168a:	7e5b      	ldrb	r3, [r3, #25]
    168c:	2b00      	cmp	r3, #0
    168e:	d003      	beq.n	1698 <_usart_set_config+0x1d8>
    1690:	683b      	ldr	r3, [r7, #0]
    1692:	7e9a      	ldrb	r2, [r3, #26]
    1694:	69bb      	ldr	r3, [r7, #24]
    1696:	739a      	strb	r2, [r3, #14]
    1698:	687b      	ldr	r3, [r7, #4]
    169a:	1c18      	adds	r0, r3, #0
    169c:	4b40      	ldr	r3, [pc, #256]	; (17a0 <_usart_set_config+0x2e0>)
    169e:	4798      	blx	r3
    16a0:	230e      	movs	r3, #14
    16a2:	18fb      	adds	r3, r7, r3
    16a4:	881a      	ldrh	r2, [r3, #0]
    16a6:	69bb      	ldr	r3, [r7, #24]
    16a8:	819a      	strh	r2, [r3, #12]
    16aa:	683b      	ldr	r3, [r7, #0]
    16ac:	685b      	ldr	r3, [r3, #4]
    16ae:	6a7a      	ldr	r2, [r7, #36]	; 0x24
    16b0:	4313      	orrs	r3, r2
    16b2:	627b      	str	r3, [r7, #36]	; 0x24
    16b4:	683b      	ldr	r3, [r7, #0]
    16b6:	2227      	movs	r2, #39	; 0x27
    16b8:	5c9b      	ldrb	r3, [r3, r2]
    16ba:	2201      	movs	r2, #1
    16bc:	4053      	eors	r3, r2
    16be:	b2db      	uxtb	r3, r3
    16c0:	2b00      	cmp	r3, #0
    16c2:	d003      	beq.n	16cc <_usart_set_config+0x20c>
    16c4:	6a7b      	ldr	r3, [r7, #36]	; 0x24
    16c6:	2204      	movs	r2, #4
    16c8:	4313      	orrs	r3, r2
    16ca:	627b      	str	r3, [r7, #36]	; 0x24
    16cc:	683b      	ldr	r3, [r7, #0]
    16ce:	7a9a      	ldrb	r2, [r3, #10]
    16d0:	683b      	ldr	r3, [r7, #0]
    16d2:	7adb      	ldrb	r3, [r3, #11]
    16d4:	4313      	orrs	r3, r2
    16d6:	b2db      	uxtb	r3, r3
    16d8:	1c1a      	adds	r2, r3, #0
    16da:	683b      	ldr	r3, [r7, #0]
    16dc:	7e5b      	ldrb	r3, [r3, #25]
    16de:	029b      	lsls	r3, r3, #10
    16e0:	4313      	orrs	r3, r2
    16e2:	683a      	ldr	r2, [r7, #0]
    16e4:	7f12      	ldrb	r2, [r2, #28]
    16e6:	0252      	lsls	r2, r2, #9
    16e8:	4313      	orrs	r3, r2
    16ea:	683a      	ldr	r2, [r7, #0]
    16ec:	7f52      	ldrb	r2, [r2, #29]
    16ee:	0212      	lsls	r2, r2, #8
    16f0:	4313      	orrs	r3, r2
    16f2:	683a      	ldr	r2, [r7, #0]
    16f4:	2124      	movs	r1, #36	; 0x24
    16f6:	5c52      	ldrb	r2, [r2, r1]
    16f8:	0452      	lsls	r2, r2, #17
    16fa:	4313      	orrs	r3, r2
    16fc:	683a      	ldr	r2, [r7, #0]
    16fe:	2125      	movs	r1, #37	; 0x25
    1700:	5c52      	ldrb	r2, [r2, r1]
    1702:	0412      	lsls	r2, r2, #16
    1704:	4313      	orrs	r3, r2
    1706:	623b      	str	r3, [r7, #32]
    1708:	683b      	ldr	r3, [r7, #0]
    170a:	891b      	ldrh	r3, [r3, #8]
    170c:	2bff      	cmp	r3, #255	; 0xff
    170e:	d015      	beq.n	173c <_usart_set_config+0x27c>
    1710:	683b      	ldr	r3, [r7, #0]
    1712:	7edb      	ldrb	r3, [r3, #27]
    1714:	2b00      	cmp	r3, #0
    1716:	d005      	beq.n	1724 <_usart_set_config+0x264>
    1718:	6a7b      	ldr	r3, [r7, #36]	; 0x24
    171a:	22a0      	movs	r2, #160	; 0xa0
    171c:	04d2      	lsls	r2, r2, #19
    171e:	4313      	orrs	r3, r2
    1720:	627b      	str	r3, [r7, #36]	; 0x24
    1722:	e004      	b.n	172e <_usart_set_config+0x26e>
    1724:	6a7b      	ldr	r3, [r7, #36]	; 0x24
    1726:	2280      	movs	r2, #128	; 0x80
    1728:	0452      	lsls	r2, r2, #17
    172a:	4313      	orrs	r3, r2
    172c:	627b      	str	r3, [r7, #36]	; 0x24
    172e:	683b      	ldr	r3, [r7, #0]
    1730:	891b      	ldrh	r3, [r3, #8]
    1732:	1c1a      	adds	r2, r3, #0
    1734:	6a3b      	ldr	r3, [r7, #32]
    1736:	4313      	orrs	r3, r2
    1738:	623b      	str	r3, [r7, #32]
    173a:	e008      	b.n	174e <_usart_set_config+0x28e>
    173c:	683b      	ldr	r3, [r7, #0]
    173e:	7edb      	ldrb	r3, [r3, #27]
    1740:	2b00      	cmp	r3, #0
    1742:	d004      	beq.n	174e <_usart_set_config+0x28e>
    1744:	6a7b      	ldr	r3, [r7, #36]	; 0x24
    1746:	2280      	movs	r2, #128	; 0x80
    1748:	04d2      	lsls	r2, r2, #19
    174a:	4313      	orrs	r3, r2
    174c:	627b      	str	r3, [r7, #36]	; 0x24
    174e:	683b      	ldr	r3, [r7, #0]
    1750:	222c      	movs	r2, #44	; 0x2c
    1752:	5c9b      	ldrb	r3, [r3, r2]
    1754:	2b00      	cmp	r3, #0
    1756:	d103      	bne.n	1760 <_usart_set_config+0x2a0>
    1758:	4b12      	ldr	r3, [pc, #72]	; (17a4 <_usart_set_config+0x2e4>)
    175a:	4798      	blx	r3
    175c:	1e03      	subs	r3, r0, #0
    175e:	d003      	beq.n	1768 <_usart_set_config+0x2a8>
    1760:	6a7b      	ldr	r3, [r7, #36]	; 0x24
    1762:	2280      	movs	r2, #128	; 0x80
    1764:	4313      	orrs	r3, r2
    1766:	627b      	str	r3, [r7, #36]	; 0x24
    1768:	687b      	ldr	r3, [r7, #4]
    176a:	1c18      	adds	r0, r3, #0
    176c:	4b0c      	ldr	r3, [pc, #48]	; (17a0 <_usart_set_config+0x2e0>)
    176e:	4798      	blx	r3
    1770:	69bb      	ldr	r3, [r7, #24]
    1772:	6a3a      	ldr	r2, [r7, #32]
    1774:	605a      	str	r2, [r3, #4]
    1776:	687b      	ldr	r3, [r7, #4]
    1778:	1c18      	adds	r0, r3, #0
    177a:	4b09      	ldr	r3, [pc, #36]	; (17a0 <_usart_set_config+0x2e0>)
    177c:	4798      	blx	r3
    177e:	69bb      	ldr	r3, [r7, #24]
    1780:	6a7a      	ldr	r2, [r7, #36]	; 0x24
    1782:	601a      	str	r2, [r3, #0]
    1784:	2300      	movs	r3, #0
    1786:	1c18      	adds	r0, r3, #0
    1788:	46bd      	mov	sp, r7
    178a:	b00b      	add	sp, #44	; 0x2c
    178c:	bdf0      	pop	{r4, r5, r6, r7, pc}
    178e:	46c0      	nop			; (mov r8, r8)
    1790:	00001231 	.word	0x00001231
    1794:	00002d95 	.word	0x00002d95
    1798:	00000d7d 	.word	0x00000d7d
    179c:	00000df9 	.word	0x00000df9
    17a0:	000014a1 	.word	0x000014a1
    17a4:	00001461 	.word	0x00001461

000017a8 <usart_init>:
    17a8:	b590      	push	{r4, r7, lr}
    17aa:	b093      	sub	sp, #76	; 0x4c
    17ac:	af00      	add	r7, sp, #0
    17ae:	60f8      	str	r0, [r7, #12]
    17b0:	60b9      	str	r1, [r7, #8]
    17b2:	607a      	str	r2, [r7, #4]
    17b4:	233b      	movs	r3, #59	; 0x3b
    17b6:	18fb      	adds	r3, r7, r3
    17b8:	2200      	movs	r2, #0
    17ba:	701a      	strb	r2, [r3, #0]
    17bc:	68fb      	ldr	r3, [r7, #12]
    17be:	68ba      	ldr	r2, [r7, #8]
    17c0:	601a      	str	r2, [r3, #0]
    17c2:	68fb      	ldr	r3, [r7, #12]
    17c4:	681b      	ldr	r3, [r3, #0]
    17c6:	637b      	str	r3, [r7, #52]	; 0x34
    17c8:	68fb      	ldr	r3, [r7, #12]
    17ca:	681b      	ldr	r3, [r3, #0]
    17cc:	1c18      	adds	r0, r3, #0
    17ce:	4b85      	ldr	r3, [pc, #532]	; (19e4 <usart_init+0x23c>)
    17d0:	4798      	blx	r3
    17d2:	1c03      	adds	r3, r0, #0
    17d4:	633b      	str	r3, [r7, #48]	; 0x30
    17d6:	6b3b      	ldr	r3, [r7, #48]	; 0x30
    17d8:	3302      	adds	r3, #2
    17da:	62fb      	str	r3, [r7, #44]	; 0x2c
    17dc:	6b3b      	ldr	r3, [r7, #48]	; 0x30
    17de:	3314      	adds	r3, #20
    17e0:	62bb      	str	r3, [r7, #40]	; 0x28
    17e2:	6b7b      	ldr	r3, [r7, #52]	; 0x34
    17e4:	681b      	ldr	r3, [r3, #0]
    17e6:	2201      	movs	r2, #1
    17e8:	4013      	ands	r3, r2
    17ea:	d001      	beq.n	17f0 <usart_init+0x48>
    17ec:	2305      	movs	r3, #5
    17ee:	e0f5      	b.n	19dc <usart_init+0x234>
    17f0:	6b7b      	ldr	r3, [r7, #52]	; 0x34
    17f2:	681b      	ldr	r3, [r3, #0]
    17f4:	2202      	movs	r2, #2
    17f6:	4013      	ands	r3, r2
    17f8:	d001      	beq.n	17fe <usart_init+0x56>
    17fa:	231c      	movs	r3, #28
    17fc:	e0ee      	b.n	19dc <usart_init+0x234>
    17fe:	6afb      	ldr	r3, [r7, #44]	; 0x2c
    1800:	2201      	movs	r2, #1
    1802:	409a      	lsls	r2, r3
    1804:	1c13      	adds	r3, r2, #0
    1806:	2002      	movs	r0, #2
    1808:	1c19      	adds	r1, r3, #0
    180a:	4b77      	ldr	r3, [pc, #476]	; (19e8 <usart_init+0x240>)
    180c:	4798      	blx	r3
    180e:	2324      	movs	r3, #36	; 0x24
    1810:	18fb      	adds	r3, r7, r3
    1812:	1c18      	adds	r0, r3, #0
    1814:	4b75      	ldr	r3, [pc, #468]	; (19ec <usart_init+0x244>)
    1816:	4798      	blx	r3
    1818:	687b      	ldr	r3, [r7, #4]
    181a:	222d      	movs	r2, #45	; 0x2d
    181c:	5c9a      	ldrb	r2, [r3, r2]
    181e:	2324      	movs	r3, #36	; 0x24
    1820:	18fb      	adds	r3, r7, r3
    1822:	701a      	strb	r2, [r3, #0]
    1824:	6abb      	ldr	r3, [r7, #40]	; 0x28
    1826:	b2da      	uxtb	r2, r3
    1828:	2324      	movs	r3, #36	; 0x24
    182a:	18fb      	adds	r3, r7, r3
    182c:	1c10      	adds	r0, r2, #0
    182e:	1c19      	adds	r1, r3, #0
    1830:	4b6f      	ldr	r3, [pc, #444]	; (19f0 <usart_init+0x248>)
    1832:	4798      	blx	r3
    1834:	6abb      	ldr	r3, [r7, #40]	; 0x28
    1836:	b2db      	uxtb	r3, r3
    1838:	1c18      	adds	r0, r3, #0
    183a:	4b6e      	ldr	r3, [pc, #440]	; (19f4 <usart_init+0x24c>)
    183c:	4798      	blx	r3
    183e:	687b      	ldr	r3, [r7, #4]
    1840:	222d      	movs	r2, #45	; 0x2d
    1842:	5c9b      	ldrb	r3, [r3, r2]
    1844:	1c18      	adds	r0, r3, #0
    1846:	2100      	movs	r1, #0
    1848:	4b6b      	ldr	r3, [pc, #428]	; (19f8 <usart_init+0x250>)
    184a:	4798      	blx	r3
    184c:	687b      	ldr	r3, [r7, #4]
    184e:	7ada      	ldrb	r2, [r3, #11]
    1850:	68fb      	ldr	r3, [r7, #12]
    1852:	715a      	strb	r2, [r3, #5]
    1854:	687b      	ldr	r3, [r7, #4]
    1856:	2224      	movs	r2, #36	; 0x24
    1858:	5c9a      	ldrb	r2, [r3, r2]
    185a:	68fb      	ldr	r3, [r7, #12]
    185c:	719a      	strb	r2, [r3, #6]
    185e:	687b      	ldr	r3, [r7, #4]
    1860:	2225      	movs	r2, #37	; 0x25
    1862:	5c9a      	ldrb	r2, [r3, r2]
    1864:	68fb      	ldr	r3, [r7, #12]
    1866:	71da      	strb	r2, [r3, #7]
    1868:	687b      	ldr	r3, [r7, #4]
    186a:	7eda      	ldrb	r2, [r3, #27]
    186c:	68fb      	ldr	r3, [r7, #12]
    186e:	721a      	strb	r2, [r3, #8]
    1870:	687b      	ldr	r3, [r7, #4]
    1872:	7f1a      	ldrb	r2, [r3, #28]
    1874:	68fb      	ldr	r3, [r7, #12]
    1876:	725a      	strb	r2, [r3, #9]
    1878:	233b      	movs	r3, #59	; 0x3b
    187a:	18fc      	adds	r4, r7, r3
    187c:	68fa      	ldr	r2, [r7, #12]
    187e:	687b      	ldr	r3, [r7, #4]
    1880:	1c10      	adds	r0, r2, #0
    1882:	1c19      	adds	r1, r3, #0
    1884:	4b5d      	ldr	r3, [pc, #372]	; (19fc <usart_init+0x254>)
    1886:	4798      	blx	r3
    1888:	1c03      	adds	r3, r0, #0
    188a:	7023      	strb	r3, [r4, #0]
    188c:	233b      	movs	r3, #59	; 0x3b
    188e:	18fb      	adds	r3, r7, r3
    1890:	781b      	ldrb	r3, [r3, #0]
    1892:	2b00      	cmp	r3, #0
    1894:	d003      	beq.n	189e <usart_init+0xf6>
    1896:	233b      	movs	r3, #59	; 0x3b
    1898:	18fb      	adds	r3, r7, r3
    189a:	781b      	ldrb	r3, [r3, #0]
    189c:	e09e      	b.n	19dc <usart_init+0x234>
    189e:	2320      	movs	r3, #32
    18a0:	18fb      	adds	r3, r7, r3
    18a2:	1c18      	adds	r0, r3, #0
    18a4:	4b56      	ldr	r3, [pc, #344]	; (1a00 <usart_init+0x258>)
    18a6:	4798      	blx	r3
    18a8:	2320      	movs	r3, #32
    18aa:	18fb      	adds	r3, r7, r3
    18ac:	2200      	movs	r2, #0
    18ae:	705a      	strb	r2, [r3, #1]
    18b0:	2320      	movs	r3, #32
    18b2:	18fb      	adds	r3, r7, r3
    18b4:	2200      	movs	r2, #0
    18b6:	709a      	strb	r2, [r3, #2]
    18b8:	687b      	ldr	r3, [r7, #4]
    18ba:	6b1a      	ldr	r2, [r3, #48]	; 0x30
    18bc:	2310      	movs	r3, #16
    18be:	18fb      	adds	r3, r7, r3
    18c0:	601a      	str	r2, [r3, #0]
    18c2:	687b      	ldr	r3, [r7, #4]
    18c4:	6b5a      	ldr	r2, [r3, #52]	; 0x34
    18c6:	2310      	movs	r3, #16
    18c8:	18fb      	adds	r3, r7, r3
    18ca:	605a      	str	r2, [r3, #4]
    18cc:	687b      	ldr	r3, [r7, #4]
    18ce:	6b9a      	ldr	r2, [r3, #56]	; 0x38
    18d0:	2310      	movs	r3, #16
    18d2:	18fb      	adds	r3, r7, r3
    18d4:	609a      	str	r2, [r3, #8]
    18d6:	687b      	ldr	r3, [r7, #4]
    18d8:	6bda      	ldr	r2, [r3, #60]	; 0x3c
    18da:	2310      	movs	r3, #16
    18dc:	18fb      	adds	r3, r7, r3
    18de:	60da      	str	r2, [r3, #12]
    18e0:	2347      	movs	r3, #71	; 0x47
    18e2:	18fb      	adds	r3, r7, r3
    18e4:	2200      	movs	r2, #0
    18e6:	701a      	strb	r2, [r3, #0]
    18e8:	e02c      	b.n	1944 <usart_init+0x19c>
    18ea:	2347      	movs	r3, #71	; 0x47
    18ec:	18fb      	adds	r3, r7, r3
    18ee:	781a      	ldrb	r2, [r3, #0]
    18f0:	2310      	movs	r3, #16
    18f2:	18fb      	adds	r3, r7, r3
    18f4:	0092      	lsls	r2, r2, #2
    18f6:	58d3      	ldr	r3, [r2, r3]
    18f8:	643b      	str	r3, [r7, #64]	; 0x40
    18fa:	6c3b      	ldr	r3, [r7, #64]	; 0x40
    18fc:	2b00      	cmp	r3, #0
    18fe:	d109      	bne.n	1914 <usart_init+0x16c>
    1900:	68ba      	ldr	r2, [r7, #8]
    1902:	2347      	movs	r3, #71	; 0x47
    1904:	18fb      	adds	r3, r7, r3
    1906:	781b      	ldrb	r3, [r3, #0]
    1908:	1c10      	adds	r0, r2, #0
    190a:	1c19      	adds	r1, r3, #0
    190c:	4b3d      	ldr	r3, [pc, #244]	; (1a04 <usart_init+0x25c>)
    190e:	4798      	blx	r3
    1910:	1c03      	adds	r3, r0, #0
    1912:	643b      	str	r3, [r7, #64]	; 0x40
    1914:	6c3b      	ldr	r3, [r7, #64]	; 0x40
    1916:	3301      	adds	r3, #1
    1918:	d00d      	beq.n	1936 <usart_init+0x18e>
    191a:	6c3b      	ldr	r3, [r7, #64]	; 0x40
    191c:	b2da      	uxtb	r2, r3
    191e:	2320      	movs	r3, #32
    1920:	18fb      	adds	r3, r7, r3
    1922:	701a      	strb	r2, [r3, #0]
    1924:	6c3b      	ldr	r3, [r7, #64]	; 0x40
    1926:	0c1b      	lsrs	r3, r3, #16
    1928:	b2da      	uxtb	r2, r3
    192a:	2320      	movs	r3, #32
    192c:	18fb      	adds	r3, r7, r3
    192e:	1c10      	adds	r0, r2, #0
    1930:	1c19      	adds	r1, r3, #0
    1932:	4b35      	ldr	r3, [pc, #212]	; (1a08 <usart_init+0x260>)
    1934:	4798      	blx	r3
    1936:	2347      	movs	r3, #71	; 0x47
    1938:	18fb      	adds	r3, r7, r3
    193a:	781a      	ldrb	r2, [r3, #0]
    193c:	2347      	movs	r3, #71	; 0x47
    193e:	18fb      	adds	r3, r7, r3
    1940:	3201      	adds	r2, #1
    1942:	701a      	strb	r2, [r3, #0]
    1944:	2347      	movs	r3, #71	; 0x47
    1946:	18fb      	adds	r3, r7, r3
    1948:	781b      	ldrb	r3, [r3, #0]
    194a:	2b03      	cmp	r3, #3
    194c:	d9cd      	bls.n	18ea <usart_init+0x142>
    194e:	2300      	movs	r3, #0
    1950:	63fb      	str	r3, [r7, #60]	; 0x3c
    1952:	e009      	b.n	1968 <usart_init+0x1c0>
    1954:	68fa      	ldr	r2, [r7, #12]
    1956:	6bfb      	ldr	r3, [r7, #60]	; 0x3c
    1958:	3302      	adds	r3, #2
    195a:	009b      	lsls	r3, r3, #2
    195c:	18d3      	adds	r3, r2, r3
    195e:	2200      	movs	r2, #0
    1960:	605a      	str	r2, [r3, #4]
    1962:	6bfb      	ldr	r3, [r7, #60]	; 0x3c
    1964:	3301      	adds	r3, #1
    1966:	63fb      	str	r3, [r7, #60]	; 0x3c
    1968:	6bfb      	ldr	r3, [r7, #60]	; 0x3c
    196a:	2b05      	cmp	r3, #5
    196c:	d9f2      	bls.n	1954 <usart_init+0x1ac>
    196e:	68fb      	ldr	r3, [r7, #12]
    1970:	2200      	movs	r2, #0
    1972:	629a      	str	r2, [r3, #40]	; 0x28
    1974:	68fb      	ldr	r3, [r7, #12]
    1976:	2200      	movs	r2, #0
    1978:	625a      	str	r2, [r3, #36]	; 0x24
    197a:	68fb      	ldr	r3, [r7, #12]
    197c:	2200      	movs	r2, #0
    197e:	85da      	strh	r2, [r3, #46]	; 0x2e
    1980:	68fb      	ldr	r3, [r7, #12]
    1982:	2200      	movs	r2, #0
    1984:	859a      	strh	r2, [r3, #44]	; 0x2c
    1986:	68fb      	ldr	r3, [r7, #12]
    1988:	2230      	movs	r2, #48	; 0x30
    198a:	2100      	movs	r1, #0
    198c:	5499      	strb	r1, [r3, r2]
    198e:	68fb      	ldr	r3, [r7, #12]
    1990:	2231      	movs	r2, #49	; 0x31
    1992:	2100      	movs	r1, #0
    1994:	5499      	strb	r1, [r3, r2]
    1996:	68fb      	ldr	r3, [r7, #12]
    1998:	2232      	movs	r2, #50	; 0x32
    199a:	2100      	movs	r1, #0
    199c:	5499      	strb	r1, [r3, r2]
    199e:	68fb      	ldr	r3, [r7, #12]
    19a0:	2233      	movs	r2, #51	; 0x33
    19a2:	2100      	movs	r1, #0
    19a4:	5499      	strb	r1, [r3, r2]
    19a6:	68fb      	ldr	r3, [r7, #12]
    19a8:	681b      	ldr	r3, [r3, #0]
    19aa:	2227      	movs	r2, #39	; 0x27
    19ac:	18bc      	adds	r4, r7, r2
    19ae:	1c18      	adds	r0, r3, #0
    19b0:	4b0c      	ldr	r3, [pc, #48]	; (19e4 <usart_init+0x23c>)
    19b2:	4798      	blx	r3
    19b4:	1c03      	adds	r3, r0, #0
    19b6:	7023      	strb	r3, [r4, #0]
    19b8:	2327      	movs	r3, #39	; 0x27
    19ba:	18fb      	adds	r3, r7, r3
    19bc:	781a      	ldrb	r2, [r3, #0]
    19be:	4b13      	ldr	r3, [pc, #76]	; (1a0c <usart_init+0x264>)
    19c0:	1c10      	adds	r0, r2, #0
    19c2:	1c19      	adds	r1, r3, #0
    19c4:	4b12      	ldr	r3, [pc, #72]	; (1a10 <usart_init+0x268>)
    19c6:	4798      	blx	r3
    19c8:	2327      	movs	r3, #39	; 0x27
    19ca:	18fb      	adds	r3, r7, r3
    19cc:	781a      	ldrb	r2, [r3, #0]
    19ce:	4b11      	ldr	r3, [pc, #68]	; (1a14 <usart_init+0x26c>)
    19d0:	0092      	lsls	r2, r2, #2
    19d2:	68f9      	ldr	r1, [r7, #12]
    19d4:	50d1      	str	r1, [r2, r3]
    19d6:	233b      	movs	r3, #59	; 0x3b
    19d8:	18fb      	adds	r3, r7, r3
    19da:	781b      	ldrb	r3, [r3, #0]
    19dc:	1c18      	adds	r0, r3, #0
    19de:	46bd      	mov	sp, r7
    19e0:	b013      	add	sp, #76	; 0x4c
    19e2:	bd90      	pop	{r4, r7, pc}
    19e4:	00001231 	.word	0x00001231
    19e8:	000013dd 	.word	0x000013dd
    19ec:	000013c9 	.word	0x000013c9
    19f0:	00002c71 	.word	0x00002c71
    19f4:	00002cb5 	.word	0x00002cb5
    19f8:	00000fe9 	.word	0x00000fe9
    19fc:	000014c1 	.word	0x000014c1
    1a00:	00001439 	.word	0x00001439
    1a04:	00001075 	.word	0x00001075
    1a08:	00002f5d 	.word	0x00002f5d
    1a0c:	00001bbd 	.word	0x00001bbd
    1a10:	00001291 	.word	0x00001291
    1a14:	200001c8 	.word	0x200001c8

00001a18 <usart_write_wait>:
    1a18:	b580      	push	{r7, lr}
    1a1a:	b084      	sub	sp, #16
    1a1c:	af00      	add	r7, sp, #0
    1a1e:	6078      	str	r0, [r7, #4]
    1a20:	1c0a      	adds	r2, r1, #0
    1a22:	1cbb      	adds	r3, r7, #2
    1a24:	801a      	strh	r2, [r3, #0]
    1a26:	687b      	ldr	r3, [r7, #4]
    1a28:	681b      	ldr	r3, [r3, #0]
    1a2a:	60fb      	str	r3, [r7, #12]
    1a2c:	687b      	ldr	r3, [r7, #4]
    1a2e:	79db      	ldrb	r3, [r3, #7]
    1a30:	2201      	movs	r2, #1
    1a32:	4053      	eors	r3, r2
    1a34:	b2db      	uxtb	r3, r3
    1a36:	2b00      	cmp	r3, #0
    1a38:	d001      	beq.n	1a3e <usart_write_wait+0x26>
    1a3a:	231c      	movs	r3, #28
    1a3c:	e017      	b.n	1a6e <usart_write_wait+0x56>
    1a3e:	687b      	ldr	r3, [r7, #4]
    1a40:	8ddb      	ldrh	r3, [r3, #46]	; 0x2e
    1a42:	b29b      	uxth	r3, r3
    1a44:	2b00      	cmp	r3, #0
    1a46:	d001      	beq.n	1a4c <usart_write_wait+0x34>
    1a48:	2305      	movs	r3, #5
    1a4a:	e010      	b.n	1a6e <usart_write_wait+0x56>
    1a4c:	687b      	ldr	r3, [r7, #4]
    1a4e:	1c18      	adds	r0, r3, #0
    1a50:	4b09      	ldr	r3, [pc, #36]	; (1a78 <usart_write_wait+0x60>)
    1a52:	4798      	blx	r3
    1a54:	68fb      	ldr	r3, [r7, #12]
    1a56:	1cba      	adds	r2, r7, #2
    1a58:	8812      	ldrh	r2, [r2, #0]
    1a5a:	851a      	strh	r2, [r3, #40]	; 0x28
    1a5c:	46c0      	nop			; (mov r8, r8)
    1a5e:	68fb      	ldr	r3, [r7, #12]
    1a60:	7e1b      	ldrb	r3, [r3, #24]
    1a62:	b2db      	uxtb	r3, r3
    1a64:	1c1a      	adds	r2, r3, #0
    1a66:	2302      	movs	r3, #2
    1a68:	4013      	ands	r3, r2
    1a6a:	d0f8      	beq.n	1a5e <usart_write_wait+0x46>
    1a6c:	2300      	movs	r3, #0
    1a6e:	1c18      	adds	r0, r3, #0
    1a70:	46bd      	mov	sp, r7
    1a72:	b004      	add	sp, #16
    1a74:	bd80      	pop	{r7, pc}
    1a76:	46c0      	nop			; (mov r8, r8)
    1a78:	000014a1 	.word	0x000014a1

00001a7c <usart_read_wait>:
    1a7c:	b580      	push	{r7, lr}
    1a7e:	b084      	sub	sp, #16
    1a80:	af00      	add	r7, sp, #0
    1a82:	6078      	str	r0, [r7, #4]
    1a84:	6039      	str	r1, [r7, #0]
    1a86:	687b      	ldr	r3, [r7, #4]
    1a88:	681b      	ldr	r3, [r3, #0]
    1a8a:	60fb      	str	r3, [r7, #12]
    1a8c:	687b      	ldr	r3, [r7, #4]
    1a8e:	799b      	ldrb	r3, [r3, #6]
    1a90:	2201      	movs	r2, #1
    1a92:	4053      	eors	r3, r2
    1a94:	b2db      	uxtb	r3, r3
    1a96:	2b00      	cmp	r3, #0
    1a98:	d001      	beq.n	1a9e <usart_read_wait+0x22>
    1a9a:	231c      	movs	r3, #28
    1a9c:	e068      	b.n	1b70 <usart_read_wait+0xf4>
    1a9e:	687b      	ldr	r3, [r7, #4]
    1aa0:	8d9b      	ldrh	r3, [r3, #44]	; 0x2c
    1aa2:	b29b      	uxth	r3, r3
    1aa4:	2b00      	cmp	r3, #0
    1aa6:	d001      	beq.n	1aac <usart_read_wait+0x30>
    1aa8:	2305      	movs	r3, #5
    1aaa:	e061      	b.n	1b70 <usart_read_wait+0xf4>
    1aac:	68fb      	ldr	r3, [r7, #12]
    1aae:	7e1b      	ldrb	r3, [r3, #24]
    1ab0:	b2db      	uxtb	r3, r3
    1ab2:	1c1a      	adds	r2, r3, #0
    1ab4:	2304      	movs	r3, #4
    1ab6:	4013      	ands	r3, r2
    1ab8:	d101      	bne.n	1abe <usart_read_wait+0x42>
    1aba:	2305      	movs	r3, #5
    1abc:	e058      	b.n	1b70 <usart_read_wait+0xf4>
    1abe:	687b      	ldr	r3, [r7, #4]
    1ac0:	1c18      	adds	r0, r3, #0
    1ac2:	4b2d      	ldr	r3, [pc, #180]	; (1b78 <usart_read_wait+0xfc>)
    1ac4:	4798      	blx	r3
    1ac6:	68fb      	ldr	r3, [r7, #12]
    1ac8:	8b5b      	ldrh	r3, [r3, #26]
    1aca:	b29b      	uxth	r3, r3
    1acc:	b2da      	uxtb	r2, r3
    1ace:	230b      	movs	r3, #11
    1ad0:	18fb      	adds	r3, r7, r3
    1ad2:	213f      	movs	r1, #63	; 0x3f
    1ad4:	400a      	ands	r2, r1
    1ad6:	701a      	strb	r2, [r3, #0]
    1ad8:	230b      	movs	r3, #11
    1ada:	18fb      	adds	r3, r7, r3
    1adc:	781b      	ldrb	r3, [r3, #0]
    1ade:	2b00      	cmp	r3, #0
    1ae0:	d040      	beq.n	1b64 <usart_read_wait+0xe8>
    1ae2:	230b      	movs	r3, #11
    1ae4:	18fb      	adds	r3, r7, r3
    1ae6:	781b      	ldrb	r3, [r3, #0]
    1ae8:	2202      	movs	r2, #2
    1aea:	4013      	ands	r3, r2
    1aec:	d004      	beq.n	1af8 <usart_read_wait+0x7c>
    1aee:	68fb      	ldr	r3, [r7, #12]
    1af0:	2202      	movs	r2, #2
    1af2:	835a      	strh	r2, [r3, #26]
    1af4:	231a      	movs	r3, #26
    1af6:	e03b      	b.n	1b70 <usart_read_wait+0xf4>
    1af8:	230b      	movs	r3, #11
    1afa:	18fb      	adds	r3, r7, r3
    1afc:	781b      	ldrb	r3, [r3, #0]
    1afe:	2204      	movs	r2, #4
    1b00:	4013      	ands	r3, r2
    1b02:	d004      	beq.n	1b0e <usart_read_wait+0x92>
    1b04:	68fb      	ldr	r3, [r7, #12]
    1b06:	2204      	movs	r2, #4
    1b08:	835a      	strh	r2, [r3, #26]
    1b0a:	231e      	movs	r3, #30
    1b0c:	e030      	b.n	1b70 <usart_read_wait+0xf4>
    1b0e:	230b      	movs	r3, #11
    1b10:	18fb      	adds	r3, r7, r3
    1b12:	781b      	ldrb	r3, [r3, #0]
    1b14:	2201      	movs	r2, #1
    1b16:	4013      	ands	r3, r2
    1b18:	d004      	beq.n	1b24 <usart_read_wait+0xa8>
    1b1a:	68fb      	ldr	r3, [r7, #12]
    1b1c:	2201      	movs	r2, #1
    1b1e:	835a      	strh	r2, [r3, #26]
    1b20:	2313      	movs	r3, #19
    1b22:	e025      	b.n	1b70 <usart_read_wait+0xf4>
    1b24:	230b      	movs	r3, #11
    1b26:	18fb      	adds	r3, r7, r3
    1b28:	781b      	ldrb	r3, [r3, #0]
    1b2a:	2210      	movs	r2, #16
    1b2c:	4013      	ands	r3, r2
    1b2e:	d009      	beq.n	1b44 <usart_read_wait+0xc8>
    1b30:	68fb      	ldr	r3, [r7, #12]
    1b32:	8b5b      	ldrh	r3, [r3, #26]
    1b34:	b29b      	uxth	r3, r3
    1b36:	2210      	movs	r2, #16
    1b38:	4313      	orrs	r3, r2
    1b3a:	b29a      	uxth	r2, r3
    1b3c:	68fb      	ldr	r3, [r7, #12]
    1b3e:	835a      	strh	r2, [r3, #26]
    1b40:	2342      	movs	r3, #66	; 0x42
    1b42:	e015      	b.n	1b70 <usart_read_wait+0xf4>
    1b44:	230b      	movs	r3, #11
    1b46:	18fb      	adds	r3, r7, r3
    1b48:	781b      	ldrb	r3, [r3, #0]
    1b4a:	2220      	movs	r2, #32
    1b4c:	4013      	ands	r3, r2
    1b4e:	d009      	beq.n	1b64 <usart_read_wait+0xe8>
    1b50:	68fb      	ldr	r3, [r7, #12]
    1b52:	8b5b      	ldrh	r3, [r3, #26]
    1b54:	b29b      	uxth	r3, r3
    1b56:	2220      	movs	r2, #32
    1b58:	4313      	orrs	r3, r2
    1b5a:	b29a      	uxth	r2, r3
    1b5c:	68fb      	ldr	r3, [r7, #12]
    1b5e:	835a      	strh	r2, [r3, #26]
    1b60:	2341      	movs	r3, #65	; 0x41
    1b62:	e005      	b.n	1b70 <usart_read_wait+0xf4>
    1b64:	68fb      	ldr	r3, [r7, #12]
    1b66:	8d1b      	ldrh	r3, [r3, #40]	; 0x28
    1b68:	b29a      	uxth	r2, r3
    1b6a:	683b      	ldr	r3, [r7, #0]
    1b6c:	801a      	strh	r2, [r3, #0]
    1b6e:	2300      	movs	r3, #0
    1b70:	1c18      	adds	r0, r3, #0
    1b72:	46bd      	mov	sp, r7
    1b74:	b004      	add	sp, #16
    1b76:	bd80      	pop	{r7, pc}
    1b78:	000014a1 	.word	0x000014a1

00001b7c <usart_is_syncing>:
    1b7c:	b580      	push	{r7, lr}
    1b7e:	b084      	sub	sp, #16
    1b80:	af00      	add	r7, sp, #0
    1b82:	6078      	str	r0, [r7, #4]
    1b84:	687b      	ldr	r3, [r7, #4]
    1b86:	681b      	ldr	r3, [r3, #0]
    1b88:	60fb      	str	r3, [r7, #12]
    1b8a:	68fb      	ldr	r3, [r7, #12]
    1b8c:	69db      	ldr	r3, [r3, #28]
    1b8e:	1e5a      	subs	r2, r3, #1
    1b90:	4193      	sbcs	r3, r2
    1b92:	b2db      	uxtb	r3, r3
    1b94:	1c18      	adds	r0, r3, #0
    1b96:	46bd      	mov	sp, r7
    1b98:	b004      	add	sp, #16
    1b9a:	bd80      	pop	{r7, pc}

00001b9c <_usart_wait_for_sync>:
    1b9c:	b580      	push	{r7, lr}
    1b9e:	b082      	sub	sp, #8
    1ba0:	af00      	add	r7, sp, #0
    1ba2:	6078      	str	r0, [r7, #4]
    1ba4:	46c0      	nop			; (mov r8, r8)
    1ba6:	687b      	ldr	r3, [r7, #4]
    1ba8:	1c18      	adds	r0, r3, #0
    1baa:	4b03      	ldr	r3, [pc, #12]	; (1bb8 <_usart_wait_for_sync+0x1c>)
    1bac:	4798      	blx	r3
    1bae:	1e03      	subs	r3, r0, #0
    1bb0:	d1f9      	bne.n	1ba6 <_usart_wait_for_sync+0xa>
    1bb2:	46bd      	mov	sp, r7
    1bb4:	b002      	add	sp, #8
    1bb6:	bd80      	pop	{r7, pc}
    1bb8:	00001b7d 	.word	0x00001b7d

00001bbc <_usart_interrupt_handler>:
    1bbc:	b580      	push	{r7, lr}
    1bbe:	b088      	sub	sp, #32
    1bc0:	af00      	add	r7, sp, #0
    1bc2:	1c02      	adds	r2, r0, #0
    1bc4:	1dfb      	adds	r3, r7, #7
    1bc6:	701a      	strb	r2, [r3, #0]
    1bc8:	1dfb      	adds	r3, r7, #7
    1bca:	781a      	ldrb	r2, [r3, #0]
    1bcc:	4bb0      	ldr	r3, [pc, #704]	; (1e90 <_usart_interrupt_handler+0x2d4>)
    1bce:	0092      	lsls	r2, r2, #2
    1bd0:	58d3      	ldr	r3, [r2, r3]
    1bd2:	61bb      	str	r3, [r7, #24]
    1bd4:	69bb      	ldr	r3, [r7, #24]
    1bd6:	681b      	ldr	r3, [r3, #0]
    1bd8:	617b      	str	r3, [r7, #20]
    1bda:	69bb      	ldr	r3, [r7, #24]
    1bdc:	1c18      	adds	r0, r3, #0
    1bde:	4bad      	ldr	r3, [pc, #692]	; (1e94 <_usart_interrupt_handler+0x2d8>)
    1be0:	4798      	blx	r3
    1be2:	697b      	ldr	r3, [r7, #20]
    1be4:	7e1b      	ldrb	r3, [r3, #24]
    1be6:	b2da      	uxtb	r2, r3
    1be8:	2312      	movs	r3, #18
    1bea:	18fb      	adds	r3, r7, r3
    1bec:	801a      	strh	r2, [r3, #0]
    1bee:	697b      	ldr	r3, [r7, #20]
    1bf0:	7d9b      	ldrb	r3, [r3, #22]
    1bf2:	b2db      	uxtb	r3, r3
    1bf4:	b29a      	uxth	r2, r3
    1bf6:	2312      	movs	r3, #18
    1bf8:	18fb      	adds	r3, r7, r3
    1bfa:	2112      	movs	r1, #18
    1bfc:	1879      	adds	r1, r7, r1
    1bfe:	8809      	ldrh	r1, [r1, #0]
    1c00:	400a      	ands	r2, r1
    1c02:	801a      	strh	r2, [r3, #0]
    1c04:	69bb      	ldr	r3, [r7, #24]
    1c06:	2230      	movs	r2, #48	; 0x30
    1c08:	5c9b      	ldrb	r3, [r3, r2]
    1c0a:	69ba      	ldr	r2, [r7, #24]
    1c0c:	2131      	movs	r1, #49	; 0x31
    1c0e:	5c52      	ldrb	r2, [r2, r1]
    1c10:	4013      	ands	r3, r2
    1c12:	b2da      	uxtb	r2, r3
    1c14:	2310      	movs	r3, #16
    1c16:	18fb      	adds	r3, r7, r3
    1c18:	801a      	strh	r2, [r3, #0]
    1c1a:	2312      	movs	r3, #18
    1c1c:	18fb      	adds	r3, r7, r3
    1c1e:	881b      	ldrh	r3, [r3, #0]
    1c20:	2201      	movs	r2, #1
    1c22:	4013      	ands	r3, r2
    1c24:	d044      	beq.n	1cb0 <_usart_interrupt_handler+0xf4>
    1c26:	69bb      	ldr	r3, [r7, #24]
    1c28:	8ddb      	ldrh	r3, [r3, #46]	; 0x2e
    1c2a:	b29b      	uxth	r3, r3
    1c2c:	2b00      	cmp	r3, #0
    1c2e:	d03c      	beq.n	1caa <_usart_interrupt_handler+0xee>
    1c30:	69bb      	ldr	r3, [r7, #24]
    1c32:	6a9b      	ldr	r3, [r3, #40]	; 0x28
    1c34:	781b      	ldrb	r3, [r3, #0]
    1c36:	b2da      	uxtb	r2, r3
    1c38:	231c      	movs	r3, #28
    1c3a:	18fb      	adds	r3, r7, r3
    1c3c:	801a      	strh	r2, [r3, #0]
    1c3e:	69bb      	ldr	r3, [r7, #24]
    1c40:	6a9b      	ldr	r3, [r3, #40]	; 0x28
    1c42:	1c5a      	adds	r2, r3, #1
    1c44:	69bb      	ldr	r3, [r7, #24]
    1c46:	629a      	str	r2, [r3, #40]	; 0x28
    1c48:	69bb      	ldr	r3, [r7, #24]
    1c4a:	795b      	ldrb	r3, [r3, #5]
    1c4c:	2b01      	cmp	r3, #1
    1c4e:	d112      	bne.n	1c76 <_usart_interrupt_handler+0xba>
    1c50:	69bb      	ldr	r3, [r7, #24]
    1c52:	6a9b      	ldr	r3, [r3, #40]	; 0x28
    1c54:	781b      	ldrb	r3, [r3, #0]
    1c56:	b2db      	uxtb	r3, r3
    1c58:	021b      	lsls	r3, r3, #8
    1c5a:	b29a      	uxth	r2, r3
    1c5c:	231c      	movs	r3, #28
    1c5e:	18fb      	adds	r3, r7, r3
    1c60:	881b      	ldrh	r3, [r3, #0]
    1c62:	4313      	orrs	r3, r2
    1c64:	b29a      	uxth	r2, r3
    1c66:	231c      	movs	r3, #28
    1c68:	18fb      	adds	r3, r7, r3
    1c6a:	801a      	strh	r2, [r3, #0]
    1c6c:	69bb      	ldr	r3, [r7, #24]
    1c6e:	6a9b      	ldr	r3, [r3, #40]	; 0x28
    1c70:	1c5a      	adds	r2, r3, #1
    1c72:	69bb      	ldr	r3, [r7, #24]
    1c74:	629a      	str	r2, [r3, #40]	; 0x28
    1c76:	231c      	movs	r3, #28
    1c78:	18fb      	adds	r3, r7, r3
    1c7a:	881b      	ldrh	r3, [r3, #0]
    1c7c:	05db      	lsls	r3, r3, #23
    1c7e:	0ddb      	lsrs	r3, r3, #23
    1c80:	b29a      	uxth	r2, r3
    1c82:	697b      	ldr	r3, [r7, #20]
    1c84:	851a      	strh	r2, [r3, #40]	; 0x28
    1c86:	69bb      	ldr	r3, [r7, #24]
    1c88:	8ddb      	ldrh	r3, [r3, #46]	; 0x2e
    1c8a:	b29b      	uxth	r3, r3
    1c8c:	3b01      	subs	r3, #1
    1c8e:	b29b      	uxth	r3, r3
    1c90:	69ba      	ldr	r2, [r7, #24]
    1c92:	1c19      	adds	r1, r3, #0
    1c94:	85d1      	strh	r1, [r2, #46]	; 0x2e
    1c96:	2b00      	cmp	r3, #0
    1c98:	d106      	bne.n	1ca8 <_usart_interrupt_handler+0xec>
    1c9a:	697b      	ldr	r3, [r7, #20]
    1c9c:	2201      	movs	r2, #1
    1c9e:	751a      	strb	r2, [r3, #20]
    1ca0:	697b      	ldr	r3, [r7, #20]
    1ca2:	2202      	movs	r2, #2
    1ca4:	759a      	strb	r2, [r3, #22]
    1ca6:	e003      	b.n	1cb0 <_usart_interrupt_handler+0xf4>
    1ca8:	e002      	b.n	1cb0 <_usart_interrupt_handler+0xf4>
    1caa:	697b      	ldr	r3, [r7, #20]
    1cac:	2201      	movs	r2, #1
    1cae:	751a      	strb	r2, [r3, #20]
    1cb0:	2312      	movs	r3, #18
    1cb2:	18fb      	adds	r3, r7, r3
    1cb4:	881b      	ldrh	r3, [r3, #0]
    1cb6:	2202      	movs	r2, #2
    1cb8:	4013      	ands	r3, r2
    1cba:	d011      	beq.n	1ce0 <_usart_interrupt_handler+0x124>
    1cbc:	697b      	ldr	r3, [r7, #20]
    1cbe:	2202      	movs	r2, #2
    1cc0:	751a      	strb	r2, [r3, #20]
    1cc2:	69bb      	ldr	r3, [r7, #24]
    1cc4:	2233      	movs	r2, #51	; 0x33
    1cc6:	2100      	movs	r1, #0
    1cc8:	5499      	strb	r1, [r3, r2]
    1cca:	2310      	movs	r3, #16
    1ccc:	18fb      	adds	r3, r7, r3
    1cce:	881b      	ldrh	r3, [r3, #0]
    1cd0:	2201      	movs	r2, #1
    1cd2:	4013      	ands	r3, r2
    1cd4:	d004      	beq.n	1ce0 <_usart_interrupt_handler+0x124>
    1cd6:	69bb      	ldr	r3, [r7, #24]
    1cd8:	68db      	ldr	r3, [r3, #12]
    1cda:	69ba      	ldr	r2, [r7, #24]
    1cdc:	1c10      	adds	r0, r2, #0
    1cde:	4798      	blx	r3
    1ce0:	2312      	movs	r3, #18
    1ce2:	18fb      	adds	r3, r7, r3
    1ce4:	881b      	ldrh	r3, [r3, #0]
    1ce6:	2204      	movs	r2, #4
    1ce8:	4013      	ands	r3, r2
    1cea:	d100      	bne.n	1cee <_usart_interrupt_handler+0x132>
    1cec:	e0d7      	b.n	1e9e <_usart_interrupt_handler+0x2e2>
    1cee:	69bb      	ldr	r3, [r7, #24]
    1cf0:	8d9b      	ldrh	r3, [r3, #44]	; 0x2c
    1cf2:	b29b      	uxth	r3, r3
    1cf4:	2b00      	cmp	r3, #0
    1cf6:	d100      	bne.n	1cfa <_usart_interrupt_handler+0x13e>
    1cf8:	e0ce      	b.n	1e98 <_usart_interrupt_handler+0x2dc>
    1cfa:	697b      	ldr	r3, [r7, #20]
    1cfc:	8b5b      	ldrh	r3, [r3, #26]
    1cfe:	b29b      	uxth	r3, r3
    1d00:	b2da      	uxtb	r2, r3
    1d02:	231f      	movs	r3, #31
    1d04:	18fb      	adds	r3, r7, r3
    1d06:	213f      	movs	r1, #63	; 0x3f
    1d08:	400a      	ands	r2, r1
    1d0a:	701a      	strb	r2, [r3, #0]
    1d0c:	231f      	movs	r3, #31
    1d0e:	18fb      	adds	r3, r7, r3
    1d10:	781b      	ldrb	r3, [r3, #0]
    1d12:	2208      	movs	r2, #8
    1d14:	4013      	ands	r3, r2
    1d16:	d007      	beq.n	1d28 <_usart_interrupt_handler+0x16c>
    1d18:	231f      	movs	r3, #31
    1d1a:	18fb      	adds	r3, r7, r3
    1d1c:	221f      	movs	r2, #31
    1d1e:	18ba      	adds	r2, r7, r2
    1d20:	7812      	ldrb	r2, [r2, #0]
    1d22:	2108      	movs	r1, #8
    1d24:	438a      	bics	r2, r1
    1d26:	701a      	strb	r2, [r3, #0]
    1d28:	231f      	movs	r3, #31
    1d2a:	18fb      	adds	r3, r7, r3
    1d2c:	781b      	ldrb	r3, [r3, #0]
    1d2e:	2b00      	cmp	r3, #0
    1d30:	d100      	bne.n	1d34 <_usart_interrupt_handler+0x178>
    1d32:	e069      	b.n	1e08 <_usart_interrupt_handler+0x24c>
    1d34:	231f      	movs	r3, #31
    1d36:	18fb      	adds	r3, r7, r3
    1d38:	781b      	ldrb	r3, [r3, #0]
    1d3a:	2202      	movs	r2, #2
    1d3c:	4013      	ands	r3, r2
    1d3e:	d00c      	beq.n	1d5a <_usart_interrupt_handler+0x19e>
    1d40:	69bb      	ldr	r3, [r7, #24]
    1d42:	2232      	movs	r2, #50	; 0x32
    1d44:	211a      	movs	r1, #26
    1d46:	5499      	strb	r1, [r3, r2]
    1d48:	697b      	ldr	r3, [r7, #20]
    1d4a:	8b5b      	ldrh	r3, [r3, #26]
    1d4c:	b29b      	uxth	r3, r3
    1d4e:	2202      	movs	r2, #2
    1d50:	4313      	orrs	r3, r2
    1d52:	b29a      	uxth	r2, r3
    1d54:	697b      	ldr	r3, [r7, #20]
    1d56:	835a      	strh	r2, [r3, #26]
    1d58:	e04a      	b.n	1df0 <_usart_interrupt_handler+0x234>
    1d5a:	231f      	movs	r3, #31
    1d5c:	18fb      	adds	r3, r7, r3
    1d5e:	781b      	ldrb	r3, [r3, #0]
    1d60:	2204      	movs	r2, #4
    1d62:	4013      	ands	r3, r2
    1d64:	d00c      	beq.n	1d80 <_usart_interrupt_handler+0x1c4>
    1d66:	69bb      	ldr	r3, [r7, #24]
    1d68:	2232      	movs	r2, #50	; 0x32
    1d6a:	211e      	movs	r1, #30
    1d6c:	5499      	strb	r1, [r3, r2]
    1d6e:	697b      	ldr	r3, [r7, #20]
    1d70:	8b5b      	ldrh	r3, [r3, #26]
    1d72:	b29b      	uxth	r3, r3
    1d74:	2204      	movs	r2, #4
    1d76:	4313      	orrs	r3, r2
    1d78:	b29a      	uxth	r2, r3
    1d7a:	697b      	ldr	r3, [r7, #20]
    1d7c:	835a      	strh	r2, [r3, #26]
    1d7e:	e037      	b.n	1df0 <_usart_interrupt_handler+0x234>
    1d80:	231f      	movs	r3, #31
    1d82:	18fb      	adds	r3, r7, r3
    1d84:	781b      	ldrb	r3, [r3, #0]
    1d86:	2201      	movs	r2, #1
    1d88:	4013      	ands	r3, r2
    1d8a:	d00c      	beq.n	1da6 <_usart_interrupt_handler+0x1ea>
    1d8c:	69bb      	ldr	r3, [r7, #24]
    1d8e:	2232      	movs	r2, #50	; 0x32
    1d90:	2113      	movs	r1, #19
    1d92:	5499      	strb	r1, [r3, r2]
    1d94:	697b      	ldr	r3, [r7, #20]
    1d96:	8b5b      	ldrh	r3, [r3, #26]
    1d98:	b29b      	uxth	r3, r3
    1d9a:	2201      	movs	r2, #1
    1d9c:	4313      	orrs	r3, r2
    1d9e:	b29a      	uxth	r2, r3
    1da0:	697b      	ldr	r3, [r7, #20]
    1da2:	835a      	strh	r2, [r3, #26]
    1da4:	e024      	b.n	1df0 <_usart_interrupt_handler+0x234>
    1da6:	231f      	movs	r3, #31
    1da8:	18fb      	adds	r3, r7, r3
    1daa:	781b      	ldrb	r3, [r3, #0]
    1dac:	2210      	movs	r2, #16
    1dae:	4013      	ands	r3, r2
    1db0:	d00c      	beq.n	1dcc <_usart_interrupt_handler+0x210>
    1db2:	69bb      	ldr	r3, [r7, #24]
    1db4:	2232      	movs	r2, #50	; 0x32
    1db6:	2142      	movs	r1, #66	; 0x42
    1db8:	5499      	strb	r1, [r3, r2]
    1dba:	697b      	ldr	r3, [r7, #20]
    1dbc:	8b5b      	ldrh	r3, [r3, #26]
    1dbe:	b29b      	uxth	r3, r3
    1dc0:	2210      	movs	r2, #16
    1dc2:	4313      	orrs	r3, r2
    1dc4:	b29a      	uxth	r2, r3
    1dc6:	697b      	ldr	r3, [r7, #20]
    1dc8:	835a      	strh	r2, [r3, #26]
    1dca:	e011      	b.n	1df0 <_usart_interrupt_handler+0x234>
    1dcc:	231f      	movs	r3, #31
    1dce:	18fb      	adds	r3, r7, r3
    1dd0:	781b      	ldrb	r3, [r3, #0]
    1dd2:	2220      	movs	r2, #32
    1dd4:	4013      	ands	r3, r2
    1dd6:	d00b      	beq.n	1df0 <_usart_interrupt_handler+0x234>
    1dd8:	69bb      	ldr	r3, [r7, #24]
    1dda:	2232      	movs	r2, #50	; 0x32
    1ddc:	2141      	movs	r1, #65	; 0x41
    1dde:	5499      	strb	r1, [r3, r2]
    1de0:	697b      	ldr	r3, [r7, #20]
    1de2:	8b5b      	ldrh	r3, [r3, #26]
    1de4:	b29b      	uxth	r3, r3
    1de6:	2220      	movs	r2, #32
    1de8:	4313      	orrs	r3, r2
    1dea:	b29a      	uxth	r2, r3
    1dec:	697b      	ldr	r3, [r7, #20]
    1dee:	835a      	strh	r2, [r3, #26]
    1df0:	2310      	movs	r3, #16
    1df2:	18fb      	adds	r3, r7, r3
    1df4:	881b      	ldrh	r3, [r3, #0]
    1df6:	2204      	movs	r2, #4
    1df8:	4013      	ands	r3, r2
    1dfa:	d050      	beq.n	1e9e <_usart_interrupt_handler+0x2e2>
    1dfc:	69bb      	ldr	r3, [r7, #24]
    1dfe:	695b      	ldr	r3, [r3, #20]
    1e00:	69ba      	ldr	r2, [r7, #24]
    1e02:	1c10      	adds	r0, r2, #0
    1e04:	4798      	blx	r3
    1e06:	e04a      	b.n	1e9e <_usart_interrupt_handler+0x2e2>
    1e08:	697b      	ldr	r3, [r7, #20]
    1e0a:	8d1b      	ldrh	r3, [r3, #40]	; 0x28
    1e0c:	b29a      	uxth	r2, r3
    1e0e:	230e      	movs	r3, #14
    1e10:	18fb      	adds	r3, r7, r3
    1e12:	05d2      	lsls	r2, r2, #23
    1e14:	0dd2      	lsrs	r2, r2, #23
    1e16:	801a      	strh	r2, [r3, #0]
    1e18:	69bb      	ldr	r3, [r7, #24]
    1e1a:	6a5b      	ldr	r3, [r3, #36]	; 0x24
    1e1c:	220e      	movs	r2, #14
    1e1e:	18ba      	adds	r2, r7, r2
    1e20:	8812      	ldrh	r2, [r2, #0]
    1e22:	b2d2      	uxtb	r2, r2
    1e24:	701a      	strb	r2, [r3, #0]
    1e26:	69bb      	ldr	r3, [r7, #24]
    1e28:	6a5b      	ldr	r3, [r3, #36]	; 0x24
    1e2a:	1c5a      	adds	r2, r3, #1
    1e2c:	69bb      	ldr	r3, [r7, #24]
    1e2e:	625a      	str	r2, [r3, #36]	; 0x24
    1e30:	69bb      	ldr	r3, [r7, #24]
    1e32:	795b      	ldrb	r3, [r3, #5]
    1e34:	2b01      	cmp	r3, #1
    1e36:	d10d      	bne.n	1e54 <_usart_interrupt_handler+0x298>
    1e38:	69bb      	ldr	r3, [r7, #24]
    1e3a:	6a5b      	ldr	r3, [r3, #36]	; 0x24
    1e3c:	220e      	movs	r2, #14
    1e3e:	18ba      	adds	r2, r7, r2
    1e40:	8812      	ldrh	r2, [r2, #0]
    1e42:	0a12      	lsrs	r2, r2, #8
    1e44:	b292      	uxth	r2, r2
    1e46:	b2d2      	uxtb	r2, r2
    1e48:	701a      	strb	r2, [r3, #0]
    1e4a:	69bb      	ldr	r3, [r7, #24]
    1e4c:	6a5b      	ldr	r3, [r3, #36]	; 0x24
    1e4e:	1c5a      	adds	r2, r3, #1
    1e50:	69bb      	ldr	r3, [r7, #24]
    1e52:	625a      	str	r2, [r3, #36]	; 0x24
    1e54:	69bb      	ldr	r3, [r7, #24]
    1e56:	8d9b      	ldrh	r3, [r3, #44]	; 0x2c
    1e58:	b29b      	uxth	r3, r3
    1e5a:	3b01      	subs	r3, #1
    1e5c:	b29b      	uxth	r3, r3
    1e5e:	69ba      	ldr	r2, [r7, #24]
    1e60:	1c19      	adds	r1, r3, #0
    1e62:	8591      	strh	r1, [r2, #44]	; 0x2c
    1e64:	2b00      	cmp	r3, #0
    1e66:	d112      	bne.n	1e8e <_usart_interrupt_handler+0x2d2>
    1e68:	697b      	ldr	r3, [r7, #20]
    1e6a:	2204      	movs	r2, #4
    1e6c:	751a      	strb	r2, [r3, #20]
    1e6e:	69bb      	ldr	r3, [r7, #24]
    1e70:	2232      	movs	r2, #50	; 0x32
    1e72:	2100      	movs	r1, #0
    1e74:	5499      	strb	r1, [r3, r2]
    1e76:	2310      	movs	r3, #16
    1e78:	18fb      	adds	r3, r7, r3
    1e7a:	881b      	ldrh	r3, [r3, #0]
    1e7c:	2202      	movs	r2, #2
    1e7e:	4013      	ands	r3, r2
    1e80:	d005      	beq.n	1e8e <_usart_interrupt_handler+0x2d2>
    1e82:	69bb      	ldr	r3, [r7, #24]
    1e84:	691b      	ldr	r3, [r3, #16]
    1e86:	69ba      	ldr	r2, [r7, #24]
    1e88:	1c10      	adds	r0, r2, #0
    1e8a:	4798      	blx	r3
    1e8c:	e007      	b.n	1e9e <_usart_interrupt_handler+0x2e2>
    1e8e:	e006      	b.n	1e9e <_usart_interrupt_handler+0x2e2>
    1e90:	200001c8 	.word	0x200001c8
    1e94:	00001b9d 	.word	0x00001b9d
    1e98:	697b      	ldr	r3, [r7, #20]
    1e9a:	2204      	movs	r2, #4
    1e9c:	751a      	strb	r2, [r3, #20]
    1e9e:	2312      	movs	r3, #18
    1ea0:	18fb      	adds	r3, r7, r3
    1ea2:	881b      	ldrh	r3, [r3, #0]
    1ea4:	2210      	movs	r2, #16
    1ea6:	4013      	ands	r3, r2
    1ea8:	d010      	beq.n	1ecc <_usart_interrupt_handler+0x310>
    1eaa:	697b      	ldr	r3, [r7, #20]
    1eac:	2210      	movs	r2, #16
    1eae:	751a      	strb	r2, [r3, #20]
    1eb0:	697b      	ldr	r3, [r7, #20]
    1eb2:	2210      	movs	r2, #16
    1eb4:	761a      	strb	r2, [r3, #24]
    1eb6:	2310      	movs	r3, #16
    1eb8:	18fb      	adds	r3, r7, r3
    1eba:	881b      	ldrh	r3, [r3, #0]
    1ebc:	2210      	movs	r2, #16
    1ebe:	4013      	ands	r3, r2
    1ec0:	d004      	beq.n	1ecc <_usart_interrupt_handler+0x310>
    1ec2:	69bb      	ldr	r3, [r7, #24]
    1ec4:	69db      	ldr	r3, [r3, #28]
    1ec6:	69ba      	ldr	r2, [r7, #24]
    1ec8:	1c10      	adds	r0, r2, #0
    1eca:	4798      	blx	r3
    1ecc:	2312      	movs	r3, #18
    1ece:	18fb      	adds	r3, r7, r3
    1ed0:	881b      	ldrh	r3, [r3, #0]
    1ed2:	2220      	movs	r2, #32
    1ed4:	4013      	ands	r3, r2
    1ed6:	d010      	beq.n	1efa <_usart_interrupt_handler+0x33e>
    1ed8:	697b      	ldr	r3, [r7, #20]
    1eda:	2220      	movs	r2, #32
    1edc:	751a      	strb	r2, [r3, #20]
    1ede:	697b      	ldr	r3, [r7, #20]
    1ee0:	2220      	movs	r2, #32
    1ee2:	761a      	strb	r2, [r3, #24]
    1ee4:	2310      	movs	r3, #16
    1ee6:	18fb      	adds	r3, r7, r3
    1ee8:	881b      	ldrh	r3, [r3, #0]
    1eea:	2208      	movs	r2, #8
    1eec:	4013      	ands	r3, r2
    1eee:	d004      	beq.n	1efa <_usart_interrupt_handler+0x33e>
    1ef0:	69bb      	ldr	r3, [r7, #24]
    1ef2:	699b      	ldr	r3, [r3, #24]
    1ef4:	69ba      	ldr	r2, [r7, #24]
    1ef6:	1c10      	adds	r0, r2, #0
    1ef8:	4798      	blx	r3
    1efa:	2312      	movs	r3, #18
    1efc:	18fb      	adds	r3, r7, r3
    1efe:	881b      	ldrh	r3, [r3, #0]
    1f00:	2208      	movs	r2, #8
    1f02:	4013      	ands	r3, r2
    1f04:	d010      	beq.n	1f28 <_usart_interrupt_handler+0x36c>
    1f06:	697b      	ldr	r3, [r7, #20]
    1f08:	2208      	movs	r2, #8
    1f0a:	751a      	strb	r2, [r3, #20]
    1f0c:	697b      	ldr	r3, [r7, #20]
    1f0e:	2208      	movs	r2, #8
    1f10:	761a      	strb	r2, [r3, #24]
    1f12:	2310      	movs	r3, #16
    1f14:	18fb      	adds	r3, r7, r3
    1f16:	881b      	ldrh	r3, [r3, #0]
    1f18:	2220      	movs	r2, #32
    1f1a:	4013      	ands	r3, r2
    1f1c:	d004      	beq.n	1f28 <_usart_interrupt_handler+0x36c>
    1f1e:	69bb      	ldr	r3, [r7, #24]
    1f20:	6a1b      	ldr	r3, [r3, #32]
    1f22:	69ba      	ldr	r2, [r7, #24]
    1f24:	1c10      	adds	r0, r2, #0
    1f26:	4798      	blx	r3
    1f28:	46bd      	mov	sp, r7
    1f2a:	b008      	add	sp, #32
    1f2c:	bd80      	pop	{r7, pc}
    1f2e:	46c0      	nop			; (mov r8, r8)

00001f30 <_read>:
    1f30:	b580      	push	{r7, lr}
    1f32:	b086      	sub	sp, #24
    1f34:	af00      	add	r7, sp, #0
    1f36:	60f8      	str	r0, [r7, #12]
    1f38:	60b9      	str	r1, [r7, #8]
    1f3a:	607a      	str	r2, [r7, #4]
    1f3c:	2300      	movs	r3, #0
    1f3e:	617b      	str	r3, [r7, #20]
    1f40:	68fb      	ldr	r3, [r7, #12]
    1f42:	2b00      	cmp	r3, #0
    1f44:	d002      	beq.n	1f4c <_read+0x1c>
    1f46:	2301      	movs	r3, #1
    1f48:	425b      	negs	r3, r3
    1f4a:	e015      	b.n	1f78 <_read+0x48>
    1f4c:	e010      	b.n	1f70 <_read+0x40>
    1f4e:	4b0c      	ldr	r3, [pc, #48]	; (1f80 <_read+0x50>)
    1f50:	681a      	ldr	r2, [r3, #0]
    1f52:	4b0c      	ldr	r3, [pc, #48]	; (1f84 <_read+0x54>)
    1f54:	6819      	ldr	r1, [r3, #0]
    1f56:	68bb      	ldr	r3, [r7, #8]
    1f58:	1c08      	adds	r0, r1, #0
    1f5a:	1c19      	adds	r1, r3, #0
    1f5c:	4790      	blx	r2
    1f5e:	68bb      	ldr	r3, [r7, #8]
    1f60:	3301      	adds	r3, #1
    1f62:	60bb      	str	r3, [r7, #8]
    1f64:	697b      	ldr	r3, [r7, #20]
    1f66:	3301      	adds	r3, #1
    1f68:	617b      	str	r3, [r7, #20]
    1f6a:	687b      	ldr	r3, [r7, #4]
    1f6c:	3b01      	subs	r3, #1
    1f6e:	607b      	str	r3, [r7, #4]
    1f70:	687b      	ldr	r3, [r7, #4]
    1f72:	2b00      	cmp	r3, #0
    1f74:	dceb      	bgt.n	1f4e <_read+0x1e>
    1f76:	697b      	ldr	r3, [r7, #20]
    1f78:	1c18      	adds	r0, r3, #0
    1f7a:	46bd      	mov	sp, r7
    1f7c:	b006      	add	sp, #24
    1f7e:	bd80      	pop	{r7, pc}
    1f80:	200001e0 	.word	0x200001e0
    1f84:	200001e8 	.word	0x200001e8

00001f88 <_write>:
    1f88:	b580      	push	{r7, lr}
    1f8a:	b086      	sub	sp, #24
    1f8c:	af00      	add	r7, sp, #0
    1f8e:	60f8      	str	r0, [r7, #12]
    1f90:	60b9      	str	r1, [r7, #8]
    1f92:	607a      	str	r2, [r7, #4]
    1f94:	2300      	movs	r3, #0
    1f96:	617b      	str	r3, [r7, #20]
    1f98:	68fb      	ldr	r3, [r7, #12]
    1f9a:	2b01      	cmp	r3, #1
    1f9c:	d008      	beq.n	1fb0 <_write+0x28>
    1f9e:	68fb      	ldr	r3, [r7, #12]
    1fa0:	2b02      	cmp	r3, #2
    1fa2:	d005      	beq.n	1fb0 <_write+0x28>
    1fa4:	68fb      	ldr	r3, [r7, #12]
    1fa6:	2b03      	cmp	r3, #3
    1fa8:	d002      	beq.n	1fb0 <_write+0x28>
    1faa:	2301      	movs	r3, #1
    1fac:	425b      	negs	r3, r3
    1fae:	e019      	b.n	1fe4 <_write+0x5c>
    1fb0:	e014      	b.n	1fdc <_write+0x54>
    1fb2:	4b0e      	ldr	r3, [pc, #56]	; (1fec <_write+0x64>)
    1fb4:	681a      	ldr	r2, [r3, #0]
    1fb6:	4b0e      	ldr	r3, [pc, #56]	; (1ff0 <_write+0x68>)
    1fb8:	6818      	ldr	r0, [r3, #0]
    1fba:	68bb      	ldr	r3, [r7, #8]
    1fbc:	1c59      	adds	r1, r3, #1
    1fbe:	60b9      	str	r1, [r7, #8]
    1fc0:	781b      	ldrb	r3, [r3, #0]
    1fc2:	1c19      	adds	r1, r3, #0
    1fc4:	4790      	blx	r2
    1fc6:	1e03      	subs	r3, r0, #0
    1fc8:	da02      	bge.n	1fd0 <_write+0x48>
    1fca:	2301      	movs	r3, #1
    1fcc:	425b      	negs	r3, r3
    1fce:	e009      	b.n	1fe4 <_write+0x5c>
    1fd0:	697b      	ldr	r3, [r7, #20]
    1fd2:	3301      	adds	r3, #1
    1fd4:	617b      	str	r3, [r7, #20]
    1fd6:	687b      	ldr	r3, [r7, #4]
    1fd8:	3b01      	subs	r3, #1
    1fda:	607b      	str	r3, [r7, #4]
    1fdc:	687b      	ldr	r3, [r7, #4]
    1fde:	2b00      	cmp	r3, #0
    1fe0:	d1e7      	bne.n	1fb2 <_write+0x2a>
    1fe2:	697b      	ldr	r3, [r7, #20]
    1fe4:	1c18      	adds	r0, r3, #0
    1fe6:	46bd      	mov	sp, r7
    1fe8:	b006      	add	sp, #24
    1fea:	bd80      	pop	{r7, pc}
    1fec:	200001e4 	.word	0x200001e4
    1ff0:	200001e8 	.word	0x200001e8

00001ff4 <SVC_Handler>:
    1ff4:	b580      	push	{r7, lr}
    1ff6:	af00      	add	r7, sp, #0
    1ff8:	46bd      	mov	sp, r7
    1ffa:	bd80      	pop	{r7, pc}

00001ffc <ulSetInterruptMaskFromISR>:
    1ffc:	f3ef 8010 	mrs	r0, PRIMASK
    2000:	b672      	cpsid	i
    2002:	4770      	bx	lr
    2004:	2300      	movs	r3, #0
    2006:	1c18      	adds	r0, r3, #0

00002008 <vClearInterruptMaskFromISR>:
    2008:	f380 8810 	msr	PRIMASK, r0
    200c:	4770      	bx	lr
    200e:	46c0      	nop			; (mov r8, r8)

00002010 <PendSV_Handler>:
    2010:	f3ef 8009 	mrs	r0, PSP
    2014:	4b0e      	ldr	r3, [pc, #56]	; (2050 <pxCurrentTCBConst>)
    2016:	681a      	ldr	r2, [r3, #0]
    2018:	3820      	subs	r0, #32
    201a:	6010      	str	r0, [r2, #0]
    201c:	c0f0      	stmia	r0!, {r4, r5, r6, r7}
    201e:	4644      	mov	r4, r8
    2020:	464d      	mov	r5, r9
    2022:	4656      	mov	r6, sl
    2024:	465f      	mov	r7, fp
    2026:	c0f0      	stmia	r0!, {r4, r5, r6, r7}
    2028:	b508      	push	{r3, lr}
    202a:	b672      	cpsid	i
    202c:	f000 f936 	bl	229c <vTaskSwitchContext>
    2030:	b662      	cpsie	i
    2032:	bc0c      	pop	{r2, r3}
    2034:	6811      	ldr	r1, [r2, #0]
    2036:	6808      	ldr	r0, [r1, #0]
    2038:	3010      	adds	r0, #16
    203a:	c8f0      	ldmia	r0!, {r4, r5, r6, r7}
    203c:	46a0      	mov	r8, r4
    203e:	46a9      	mov	r9, r5
    2040:	46b2      	mov	sl, r6
    2042:	46bb      	mov	fp, r7
    2044:	f380 8809 	msr	PSP, r0
    2048:	3820      	subs	r0, #32
    204a:	c8f0      	ldmia	r0!, {r4, r5, r6, r7}
    204c:	4718      	bx	r3
    204e:	46c0      	nop			; (mov r8, r8)

00002050 <pxCurrentTCBConst>:
    2050:	200000ac 	.word	0x200000ac

00002054 <SysTick_Handler>:
    2054:	b580      	push	{r7, lr}
    2056:	b082      	sub	sp, #8
    2058:	af00      	add	r7, sp, #0
    205a:	4b09      	ldr	r3, [pc, #36]	; (2080 <SysTick_Handler+0x2c>)
    205c:	4798      	blx	r3
    205e:	1c03      	adds	r3, r0, #0
    2060:	607b      	str	r3, [r7, #4]
    2062:	4b08      	ldr	r3, [pc, #32]	; (2084 <SysTick_Handler+0x30>)
    2064:	4798      	blx	r3
    2066:	1e03      	subs	r3, r0, #0
    2068:	d003      	beq.n	2072 <SysTick_Handler+0x1e>
    206a:	4b07      	ldr	r3, [pc, #28]	; (2088 <SysTick_Handler+0x34>)
    206c:	2280      	movs	r2, #128	; 0x80
    206e:	0552      	lsls	r2, r2, #21
    2070:	601a      	str	r2, [r3, #0]
    2072:	687b      	ldr	r3, [r7, #4]
    2074:	1c18      	adds	r0, r3, #0
    2076:	4b05      	ldr	r3, [pc, #20]	; (208c <SysTick_Handler+0x38>)
    2078:	4798      	blx	r3
    207a:	46bd      	mov	sp, r7
    207c:	b002      	add	sp, #8
    207e:	bd80      	pop	{r7, pc}
    2080:	00001ffd 	.word	0x00001ffd
    2084:	00002125 	.word	0x00002125
    2088:	e000ed04 	.word	0xe000ed04
    208c:	00002009 	.word	0x00002009

00002090 <vListInsertEnd>:
    2090:	b580      	push	{r7, lr}
    2092:	b084      	sub	sp, #16
    2094:	af00      	add	r7, sp, #0
    2096:	6078      	str	r0, [r7, #4]
    2098:	6039      	str	r1, [r7, #0]
    209a:	687b      	ldr	r3, [r7, #4]
    209c:	685b      	ldr	r3, [r3, #4]
    209e:	60fb      	str	r3, [r7, #12]
    20a0:	683b      	ldr	r3, [r7, #0]
    20a2:	68fa      	ldr	r2, [r7, #12]
    20a4:	605a      	str	r2, [r3, #4]
    20a6:	68fb      	ldr	r3, [r7, #12]
    20a8:	689a      	ldr	r2, [r3, #8]
    20aa:	683b      	ldr	r3, [r7, #0]
    20ac:	609a      	str	r2, [r3, #8]
    20ae:	68fb      	ldr	r3, [r7, #12]
    20b0:	689b      	ldr	r3, [r3, #8]
    20b2:	683a      	ldr	r2, [r7, #0]
    20b4:	605a      	str	r2, [r3, #4]
    20b6:	68fb      	ldr	r3, [r7, #12]
    20b8:	683a      	ldr	r2, [r7, #0]
    20ba:	609a      	str	r2, [r3, #8]
    20bc:	683b      	ldr	r3, [r7, #0]
    20be:	687a      	ldr	r2, [r7, #4]
    20c0:	611a      	str	r2, [r3, #16]
    20c2:	687b      	ldr	r3, [r7, #4]
    20c4:	681b      	ldr	r3, [r3, #0]
    20c6:	1c5a      	adds	r2, r3, #1
    20c8:	687b      	ldr	r3, [r7, #4]
    20ca:	601a      	str	r2, [r3, #0]
    20cc:	46bd      	mov	sp, r7
    20ce:	b004      	add	sp, #16
    20d0:	bd80      	pop	{r7, pc}
    20d2:	46c0      	nop			; (mov r8, r8)

000020d4 <uxListRemove>:
    20d4:	b580      	push	{r7, lr}
    20d6:	b084      	sub	sp, #16
    20d8:	af00      	add	r7, sp, #0
    20da:	6078      	str	r0, [r7, #4]
    20dc:	687b      	ldr	r3, [r7, #4]
    20de:	691b      	ldr	r3, [r3, #16]
    20e0:	60fb      	str	r3, [r7, #12]
    20e2:	687b      	ldr	r3, [r7, #4]
    20e4:	685b      	ldr	r3, [r3, #4]
    20e6:	687a      	ldr	r2, [r7, #4]
    20e8:	6892      	ldr	r2, [r2, #8]
    20ea:	609a      	str	r2, [r3, #8]
    20ec:	687b      	ldr	r3, [r7, #4]
    20ee:	689b      	ldr	r3, [r3, #8]
    20f0:	687a      	ldr	r2, [r7, #4]
    20f2:	6852      	ldr	r2, [r2, #4]
    20f4:	605a      	str	r2, [r3, #4]
    20f6:	68fb      	ldr	r3, [r7, #12]
    20f8:	685a      	ldr	r2, [r3, #4]
    20fa:	687b      	ldr	r3, [r7, #4]
    20fc:	429a      	cmp	r2, r3
    20fe:	d103      	bne.n	2108 <uxListRemove+0x34>
    2100:	687b      	ldr	r3, [r7, #4]
    2102:	689a      	ldr	r2, [r3, #8]
    2104:	68fb      	ldr	r3, [r7, #12]
    2106:	605a      	str	r2, [r3, #4]
    2108:	687b      	ldr	r3, [r7, #4]
    210a:	2200      	movs	r2, #0
    210c:	611a      	str	r2, [r3, #16]
    210e:	68fb      	ldr	r3, [r7, #12]
    2110:	681b      	ldr	r3, [r3, #0]
    2112:	1e5a      	subs	r2, r3, #1
    2114:	68fb      	ldr	r3, [r7, #12]
    2116:	601a      	str	r2, [r3, #0]
    2118:	68fb      	ldr	r3, [r7, #12]
    211a:	681b      	ldr	r3, [r3, #0]
    211c:	1c18      	adds	r0, r3, #0
    211e:	46bd      	mov	sp, r7
    2120:	b004      	add	sp, #16
    2122:	bd80      	pop	{r7, pc}

00002124 <xTaskIncrementTick>:
    2124:	b580      	push	{r7, lr}
    2126:	b086      	sub	sp, #24
    2128:	af00      	add	r7, sp, #0
    212a:	2300      	movs	r3, #0
    212c:	617b      	str	r3, [r7, #20]
    212e:	4b4d      	ldr	r3, [pc, #308]	; (2264 <xTaskIncrementTick+0x140>)
    2130:	681b      	ldr	r3, [r3, #0]
    2132:	2b00      	cmp	r3, #0
    2134:	d000      	beq.n	2138 <xTaskIncrementTick+0x14>
    2136:	e084      	b.n	2242 <xTaskIncrementTick+0x11e>
    2138:	4b4b      	ldr	r3, [pc, #300]	; (2268 <xTaskIncrementTick+0x144>)
    213a:	681b      	ldr	r3, [r3, #0]
    213c:	1c5a      	adds	r2, r3, #1
    213e:	4b4a      	ldr	r3, [pc, #296]	; (2268 <xTaskIncrementTick+0x144>)
    2140:	601a      	str	r2, [r3, #0]
    2142:	4b49      	ldr	r3, [pc, #292]	; (2268 <xTaskIncrementTick+0x144>)
    2144:	681b      	ldr	r3, [r3, #0]
    2146:	613b      	str	r3, [r7, #16]
    2148:	693b      	ldr	r3, [r7, #16]
    214a:	2b00      	cmp	r3, #0
    214c:	d117      	bne.n	217e <xTaskIncrementTick+0x5a>
    214e:	4b47      	ldr	r3, [pc, #284]	; (226c <xTaskIncrementTick+0x148>)
    2150:	681b      	ldr	r3, [r3, #0]
    2152:	681b      	ldr	r3, [r3, #0]
    2154:	2b00      	cmp	r3, #0
    2156:	d001      	beq.n	215c <xTaskIncrementTick+0x38>
    2158:	b672      	cpsid	i
    215a:	e7fe      	b.n	215a <xTaskIncrementTick+0x36>
    215c:	4b43      	ldr	r3, [pc, #268]	; (226c <xTaskIncrementTick+0x148>)
    215e:	681b      	ldr	r3, [r3, #0]
    2160:	60fb      	str	r3, [r7, #12]
    2162:	4b43      	ldr	r3, [pc, #268]	; (2270 <xTaskIncrementTick+0x14c>)
    2164:	681a      	ldr	r2, [r3, #0]
    2166:	4b41      	ldr	r3, [pc, #260]	; (226c <xTaskIncrementTick+0x148>)
    2168:	601a      	str	r2, [r3, #0]
    216a:	4b41      	ldr	r3, [pc, #260]	; (2270 <xTaskIncrementTick+0x14c>)
    216c:	68fa      	ldr	r2, [r7, #12]
    216e:	601a      	str	r2, [r3, #0]
    2170:	4b40      	ldr	r3, [pc, #256]	; (2274 <xTaskIncrementTick+0x150>)
    2172:	681b      	ldr	r3, [r3, #0]
    2174:	1c5a      	adds	r2, r3, #1
    2176:	4b3f      	ldr	r3, [pc, #252]	; (2274 <xTaskIncrementTick+0x150>)
    2178:	601a      	str	r2, [r3, #0]
    217a:	4b3f      	ldr	r3, [pc, #252]	; (2278 <xTaskIncrementTick+0x154>)
    217c:	4798      	blx	r3
    217e:	4b3f      	ldr	r3, [pc, #252]	; (227c <xTaskIncrementTick+0x158>)
    2180:	681b      	ldr	r3, [r3, #0]
    2182:	693a      	ldr	r2, [r7, #16]
    2184:	429a      	cmp	r2, r3
    2186:	d34e      	bcc.n	2226 <xTaskIncrementTick+0x102>
    2188:	4b38      	ldr	r3, [pc, #224]	; (226c <xTaskIncrementTick+0x148>)
    218a:	681b      	ldr	r3, [r3, #0]
    218c:	681b      	ldr	r3, [r3, #0]
    218e:	2b00      	cmp	r3, #0
    2190:	d101      	bne.n	2196 <xTaskIncrementTick+0x72>
    2192:	2301      	movs	r3, #1
    2194:	e000      	b.n	2198 <xTaskIncrementTick+0x74>
    2196:	2300      	movs	r3, #0
    2198:	2b00      	cmp	r3, #0
    219a:	d004      	beq.n	21a6 <xTaskIncrementTick+0x82>
    219c:	4b37      	ldr	r3, [pc, #220]	; (227c <xTaskIncrementTick+0x158>)
    219e:	2201      	movs	r2, #1
    21a0:	4252      	negs	r2, r2
    21a2:	601a      	str	r2, [r3, #0]
    21a4:	e03f      	b.n	2226 <xTaskIncrementTick+0x102>
    21a6:	4b31      	ldr	r3, [pc, #196]	; (226c <xTaskIncrementTick+0x148>)
    21a8:	681b      	ldr	r3, [r3, #0]
    21aa:	68db      	ldr	r3, [r3, #12]
    21ac:	68db      	ldr	r3, [r3, #12]
    21ae:	60bb      	str	r3, [r7, #8]
    21b0:	68bb      	ldr	r3, [r7, #8]
    21b2:	685b      	ldr	r3, [r3, #4]
    21b4:	607b      	str	r3, [r7, #4]
    21b6:	693a      	ldr	r2, [r7, #16]
    21b8:	687b      	ldr	r3, [r7, #4]
    21ba:	429a      	cmp	r2, r3
    21bc:	d203      	bcs.n	21c6 <xTaskIncrementTick+0xa2>
    21be:	4b2f      	ldr	r3, [pc, #188]	; (227c <xTaskIncrementTick+0x158>)
    21c0:	687a      	ldr	r2, [r7, #4]
    21c2:	601a      	str	r2, [r3, #0]
    21c4:	e02f      	b.n	2226 <xTaskIncrementTick+0x102>
    21c6:	68bb      	ldr	r3, [r7, #8]
    21c8:	3304      	adds	r3, #4
    21ca:	1c18      	adds	r0, r3, #0
    21cc:	4b2c      	ldr	r3, [pc, #176]	; (2280 <xTaskIncrementTick+0x15c>)
    21ce:	4798      	blx	r3
    21d0:	68bb      	ldr	r3, [r7, #8]
    21d2:	6a9b      	ldr	r3, [r3, #40]	; 0x28
    21d4:	2b00      	cmp	r3, #0
    21d6:	d004      	beq.n	21e2 <xTaskIncrementTick+0xbe>
    21d8:	68bb      	ldr	r3, [r7, #8]
    21da:	3318      	adds	r3, #24
    21dc:	1c18      	adds	r0, r3, #0
    21de:	4b28      	ldr	r3, [pc, #160]	; (2280 <xTaskIncrementTick+0x15c>)
    21e0:	4798      	blx	r3
    21e2:	68bb      	ldr	r3, [r7, #8]
    21e4:	6ada      	ldr	r2, [r3, #44]	; 0x2c
    21e6:	4b27      	ldr	r3, [pc, #156]	; (2284 <xTaskIncrementTick+0x160>)
    21e8:	681b      	ldr	r3, [r3, #0]
    21ea:	429a      	cmp	r2, r3
    21ec:	d903      	bls.n	21f6 <xTaskIncrementTick+0xd2>
    21ee:	68bb      	ldr	r3, [r7, #8]
    21f0:	6ada      	ldr	r2, [r3, #44]	; 0x2c
    21f2:	4b24      	ldr	r3, [pc, #144]	; (2284 <xTaskIncrementTick+0x160>)
    21f4:	601a      	str	r2, [r3, #0]
    21f6:	68bb      	ldr	r3, [r7, #8]
    21f8:	6ada      	ldr	r2, [r3, #44]	; 0x2c
    21fa:	1c13      	adds	r3, r2, #0
    21fc:	009b      	lsls	r3, r3, #2
    21fe:	189b      	adds	r3, r3, r2
    2200:	009b      	lsls	r3, r3, #2
    2202:	4a21      	ldr	r2, [pc, #132]	; (2288 <xTaskIncrementTick+0x164>)
    2204:	189a      	adds	r2, r3, r2
    2206:	68bb      	ldr	r3, [r7, #8]
    2208:	3304      	adds	r3, #4
    220a:	1c10      	adds	r0, r2, #0
    220c:	1c19      	adds	r1, r3, #0
    220e:	4b1f      	ldr	r3, [pc, #124]	; (228c <xTaskIncrementTick+0x168>)
    2210:	4798      	blx	r3
    2212:	68bb      	ldr	r3, [r7, #8]
    2214:	6ada      	ldr	r2, [r3, #44]	; 0x2c
    2216:	4b1e      	ldr	r3, [pc, #120]	; (2290 <xTaskIncrementTick+0x16c>)
    2218:	681b      	ldr	r3, [r3, #0]
    221a:	6adb      	ldr	r3, [r3, #44]	; 0x2c
    221c:	429a      	cmp	r2, r3
    221e:	d301      	bcc.n	2224 <xTaskIncrementTick+0x100>
    2220:	2301      	movs	r3, #1
    2222:	617b      	str	r3, [r7, #20]
    2224:	e7b0      	b.n	2188 <xTaskIncrementTick+0x64>
    2226:	4b1a      	ldr	r3, [pc, #104]	; (2290 <xTaskIncrementTick+0x16c>)
    2228:	681b      	ldr	r3, [r3, #0]
    222a:	6ada      	ldr	r2, [r3, #44]	; 0x2c
    222c:	4916      	ldr	r1, [pc, #88]	; (2288 <xTaskIncrementTick+0x164>)
    222e:	1c13      	adds	r3, r2, #0
    2230:	009b      	lsls	r3, r3, #2
    2232:	189b      	adds	r3, r3, r2
    2234:	009b      	lsls	r3, r3, #2
    2236:	585b      	ldr	r3, [r3, r1]
    2238:	2b01      	cmp	r3, #1
    223a:	d907      	bls.n	224c <xTaskIncrementTick+0x128>
    223c:	2301      	movs	r3, #1
    223e:	617b      	str	r3, [r7, #20]
    2240:	e004      	b.n	224c <xTaskIncrementTick+0x128>
    2242:	4b14      	ldr	r3, [pc, #80]	; (2294 <xTaskIncrementTick+0x170>)
    2244:	681b      	ldr	r3, [r3, #0]
    2246:	1c5a      	adds	r2, r3, #1
    2248:	4b12      	ldr	r3, [pc, #72]	; (2294 <xTaskIncrementTick+0x170>)
    224a:	601a      	str	r2, [r3, #0]
    224c:	4b12      	ldr	r3, [pc, #72]	; (2298 <xTaskIncrementTick+0x174>)
    224e:	681b      	ldr	r3, [r3, #0]
    2250:	2b00      	cmp	r3, #0
    2252:	d001      	beq.n	2258 <xTaskIncrementTick+0x134>
    2254:	2301      	movs	r3, #1
    2256:	617b      	str	r3, [r7, #20]
    2258:	697b      	ldr	r3, [r7, #20]
    225a:	1c18      	adds	r0, r3, #0
    225c:	46bd      	mov	sp, r7
    225e:	b006      	add	sp, #24
    2260:	bd80      	pop	{r7, pc}
    2262:	46c0      	nop			; (mov r8, r8)
    2264:	20000130 	.word	0x20000130
    2268:	2000011c 	.word	0x2000011c
    226c:	20000114 	.word	0x20000114
    2270:	20000118 	.word	0x20000118
    2274:	2000012c 	.word	0x2000012c
    2278:	0000233d 	.word	0x0000233d
    227c:	20000004 	.word	0x20000004
    2280:	000020d5 	.word	0x000020d5
    2284:	20000120 	.word	0x20000120
    2288:	200000b0 	.word	0x200000b0
    228c:	00002091 	.word	0x00002091
    2290:	200000ac 	.word	0x200000ac
    2294:	20000124 	.word	0x20000124
    2298:	20000128 	.word	0x20000128

0000229c <vTaskSwitchContext>:
    229c:	b580      	push	{r7, lr}
    229e:	b082      	sub	sp, #8
    22a0:	af00      	add	r7, sp, #0
    22a2:	4b21      	ldr	r3, [pc, #132]	; (2328 <vTaskSwitchContext+0x8c>)
    22a4:	681b      	ldr	r3, [r3, #0]
    22a6:	2b00      	cmp	r3, #0
    22a8:	d003      	beq.n	22b2 <vTaskSwitchContext+0x16>
    22aa:	4b20      	ldr	r3, [pc, #128]	; (232c <vTaskSwitchContext+0x90>)
    22ac:	2201      	movs	r2, #1
    22ae:	601a      	str	r2, [r3, #0]
    22b0:	e036      	b.n	2320 <vTaskSwitchContext+0x84>
    22b2:	4b1e      	ldr	r3, [pc, #120]	; (232c <vTaskSwitchContext+0x90>)
    22b4:	2200      	movs	r2, #0
    22b6:	601a      	str	r2, [r3, #0]
    22b8:	e00a      	b.n	22d0 <vTaskSwitchContext+0x34>
    22ba:	4b1d      	ldr	r3, [pc, #116]	; (2330 <vTaskSwitchContext+0x94>)
    22bc:	681b      	ldr	r3, [r3, #0]
    22be:	2b00      	cmp	r3, #0
    22c0:	d101      	bne.n	22c6 <vTaskSwitchContext+0x2a>
    22c2:	b672      	cpsid	i
    22c4:	e7fe      	b.n	22c4 <vTaskSwitchContext+0x28>
    22c6:	4b1a      	ldr	r3, [pc, #104]	; (2330 <vTaskSwitchContext+0x94>)
    22c8:	681b      	ldr	r3, [r3, #0]
    22ca:	1e5a      	subs	r2, r3, #1
    22cc:	4b18      	ldr	r3, [pc, #96]	; (2330 <vTaskSwitchContext+0x94>)
    22ce:	601a      	str	r2, [r3, #0]
    22d0:	4b17      	ldr	r3, [pc, #92]	; (2330 <vTaskSwitchContext+0x94>)
    22d2:	681a      	ldr	r2, [r3, #0]
    22d4:	4917      	ldr	r1, [pc, #92]	; (2334 <vTaskSwitchContext+0x98>)
    22d6:	1c13      	adds	r3, r2, #0
    22d8:	009b      	lsls	r3, r3, #2
    22da:	189b      	adds	r3, r3, r2
    22dc:	009b      	lsls	r3, r3, #2
    22de:	585b      	ldr	r3, [r3, r1]
    22e0:	2b00      	cmp	r3, #0
    22e2:	d0ea      	beq.n	22ba <vTaskSwitchContext+0x1e>
    22e4:	4b12      	ldr	r3, [pc, #72]	; (2330 <vTaskSwitchContext+0x94>)
    22e6:	681a      	ldr	r2, [r3, #0]
    22e8:	1c13      	adds	r3, r2, #0
    22ea:	009b      	lsls	r3, r3, #2
    22ec:	189b      	adds	r3, r3, r2
    22ee:	009b      	lsls	r3, r3, #2
    22f0:	4a10      	ldr	r2, [pc, #64]	; (2334 <vTaskSwitchContext+0x98>)
    22f2:	189b      	adds	r3, r3, r2
    22f4:	607b      	str	r3, [r7, #4]
    22f6:	687b      	ldr	r3, [r7, #4]
    22f8:	685b      	ldr	r3, [r3, #4]
    22fa:	685a      	ldr	r2, [r3, #4]
    22fc:	687b      	ldr	r3, [r7, #4]
    22fe:	605a      	str	r2, [r3, #4]
    2300:	687b      	ldr	r3, [r7, #4]
    2302:	685a      	ldr	r2, [r3, #4]
    2304:	687b      	ldr	r3, [r7, #4]
    2306:	3308      	adds	r3, #8
    2308:	429a      	cmp	r2, r3
    230a:	d104      	bne.n	2316 <vTaskSwitchContext+0x7a>
    230c:	687b      	ldr	r3, [r7, #4]
    230e:	685b      	ldr	r3, [r3, #4]
    2310:	685a      	ldr	r2, [r3, #4]
    2312:	687b      	ldr	r3, [r7, #4]
    2314:	605a      	str	r2, [r3, #4]
    2316:	687b      	ldr	r3, [r7, #4]
    2318:	685b      	ldr	r3, [r3, #4]
    231a:	68da      	ldr	r2, [r3, #12]
    231c:	4b06      	ldr	r3, [pc, #24]	; (2338 <vTaskSwitchContext+0x9c>)
    231e:	601a      	str	r2, [r3, #0]
    2320:	46bd      	mov	sp, r7
    2322:	b002      	add	sp, #8
    2324:	bd80      	pop	{r7, pc}
    2326:	46c0      	nop			; (mov r8, r8)
    2328:	20000130 	.word	0x20000130
    232c:	20000128 	.word	0x20000128
    2330:	20000120 	.word	0x20000120
    2334:	200000b0 	.word	0x200000b0
    2338:	200000ac 	.word	0x200000ac

0000233c <prvResetNextTaskUnblockTime>:
    233c:	b580      	push	{r7, lr}
    233e:	b082      	sub	sp, #8
    2340:	af00      	add	r7, sp, #0
    2342:	4b0d      	ldr	r3, [pc, #52]	; (2378 <prvResetNextTaskUnblockTime+0x3c>)
    2344:	681b      	ldr	r3, [r3, #0]
    2346:	681b      	ldr	r3, [r3, #0]
    2348:	2b00      	cmp	r3, #0
    234a:	d101      	bne.n	2350 <prvResetNextTaskUnblockTime+0x14>
    234c:	2301      	movs	r3, #1
    234e:	e000      	b.n	2352 <prvResetNextTaskUnblockTime+0x16>
    2350:	2300      	movs	r3, #0
    2352:	2b00      	cmp	r3, #0
    2354:	d004      	beq.n	2360 <prvResetNextTaskUnblockTime+0x24>
    2356:	4b09      	ldr	r3, [pc, #36]	; (237c <prvResetNextTaskUnblockTime+0x40>)
    2358:	2201      	movs	r2, #1
    235a:	4252      	negs	r2, r2
    235c:	601a      	str	r2, [r3, #0]
    235e:	e008      	b.n	2372 <prvResetNextTaskUnblockTime+0x36>
    2360:	4b05      	ldr	r3, [pc, #20]	; (2378 <prvResetNextTaskUnblockTime+0x3c>)
    2362:	681b      	ldr	r3, [r3, #0]
    2364:	68db      	ldr	r3, [r3, #12]
    2366:	68db      	ldr	r3, [r3, #12]
    2368:	607b      	str	r3, [r7, #4]
    236a:	687b      	ldr	r3, [r7, #4]
    236c:	685a      	ldr	r2, [r3, #4]
    236e:	4b03      	ldr	r3, [pc, #12]	; (237c <prvResetNextTaskUnblockTime+0x40>)
    2370:	601a      	str	r2, [r3, #0]
    2372:	46bd      	mov	sp, r7
    2374:	b002      	add	sp, #8
    2376:	bd80      	pop	{r7, pc}
    2378:	20000114 	.word	0x20000114
    237c:	20000004 	.word	0x20000004

00002380 <system_pinmux_get_group_from_gpio_pin>:
    2380:	b580      	push	{r7, lr}
    2382:	b084      	sub	sp, #16
    2384:	af00      	add	r7, sp, #0
    2386:	1c02      	adds	r2, r0, #0
    2388:	1dfb      	adds	r3, r7, #7
    238a:	701a      	strb	r2, [r3, #0]
    238c:	230f      	movs	r3, #15
    238e:	18fb      	adds	r3, r7, r3
    2390:	1dfa      	adds	r2, r7, #7
    2392:	7812      	ldrb	r2, [r2, #0]
    2394:	09d2      	lsrs	r2, r2, #7
    2396:	701a      	strb	r2, [r3, #0]
    2398:	230e      	movs	r3, #14
    239a:	18fb      	adds	r3, r7, r3
    239c:	1dfa      	adds	r2, r7, #7
    239e:	7812      	ldrb	r2, [r2, #0]
    23a0:	0952      	lsrs	r2, r2, #5
    23a2:	701a      	strb	r2, [r3, #0]
    23a4:	4b0d      	ldr	r3, [pc, #52]	; (23dc <system_pinmux_get_group_from_gpio_pin+0x5c>)
    23a6:	60bb      	str	r3, [r7, #8]
    23a8:	230f      	movs	r3, #15
    23aa:	18fb      	adds	r3, r7, r3
    23ac:	781b      	ldrb	r3, [r3, #0]
    23ae:	2b00      	cmp	r3, #0
    23b0:	d10f      	bne.n	23d2 <system_pinmux_get_group_from_gpio_pin+0x52>
    23b2:	230f      	movs	r3, #15
    23b4:	18fb      	adds	r3, r7, r3
    23b6:	781b      	ldrb	r3, [r3, #0]
    23b8:	009b      	lsls	r3, r3, #2
    23ba:	2210      	movs	r2, #16
    23bc:	4694      	mov	ip, r2
    23be:	44bc      	add	ip, r7
    23c0:	4463      	add	r3, ip
    23c2:	3b08      	subs	r3, #8
    23c4:	681a      	ldr	r2, [r3, #0]
    23c6:	230e      	movs	r3, #14
    23c8:	18fb      	adds	r3, r7, r3
    23ca:	781b      	ldrb	r3, [r3, #0]
    23cc:	01db      	lsls	r3, r3, #7
    23ce:	18d3      	adds	r3, r2, r3
    23d0:	e000      	b.n	23d4 <system_pinmux_get_group_from_gpio_pin+0x54>
    23d2:	2300      	movs	r3, #0
    23d4:	1c18      	adds	r0, r3, #0
    23d6:	46bd      	mov	sp, r7
    23d8:	b004      	add	sp, #16
    23da:	bd80      	pop	{r7, pc}
    23dc:	41004400 	.word	0x41004400

000023e0 <port_get_group_from_gpio_pin>:
    23e0:	b580      	push	{r7, lr}
    23e2:	b082      	sub	sp, #8
    23e4:	af00      	add	r7, sp, #0
    23e6:	1c02      	adds	r2, r0, #0
    23e8:	1dfb      	adds	r3, r7, #7
    23ea:	701a      	strb	r2, [r3, #0]
    23ec:	1dfb      	adds	r3, r7, #7
    23ee:	781b      	ldrb	r3, [r3, #0]
    23f0:	1c18      	adds	r0, r3, #0
    23f2:	4b03      	ldr	r3, [pc, #12]	; (2400 <port_get_group_from_gpio_pin+0x20>)
    23f4:	4798      	blx	r3
    23f6:	1c03      	adds	r3, r0, #0
    23f8:	1c18      	adds	r0, r3, #0
    23fa:	46bd      	mov	sp, r7
    23fc:	b002      	add	sp, #8
    23fe:	bd80      	pop	{r7, pc}
    2400:	00002381 	.word	0x00002381

00002404 <port_get_config_defaults>:
    2404:	b580      	push	{r7, lr}
    2406:	b082      	sub	sp, #8
    2408:	af00      	add	r7, sp, #0
    240a:	6078      	str	r0, [r7, #4]
    240c:	687b      	ldr	r3, [r7, #4]
    240e:	2200      	movs	r2, #0
    2410:	701a      	strb	r2, [r3, #0]
    2412:	687b      	ldr	r3, [r7, #4]
    2414:	2201      	movs	r2, #1
    2416:	705a      	strb	r2, [r3, #1]
    2418:	687b      	ldr	r3, [r7, #4]
    241a:	2200      	movs	r2, #0
    241c:	709a      	strb	r2, [r3, #2]
    241e:	46bd      	mov	sp, r7
    2420:	b002      	add	sp, #8
    2422:	bd80      	pop	{r7, pc}

00002424 <port_pin_set_output_level>:
    2424:	b580      	push	{r7, lr}
    2426:	b084      	sub	sp, #16
    2428:	af00      	add	r7, sp, #0
    242a:	1c02      	adds	r2, r0, #0
    242c:	1dfb      	adds	r3, r7, #7
    242e:	701a      	strb	r2, [r3, #0]
    2430:	1dbb      	adds	r3, r7, #6
    2432:	1c0a      	adds	r2, r1, #0
    2434:	701a      	strb	r2, [r3, #0]
    2436:	1dfb      	adds	r3, r7, #7
    2438:	781b      	ldrb	r3, [r3, #0]
    243a:	1c18      	adds	r0, r3, #0
    243c:	4b0c      	ldr	r3, [pc, #48]	; (2470 <port_pin_set_output_level+0x4c>)
    243e:	4798      	blx	r3
    2440:	1c03      	adds	r3, r0, #0
    2442:	60fb      	str	r3, [r7, #12]
    2444:	1dfb      	adds	r3, r7, #7
    2446:	781b      	ldrb	r3, [r3, #0]
    2448:	221f      	movs	r2, #31
    244a:	4013      	ands	r3, r2
    244c:	2201      	movs	r2, #1
    244e:	409a      	lsls	r2, r3
    2450:	1c13      	adds	r3, r2, #0
    2452:	60bb      	str	r3, [r7, #8]
    2454:	1dbb      	adds	r3, r7, #6
    2456:	781b      	ldrb	r3, [r3, #0]
    2458:	2b00      	cmp	r3, #0
    245a:	d003      	beq.n	2464 <port_pin_set_output_level+0x40>
    245c:	68fb      	ldr	r3, [r7, #12]
    245e:	68ba      	ldr	r2, [r7, #8]
    2460:	619a      	str	r2, [r3, #24]
    2462:	e002      	b.n	246a <port_pin_set_output_level+0x46>
    2464:	68fb      	ldr	r3, [r7, #12]
    2466:	68ba      	ldr	r2, [r7, #8]
    2468:	615a      	str	r2, [r3, #20]
    246a:	46bd      	mov	sp, r7
    246c:	b004      	add	sp, #16
    246e:	bd80      	pop	{r7, pc}
    2470:	000023e1 	.word	0x000023e1

00002474 <system_board_init>:
    2474:	b580      	push	{r7, lr}
    2476:	b082      	sub	sp, #8
    2478:	af00      	add	r7, sp, #0
    247a:	1d3b      	adds	r3, r7, #4
    247c:	1c18      	adds	r0, r3, #0
    247e:	4b0e      	ldr	r3, [pc, #56]	; (24b8 <system_board_init+0x44>)
    2480:	4798      	blx	r3
    2482:	1d3b      	adds	r3, r7, #4
    2484:	2201      	movs	r2, #1
    2486:	701a      	strb	r2, [r3, #0]
    2488:	1d3b      	adds	r3, r7, #4
    248a:	203e      	movs	r0, #62	; 0x3e
    248c:	1c19      	adds	r1, r3, #0
    248e:	4b0b      	ldr	r3, [pc, #44]	; (24bc <system_board_init+0x48>)
    2490:	4798      	blx	r3
    2492:	203e      	movs	r0, #62	; 0x3e
    2494:	2101      	movs	r1, #1
    2496:	4b0a      	ldr	r3, [pc, #40]	; (24c0 <system_board_init+0x4c>)
    2498:	4798      	blx	r3
    249a:	1d3b      	adds	r3, r7, #4
    249c:	2200      	movs	r2, #0
    249e:	701a      	strb	r2, [r3, #0]
    24a0:	1d3b      	adds	r3, r7, #4
    24a2:	2201      	movs	r2, #1
    24a4:	705a      	strb	r2, [r3, #1]
    24a6:	1d3b      	adds	r3, r7, #4
    24a8:	200f      	movs	r0, #15
    24aa:	1c19      	adds	r1, r3, #0
    24ac:	4b03      	ldr	r3, [pc, #12]	; (24bc <system_board_init+0x48>)
    24ae:	4798      	blx	r3
    24b0:	46bd      	mov	sp, r7
    24b2:	b002      	add	sp, #8
    24b4:	bd80      	pop	{r7, pc}
    24b6:	46c0      	nop			; (mov r8, r8)
    24b8:	00002405 	.word	0x00002405
    24bc:	000024ed 	.word	0x000024ed
    24c0:	00002425 	.word	0x00002425

000024c4 <system_pinmux_get_config_defaults>:
    24c4:	b580      	push	{r7, lr}
    24c6:	b082      	sub	sp, #8
    24c8:	af00      	add	r7, sp, #0
    24ca:	6078      	str	r0, [r7, #4]
    24cc:	687b      	ldr	r3, [r7, #4]
    24ce:	2280      	movs	r2, #128	; 0x80
    24d0:	701a      	strb	r2, [r3, #0]
    24d2:	687b      	ldr	r3, [r7, #4]
    24d4:	2200      	movs	r2, #0
    24d6:	705a      	strb	r2, [r3, #1]
    24d8:	687b      	ldr	r3, [r7, #4]
    24da:	2201      	movs	r2, #1
    24dc:	709a      	strb	r2, [r3, #2]
    24de:	687b      	ldr	r3, [r7, #4]
    24e0:	2200      	movs	r2, #0
    24e2:	70da      	strb	r2, [r3, #3]
    24e4:	46bd      	mov	sp, r7
    24e6:	b002      	add	sp, #8
    24e8:	bd80      	pop	{r7, pc}
    24ea:	46c0      	nop			; (mov r8, r8)

000024ec <port_pin_set_config>:
    24ec:	b580      	push	{r7, lr}
    24ee:	b084      	sub	sp, #16
    24f0:	af00      	add	r7, sp, #0
    24f2:	1c02      	adds	r2, r0, #0
    24f4:	6039      	str	r1, [r7, #0]
    24f6:	1dfb      	adds	r3, r7, #7
    24f8:	701a      	strb	r2, [r3, #0]
    24fa:	230c      	movs	r3, #12
    24fc:	18fb      	adds	r3, r7, r3
    24fe:	1c18      	adds	r0, r3, #0
    2500:	4b0f      	ldr	r3, [pc, #60]	; (2540 <port_pin_set_config+0x54>)
    2502:	4798      	blx	r3
    2504:	230c      	movs	r3, #12
    2506:	18fb      	adds	r3, r7, r3
    2508:	2280      	movs	r2, #128	; 0x80
    250a:	701a      	strb	r2, [r3, #0]
    250c:	683b      	ldr	r3, [r7, #0]
    250e:	781a      	ldrb	r2, [r3, #0]
    2510:	230c      	movs	r3, #12
    2512:	18fb      	adds	r3, r7, r3
    2514:	705a      	strb	r2, [r3, #1]
    2516:	683b      	ldr	r3, [r7, #0]
    2518:	785a      	ldrb	r2, [r3, #1]
    251a:	230c      	movs	r3, #12
    251c:	18fb      	adds	r3, r7, r3
    251e:	709a      	strb	r2, [r3, #2]
    2520:	683b      	ldr	r3, [r7, #0]
    2522:	789a      	ldrb	r2, [r3, #2]
    2524:	230c      	movs	r3, #12
    2526:	18fb      	adds	r3, r7, r3
    2528:	70da      	strb	r2, [r3, #3]
    252a:	1dfb      	adds	r3, r7, #7
    252c:	781a      	ldrb	r2, [r3, #0]
    252e:	230c      	movs	r3, #12
    2530:	18fb      	adds	r3, r7, r3
    2532:	1c10      	adds	r0, r2, #0
    2534:	1c19      	adds	r1, r3, #0
    2536:	4b03      	ldr	r3, [pc, #12]	; (2544 <port_pin_set_config+0x58>)
    2538:	4798      	blx	r3
    253a:	46bd      	mov	sp, r7
    253c:	b004      	add	sp, #16
    253e:	bd80      	pop	{r7, pc}
    2540:	000024c5 	.word	0x000024c5
    2544:	00002f5d 	.word	0x00002f5d

00002548 <system_gclk_gen_get_config_defaults>:
    2548:	b580      	push	{r7, lr}
    254a:	b082      	sub	sp, #8
    254c:	af00      	add	r7, sp, #0
    254e:	6078      	str	r0, [r7, #4]
    2550:	687b      	ldr	r3, [r7, #4]
    2552:	2201      	movs	r2, #1
    2554:	605a      	str	r2, [r3, #4]
    2556:	687b      	ldr	r3, [r7, #4]
    2558:	2200      	movs	r2, #0
    255a:	705a      	strb	r2, [r3, #1]
    255c:	687b      	ldr	r3, [r7, #4]
    255e:	2206      	movs	r2, #6
    2560:	701a      	strb	r2, [r3, #0]
    2562:	687b      	ldr	r3, [r7, #4]
    2564:	2200      	movs	r2, #0
    2566:	721a      	strb	r2, [r3, #8]
    2568:	687b      	ldr	r3, [r7, #4]
    256a:	2200      	movs	r2, #0
    256c:	725a      	strb	r2, [r3, #9]
    256e:	46bd      	mov	sp, r7
    2570:	b002      	add	sp, #8
    2572:	bd80      	pop	{r7, pc}

00002574 <system_clock_source_osc8m_get_config_defaults>:
    2574:	b580      	push	{r7, lr}
    2576:	b082      	sub	sp, #8
    2578:	af00      	add	r7, sp, #0
    257a:	6078      	str	r0, [r7, #4]
    257c:	687b      	ldr	r3, [r7, #4]
    257e:	2203      	movs	r2, #3
    2580:	701a      	strb	r2, [r3, #0]
    2582:	687b      	ldr	r3, [r7, #4]
    2584:	2200      	movs	r2, #0
    2586:	705a      	strb	r2, [r3, #1]
    2588:	687b      	ldr	r3, [r7, #4]
    258a:	2201      	movs	r2, #1
    258c:	709a      	strb	r2, [r3, #2]
    258e:	46bd      	mov	sp, r7
    2590:	b002      	add	sp, #8
    2592:	bd80      	pop	{r7, pc}

00002594 <system_cpu_clock_set_divider>:
    2594:	b580      	push	{r7, lr}
    2596:	b082      	sub	sp, #8
    2598:	af00      	add	r7, sp, #0
    259a:	1c02      	adds	r2, r0, #0
    259c:	1dfb      	adds	r3, r7, #7
    259e:	701a      	strb	r2, [r3, #0]
    25a0:	4a03      	ldr	r2, [pc, #12]	; (25b0 <system_cpu_clock_set_divider+0x1c>)
    25a2:	1dfb      	adds	r3, r7, #7
    25a4:	781b      	ldrb	r3, [r3, #0]
    25a6:	7213      	strb	r3, [r2, #8]
    25a8:	46bd      	mov	sp, r7
    25aa:	b002      	add	sp, #8
    25ac:	bd80      	pop	{r7, pc}
    25ae:	46c0      	nop			; (mov r8, r8)
    25b0:	40000400 	.word	0x40000400

000025b4 <system_apb_clock_set_divider>:
    25b4:	b580      	push	{r7, lr}
    25b6:	b082      	sub	sp, #8
    25b8:	af00      	add	r7, sp, #0
    25ba:	1c02      	adds	r2, r0, #0
    25bc:	1dfb      	adds	r3, r7, #7
    25be:	701a      	strb	r2, [r3, #0]
    25c0:	1dbb      	adds	r3, r7, #6
    25c2:	1c0a      	adds	r2, r1, #0
    25c4:	701a      	strb	r2, [r3, #0]
    25c6:	1dfb      	adds	r3, r7, #7
    25c8:	781b      	ldrb	r3, [r3, #0]
    25ca:	2b01      	cmp	r3, #1
    25cc:	d008      	beq.n	25e0 <system_apb_clock_set_divider+0x2c>
    25ce:	2b02      	cmp	r3, #2
    25d0:	d00b      	beq.n	25ea <system_apb_clock_set_divider+0x36>
    25d2:	2b00      	cmp	r3, #0
    25d4:	d10e      	bne.n	25f4 <system_apb_clock_set_divider+0x40>
    25d6:	4a0b      	ldr	r2, [pc, #44]	; (2604 <system_apb_clock_set_divider+0x50>)
    25d8:	1dbb      	adds	r3, r7, #6
    25da:	781b      	ldrb	r3, [r3, #0]
    25dc:	7253      	strb	r3, [r2, #9]
    25de:	e00b      	b.n	25f8 <system_apb_clock_set_divider+0x44>
    25e0:	4a08      	ldr	r2, [pc, #32]	; (2604 <system_apb_clock_set_divider+0x50>)
    25e2:	1dbb      	adds	r3, r7, #6
    25e4:	781b      	ldrb	r3, [r3, #0]
    25e6:	7293      	strb	r3, [r2, #10]
    25e8:	e006      	b.n	25f8 <system_apb_clock_set_divider+0x44>
    25ea:	4a06      	ldr	r2, [pc, #24]	; (2604 <system_apb_clock_set_divider+0x50>)
    25ec:	1dbb      	adds	r3, r7, #6
    25ee:	781b      	ldrb	r3, [r3, #0]
    25f0:	72d3      	strb	r3, [r2, #11]
    25f2:	e001      	b.n	25f8 <system_apb_clock_set_divider+0x44>
    25f4:	2317      	movs	r3, #23
    25f6:	e000      	b.n	25fa <system_apb_clock_set_divider+0x46>
    25f8:	2300      	movs	r3, #0
    25fa:	1c18      	adds	r0, r3, #0
    25fc:	46bd      	mov	sp, r7
    25fe:	b002      	add	sp, #8
    2600:	bd80      	pop	{r7, pc}
    2602:	46c0      	nop			; (mov r8, r8)
    2604:	40000400 	.word	0x40000400

00002608 <system_flash_set_waitstates>:
    2608:	b580      	push	{r7, lr}
    260a:	b082      	sub	sp, #8
    260c:	af00      	add	r7, sp, #0
    260e:	1c02      	adds	r2, r0, #0
    2610:	1dfb      	adds	r3, r7, #7
    2612:	701a      	strb	r2, [r3, #0]
    2614:	4b08      	ldr	r3, [pc, #32]	; (2638 <system_flash_set_waitstates+0x30>)
    2616:	1dfa      	adds	r2, r7, #7
    2618:	7812      	ldrb	r2, [r2, #0]
    261a:	210f      	movs	r1, #15
    261c:	400a      	ands	r2, r1
    261e:	b2d2      	uxtb	r2, r2
    2620:	210f      	movs	r1, #15
    2622:	400a      	ands	r2, r1
    2624:	0052      	lsls	r2, r2, #1
    2626:	6859      	ldr	r1, [r3, #4]
    2628:	201e      	movs	r0, #30
    262a:	4381      	bics	r1, r0
    262c:	430a      	orrs	r2, r1
    262e:	605a      	str	r2, [r3, #4]
    2630:	46bd      	mov	sp, r7
    2632:	b002      	add	sp, #8
    2634:	bd80      	pop	{r7, pc}
    2636:	46c0      	nop			; (mov r8, r8)
    2638:	41004000 	.word	0x41004000

0000263c <_system_dfll_wait_for_sync>:
    263c:	b580      	push	{r7, lr}
    263e:	af00      	add	r7, sp, #0
    2640:	46c0      	nop			; (mov r8, r8)
    2642:	4b03      	ldr	r3, [pc, #12]	; (2650 <_system_dfll_wait_for_sync+0x14>)
    2644:	68db      	ldr	r3, [r3, #12]
    2646:	2210      	movs	r2, #16
    2648:	4013      	ands	r3, r2
    264a:	d0fa      	beq.n	2642 <_system_dfll_wait_for_sync+0x6>
    264c:	46bd      	mov	sp, r7
    264e:	bd80      	pop	{r7, pc}
    2650:	40000800 	.word	0x40000800

00002654 <_system_clock_source_dfll_set_config_errata_9905>:
    2654:	b580      	push	{r7, lr}
    2656:	af00      	add	r7, sp, #0
    2658:	4a0c      	ldr	r2, [pc, #48]	; (268c <_system_clock_source_dfll_set_config_errata_9905+0x38>)
    265a:	4b0d      	ldr	r3, [pc, #52]	; (2690 <_system_clock_source_dfll_set_config_errata_9905+0x3c>)
    265c:	681b      	ldr	r3, [r3, #0]
    265e:	b29b      	uxth	r3, r3
    2660:	2180      	movs	r1, #128	; 0x80
    2662:	438b      	bics	r3, r1
    2664:	b29b      	uxth	r3, r3
    2666:	8493      	strh	r3, [r2, #36]	; 0x24
    2668:	4b0a      	ldr	r3, [pc, #40]	; (2694 <_system_clock_source_dfll_set_config_errata_9905+0x40>)
    266a:	4798      	blx	r3
    266c:	4a07      	ldr	r2, [pc, #28]	; (268c <_system_clock_source_dfll_set_config_errata_9905+0x38>)
    266e:	4b08      	ldr	r3, [pc, #32]	; (2690 <_system_clock_source_dfll_set_config_errata_9905+0x3c>)
    2670:	689b      	ldr	r3, [r3, #8]
    2672:	62d3      	str	r3, [r2, #44]	; 0x2c
    2674:	4a05      	ldr	r2, [pc, #20]	; (268c <_system_clock_source_dfll_set_config_errata_9905+0x38>)
    2676:	4b06      	ldr	r3, [pc, #24]	; (2690 <_system_clock_source_dfll_set_config_errata_9905+0x3c>)
    2678:	685b      	ldr	r3, [r3, #4]
    267a:	6293      	str	r3, [r2, #40]	; 0x28
    267c:	4a03      	ldr	r2, [pc, #12]	; (268c <_system_clock_source_dfll_set_config_errata_9905+0x38>)
    267e:	4b04      	ldr	r3, [pc, #16]	; (2690 <_system_clock_source_dfll_set_config_errata_9905+0x3c>)
    2680:	681b      	ldr	r3, [r3, #0]
    2682:	b29b      	uxth	r3, r3
    2684:	8493      	strh	r3, [r2, #36]	; 0x24
    2686:	46bd      	mov	sp, r7
    2688:	bd80      	pop	{r7, pc}
    268a:	46c0      	nop			; (mov r8, r8)
    268c:	40000800 	.word	0x40000800
    2690:	20000134 	.word	0x20000134
    2694:	0000263d 	.word	0x0000263d

00002698 <system_clock_source_get_hz>:
    2698:	b580      	push	{r7, lr}
    269a:	b082      	sub	sp, #8
    269c:	af00      	add	r7, sp, #0
    269e:	1c02      	adds	r2, r0, #0
    26a0:	1dfb      	adds	r3, r7, #7
    26a2:	701a      	strb	r2, [r3, #0]
    26a4:	1dfb      	adds	r3, r7, #7
    26a6:	781b      	ldrb	r3, [r3, #0]
    26a8:	2b08      	cmp	r3, #8
    26aa:	d842      	bhi.n	2732 <system_clock_source_get_hz+0x9a>
    26ac:	009a      	lsls	r2, r3, #2
    26ae:	4b23      	ldr	r3, [pc, #140]	; (273c <system_clock_source_get_hz+0xa4>)
    26b0:	18d3      	adds	r3, r2, r3
    26b2:	681b      	ldr	r3, [r3, #0]
    26b4:	469f      	mov	pc, r3
    26b6:	4b22      	ldr	r3, [pc, #136]	; (2740 <system_clock_source_get_hz+0xa8>)
    26b8:	691b      	ldr	r3, [r3, #16]
    26ba:	e03b      	b.n	2734 <system_clock_source_get_hz+0x9c>
    26bc:	4b21      	ldr	r3, [pc, #132]	; (2744 <system_clock_source_get_hz+0xac>)
    26be:	6a1b      	ldr	r3, [r3, #32]
    26c0:	0a1b      	lsrs	r3, r3, #8
    26c2:	1c1a      	adds	r2, r3, #0
    26c4:	2303      	movs	r3, #3
    26c6:	4013      	ands	r3, r2
    26c8:	b2db      	uxtb	r3, r3
    26ca:	1c1a      	adds	r2, r3, #0
    26cc:	4b1e      	ldr	r3, [pc, #120]	; (2748 <system_clock_source_get_hz+0xb0>)
    26ce:	40d3      	lsrs	r3, r2
    26d0:	e030      	b.n	2734 <system_clock_source_get_hz+0x9c>
    26d2:	2380      	movs	r3, #128	; 0x80
    26d4:	021b      	lsls	r3, r3, #8
    26d6:	e02d      	b.n	2734 <system_clock_source_get_hz+0x9c>
    26d8:	2380      	movs	r3, #128	; 0x80
    26da:	021b      	lsls	r3, r3, #8
    26dc:	e02a      	b.n	2734 <system_clock_source_get_hz+0x9c>
    26de:	4b18      	ldr	r3, [pc, #96]	; (2740 <system_clock_source_get_hz+0xa8>)
    26e0:	695b      	ldr	r3, [r3, #20]
    26e2:	e027      	b.n	2734 <system_clock_source_get_hz+0x9c>
    26e4:	4b16      	ldr	r3, [pc, #88]	; (2740 <system_clock_source_get_hz+0xa8>)
    26e6:	681b      	ldr	r3, [r3, #0]
    26e8:	2202      	movs	r2, #2
    26ea:	4013      	ands	r3, r2
    26ec:	d101      	bne.n	26f2 <system_clock_source_get_hz+0x5a>
    26ee:	2300      	movs	r3, #0
    26f0:	e020      	b.n	2734 <system_clock_source_get_hz+0x9c>
    26f2:	4b16      	ldr	r3, [pc, #88]	; (274c <system_clock_source_get_hz+0xb4>)
    26f4:	4798      	blx	r3
    26f6:	4b12      	ldr	r3, [pc, #72]	; (2740 <system_clock_source_get_hz+0xa8>)
    26f8:	681b      	ldr	r3, [r3, #0]
    26fa:	2204      	movs	r2, #4
    26fc:	4013      	ands	r3, r2
    26fe:	d009      	beq.n	2714 <system_clock_source_get_hz+0x7c>
    2700:	2000      	movs	r0, #0
    2702:	4b13      	ldr	r3, [pc, #76]	; (2750 <system_clock_source_get_hz+0xb8>)
    2704:	4798      	blx	r3
    2706:	1c02      	adds	r2, r0, #0
    2708:	4b0d      	ldr	r3, [pc, #52]	; (2740 <system_clock_source_get_hz+0xa8>)
    270a:	689b      	ldr	r3, [r3, #8]
    270c:	041b      	lsls	r3, r3, #16
    270e:	0c1b      	lsrs	r3, r3, #16
    2710:	4353      	muls	r3, r2
    2712:	e00f      	b.n	2734 <system_clock_source_get_hz+0x9c>
    2714:	4b0f      	ldr	r3, [pc, #60]	; (2754 <system_clock_source_get_hz+0xbc>)
    2716:	e00d      	b.n	2734 <system_clock_source_get_hz+0x9c>
    2718:	4a0a      	ldr	r2, [pc, #40]	; (2744 <system_clock_source_get_hz+0xac>)
    271a:	2350      	movs	r3, #80	; 0x50
    271c:	5cd3      	ldrb	r3, [r2, r3]
    271e:	b2db      	uxtb	r3, r3
    2720:	1c1a      	adds	r2, r3, #0
    2722:	2304      	movs	r3, #4
    2724:	4013      	ands	r3, r2
    2726:	d101      	bne.n	272c <system_clock_source_get_hz+0x94>
    2728:	2300      	movs	r3, #0
    272a:	e003      	b.n	2734 <system_clock_source_get_hz+0x9c>
    272c:	4b04      	ldr	r3, [pc, #16]	; (2740 <system_clock_source_get_hz+0xa8>)
    272e:	68db      	ldr	r3, [r3, #12]
    2730:	e000      	b.n	2734 <system_clock_source_get_hz+0x9c>
    2732:	2300      	movs	r3, #0
    2734:	1c18      	adds	r0, r3, #0
    2736:	46bd      	mov	sp, r7
    2738:	b002      	add	sp, #8
    273a:	bd80      	pop	{r7, pc}
    273c:	0000569c 	.word	0x0000569c
    2740:	20000134 	.word	0x20000134
    2744:	40000800 	.word	0x40000800
    2748:	007a1200 	.word	0x007a1200
    274c:	0000263d 	.word	0x0000263d
    2750:	00002d95 	.word	0x00002d95
    2754:	02dc6c00 	.word	0x02dc6c00

00002758 <system_clock_source_osc8m_set_config>:
    2758:	b580      	push	{r7, lr}
    275a:	b084      	sub	sp, #16
    275c:	af00      	add	r7, sp, #0
    275e:	6078      	str	r0, [r7, #4]
    2760:	4b1a      	ldr	r3, [pc, #104]	; (27cc <system_clock_source_osc8m_set_config+0x74>)
    2762:	6a1b      	ldr	r3, [r3, #32]
    2764:	60fb      	str	r3, [r7, #12]
    2766:	687b      	ldr	r3, [r7, #4]
    2768:	781b      	ldrb	r3, [r3, #0]
    276a:	1c1a      	adds	r2, r3, #0
    276c:	2303      	movs	r3, #3
    276e:	4013      	ands	r3, r2
    2770:	b2da      	uxtb	r2, r3
    2772:	230d      	movs	r3, #13
    2774:	18fb      	adds	r3, r7, r3
    2776:	2103      	movs	r1, #3
    2778:	400a      	ands	r2, r1
    277a:	1c10      	adds	r0, r2, #0
    277c:	781a      	ldrb	r2, [r3, #0]
    277e:	2103      	movs	r1, #3
    2780:	438a      	bics	r2, r1
    2782:	1c11      	adds	r1, r2, #0
    2784:	1c02      	adds	r2, r0, #0
    2786:	430a      	orrs	r2, r1
    2788:	701a      	strb	r2, [r3, #0]
    278a:	687b      	ldr	r3, [r7, #4]
    278c:	789a      	ldrb	r2, [r3, #2]
    278e:	230c      	movs	r3, #12
    2790:	18fb      	adds	r3, r7, r3
    2792:	01d0      	lsls	r0, r2, #7
    2794:	781a      	ldrb	r2, [r3, #0]
    2796:	217f      	movs	r1, #127	; 0x7f
    2798:	400a      	ands	r2, r1
    279a:	1c11      	adds	r1, r2, #0
    279c:	1c02      	adds	r2, r0, #0
    279e:	430a      	orrs	r2, r1
    27a0:	701a      	strb	r2, [r3, #0]
    27a2:	687b      	ldr	r3, [r7, #4]
    27a4:	785a      	ldrb	r2, [r3, #1]
    27a6:	230c      	movs	r3, #12
    27a8:	18fb      	adds	r3, r7, r3
    27aa:	2101      	movs	r1, #1
    27ac:	400a      	ands	r2, r1
    27ae:	0190      	lsls	r0, r2, #6
    27b0:	781a      	ldrb	r2, [r3, #0]
    27b2:	2140      	movs	r1, #64	; 0x40
    27b4:	438a      	bics	r2, r1
    27b6:	1c11      	adds	r1, r2, #0
    27b8:	1c02      	adds	r2, r0, #0
    27ba:	430a      	orrs	r2, r1
    27bc:	701a      	strb	r2, [r3, #0]
    27be:	4b03      	ldr	r3, [pc, #12]	; (27cc <system_clock_source_osc8m_set_config+0x74>)
    27c0:	68fa      	ldr	r2, [r7, #12]
    27c2:	621a      	str	r2, [r3, #32]
    27c4:	46bd      	mov	sp, r7
    27c6:	b004      	add	sp, #16
    27c8:	bd80      	pop	{r7, pc}
    27ca:	46c0      	nop			; (mov r8, r8)
    27cc:	40000800 	.word	0x40000800

000027d0 <system_clock_source_enable>:
    27d0:	b580      	push	{r7, lr}
    27d2:	b082      	sub	sp, #8
    27d4:	af00      	add	r7, sp, #0
    27d6:	1c02      	adds	r2, r0, #0
    27d8:	1dfb      	adds	r3, r7, #7
    27da:	701a      	strb	r2, [r3, #0]
    27dc:	1dfb      	adds	r3, r7, #7
    27de:	781b      	ldrb	r3, [r3, #0]
    27e0:	2b08      	cmp	r3, #8
    27e2:	d83b      	bhi.n	285c <system_clock_source_enable+0x8c>
    27e4:	009a      	lsls	r2, r3, #2
    27e6:	4b21      	ldr	r3, [pc, #132]	; (286c <system_clock_source_enable+0x9c>)
    27e8:	18d3      	adds	r3, r2, r3
    27ea:	681b      	ldr	r3, [r3, #0]
    27ec:	469f      	mov	pc, r3
    27ee:	4b20      	ldr	r3, [pc, #128]	; (2870 <system_clock_source_enable+0xa0>)
    27f0:	4a1f      	ldr	r2, [pc, #124]	; (2870 <system_clock_source_enable+0xa0>)
    27f2:	6a12      	ldr	r2, [r2, #32]
    27f4:	2102      	movs	r1, #2
    27f6:	430a      	orrs	r2, r1
    27f8:	621a      	str	r2, [r3, #32]
    27fa:	2300      	movs	r3, #0
    27fc:	e031      	b.n	2862 <system_clock_source_enable+0x92>
    27fe:	4b1c      	ldr	r3, [pc, #112]	; (2870 <system_clock_source_enable+0xa0>)
    2800:	4a1b      	ldr	r2, [pc, #108]	; (2870 <system_clock_source_enable+0xa0>)
    2802:	6992      	ldr	r2, [r2, #24]
    2804:	2102      	movs	r1, #2
    2806:	430a      	orrs	r2, r1
    2808:	619a      	str	r2, [r3, #24]
    280a:	e029      	b.n	2860 <system_clock_source_enable+0x90>
    280c:	4a18      	ldr	r2, [pc, #96]	; (2870 <system_clock_source_enable+0xa0>)
    280e:	4b18      	ldr	r3, [pc, #96]	; (2870 <system_clock_source_enable+0xa0>)
    2810:	8a1b      	ldrh	r3, [r3, #16]
    2812:	b29b      	uxth	r3, r3
    2814:	2102      	movs	r1, #2
    2816:	430b      	orrs	r3, r1
    2818:	b29b      	uxth	r3, r3
    281a:	8213      	strh	r3, [r2, #16]
    281c:	e020      	b.n	2860 <system_clock_source_enable+0x90>
    281e:	4a14      	ldr	r2, [pc, #80]	; (2870 <system_clock_source_enable+0xa0>)
    2820:	4b13      	ldr	r3, [pc, #76]	; (2870 <system_clock_source_enable+0xa0>)
    2822:	8a9b      	ldrh	r3, [r3, #20]
    2824:	b29b      	uxth	r3, r3
    2826:	2102      	movs	r1, #2
    2828:	430b      	orrs	r3, r1
    282a:	b29b      	uxth	r3, r3
    282c:	8293      	strh	r3, [r2, #20]
    282e:	e017      	b.n	2860 <system_clock_source_enable+0x90>
    2830:	4b10      	ldr	r3, [pc, #64]	; (2874 <system_clock_source_enable+0xa4>)
    2832:	681b      	ldr	r3, [r3, #0]
    2834:	2202      	movs	r2, #2
    2836:	431a      	orrs	r2, r3
    2838:	4b0e      	ldr	r3, [pc, #56]	; (2874 <system_clock_source_enable+0xa4>)
    283a:	601a      	str	r2, [r3, #0]
    283c:	4b0e      	ldr	r3, [pc, #56]	; (2878 <system_clock_source_enable+0xa8>)
    283e:	4798      	blx	r3
    2840:	e00e      	b.n	2860 <system_clock_source_enable+0x90>
    2842:	4a0b      	ldr	r2, [pc, #44]	; (2870 <system_clock_source_enable+0xa0>)
    2844:	490a      	ldr	r1, [pc, #40]	; (2870 <system_clock_source_enable+0xa0>)
    2846:	2344      	movs	r3, #68	; 0x44
    2848:	5ccb      	ldrb	r3, [r1, r3]
    284a:	b2db      	uxtb	r3, r3
    284c:	2102      	movs	r1, #2
    284e:	430b      	orrs	r3, r1
    2850:	b2d9      	uxtb	r1, r3
    2852:	2344      	movs	r3, #68	; 0x44
    2854:	54d1      	strb	r1, [r2, r3]
    2856:	e003      	b.n	2860 <system_clock_source_enable+0x90>
    2858:	2300      	movs	r3, #0
    285a:	e002      	b.n	2862 <system_clock_source_enable+0x92>
    285c:	2317      	movs	r3, #23
    285e:	e000      	b.n	2862 <system_clock_source_enable+0x92>
    2860:	2300      	movs	r3, #0
    2862:	1c18      	adds	r0, r3, #0
    2864:	46bd      	mov	sp, r7
    2866:	b002      	add	sp, #8
    2868:	bd80      	pop	{r7, pc}
    286a:	46c0      	nop			; (mov r8, r8)
    286c:	000056c0 	.word	0x000056c0
    2870:	40000800 	.word	0x40000800
    2874:	20000134 	.word	0x20000134
    2878:	00002655 	.word	0x00002655

0000287c <system_clock_init>:
    287c:	b580      	push	{r7, lr}
    287e:	b09c      	sub	sp, #112	; 0x70
    2880:	af00      	add	r7, sp, #0
    2882:	4b24      	ldr	r3, [pc, #144]	; (2914 <system_clock_init+0x98>)
    2884:	22c2      	movs	r2, #194	; 0xc2
    2886:	00d2      	lsls	r2, r2, #3
    2888:	609a      	str	r2, [r3, #8]
    288a:	2000      	movs	r0, #0
    288c:	4b22      	ldr	r3, [pc, #136]	; (2918 <system_clock_init+0x9c>)
    288e:	4798      	blx	r3
    2890:	236c      	movs	r3, #108	; 0x6c
    2892:	18fb      	adds	r3, r7, r3
    2894:	1c18      	adds	r0, r3, #0
    2896:	4b21      	ldr	r3, [pc, #132]	; (291c <system_clock_init+0xa0>)
    2898:	4798      	blx	r3
    289a:	236c      	movs	r3, #108	; 0x6c
    289c:	18fb      	adds	r3, r7, r3
    289e:	2200      	movs	r2, #0
    28a0:	701a      	strb	r2, [r3, #0]
    28a2:	236c      	movs	r3, #108	; 0x6c
    28a4:	18fb      	adds	r3, r7, r3
    28a6:	2201      	movs	r2, #1
    28a8:	709a      	strb	r2, [r3, #2]
    28aa:	236c      	movs	r3, #108	; 0x6c
    28ac:	18fb      	adds	r3, r7, r3
    28ae:	2200      	movs	r2, #0
    28b0:	705a      	strb	r2, [r3, #1]
    28b2:	236c      	movs	r3, #108	; 0x6c
    28b4:	18fb      	adds	r3, r7, r3
    28b6:	1c18      	adds	r0, r3, #0
    28b8:	4b19      	ldr	r3, [pc, #100]	; (2920 <system_clock_init+0xa4>)
    28ba:	4798      	blx	r3
    28bc:	2006      	movs	r0, #6
    28be:	4b19      	ldr	r3, [pc, #100]	; (2924 <system_clock_init+0xa8>)
    28c0:	4798      	blx	r3
    28c2:	4b19      	ldr	r3, [pc, #100]	; (2928 <system_clock_init+0xac>)
    28c4:	4798      	blx	r3
    28c6:	2000      	movs	r0, #0
    28c8:	4b18      	ldr	r3, [pc, #96]	; (292c <system_clock_init+0xb0>)
    28ca:	4798      	blx	r3
    28cc:	2000      	movs	r0, #0
    28ce:	2100      	movs	r1, #0
    28d0:	4b17      	ldr	r3, [pc, #92]	; (2930 <system_clock_init+0xb4>)
    28d2:	4798      	blx	r3
    28d4:	2001      	movs	r0, #1
    28d6:	2100      	movs	r1, #0
    28d8:	4b15      	ldr	r3, [pc, #84]	; (2930 <system_clock_init+0xb4>)
    28da:	4798      	blx	r3
    28dc:	1c3b      	adds	r3, r7, #0
    28de:	1c18      	adds	r0, r3, #0
    28e0:	4b14      	ldr	r3, [pc, #80]	; (2934 <system_clock_init+0xb8>)
    28e2:	4798      	blx	r3
    28e4:	1c3b      	adds	r3, r7, #0
    28e6:	2206      	movs	r2, #6
    28e8:	701a      	strb	r2, [r3, #0]
    28ea:	1c3b      	adds	r3, r7, #0
    28ec:	2201      	movs	r2, #1
    28ee:	605a      	str	r2, [r3, #4]
    28f0:	1c3b      	adds	r3, r7, #0
    28f2:	2200      	movs	r2, #0
    28f4:	721a      	strb	r2, [r3, #8]
    28f6:	1c3b      	adds	r3, r7, #0
    28f8:	2200      	movs	r2, #0
    28fa:	725a      	strb	r2, [r3, #9]
    28fc:	1c3b      	adds	r3, r7, #0
    28fe:	2000      	movs	r0, #0
    2900:	1c19      	adds	r1, r3, #0
    2902:	4b0d      	ldr	r3, [pc, #52]	; (2938 <system_clock_init+0xbc>)
    2904:	4798      	blx	r3
    2906:	2000      	movs	r0, #0
    2908:	4b0c      	ldr	r3, [pc, #48]	; (293c <system_clock_init+0xc0>)
    290a:	4798      	blx	r3
    290c:	46bd      	mov	sp, r7
    290e:	b01c      	add	sp, #112	; 0x70
    2910:	bd80      	pop	{r7, pc}
    2912:	46c0      	nop			; (mov r8, r8)
    2914:	40000800 	.word	0x40000800
    2918:	00002609 	.word	0x00002609
    291c:	00002575 	.word	0x00002575
    2920:	00002759 	.word	0x00002759
    2924:	000027d1 	.word	0x000027d1
    2928:	000029e1 	.word	0x000029e1
    292c:	00002595 	.word	0x00002595
    2930:	000025b5 	.word	0x000025b5
    2934:	00002549 	.word	0x00002549
    2938:	00002a11 	.word	0x00002a11
    293c:	00002b31 	.word	0x00002b31

00002940 <system_gclk_is_syncing>:
    2940:	b580      	push	{r7, lr}
    2942:	af00      	add	r7, sp, #0
    2944:	4b06      	ldr	r3, [pc, #24]	; (2960 <system_gclk_is_syncing+0x20>)
    2946:	785b      	ldrb	r3, [r3, #1]
    2948:	b2db      	uxtb	r3, r3
    294a:	b2db      	uxtb	r3, r3
    294c:	b25b      	sxtb	r3, r3
    294e:	2b00      	cmp	r3, #0
    2950:	da01      	bge.n	2956 <system_gclk_is_syncing+0x16>
    2952:	2301      	movs	r3, #1
    2954:	e000      	b.n	2958 <system_gclk_is_syncing+0x18>
    2956:	2300      	movs	r3, #0
    2958:	1c18      	adds	r0, r3, #0
    295a:	46bd      	mov	sp, r7
    295c:	bd80      	pop	{r7, pc}
    295e:	46c0      	nop			; (mov r8, r8)
    2960:	40000c00 	.word	0x40000c00

00002964 <system_apb_clock_set_mask>:
    2964:	b580      	push	{r7, lr}
    2966:	b082      	sub	sp, #8
    2968:	af00      	add	r7, sp, #0
    296a:	1c02      	adds	r2, r0, #0
    296c:	6039      	str	r1, [r7, #0]
    296e:	1dfb      	adds	r3, r7, #7
    2970:	701a      	strb	r2, [r3, #0]
    2972:	1dfb      	adds	r3, r7, #7
    2974:	781b      	ldrb	r3, [r3, #0]
    2976:	2b01      	cmp	r3, #1
    2978:	d00a      	beq.n	2990 <system_apb_clock_set_mask+0x2c>
    297a:	2b02      	cmp	r3, #2
    297c:	d00f      	beq.n	299e <system_apb_clock_set_mask+0x3a>
    297e:	2b00      	cmp	r3, #0
    2980:	d114      	bne.n	29ac <system_apb_clock_set_mask+0x48>
    2982:	4b0e      	ldr	r3, [pc, #56]	; (29bc <system_apb_clock_set_mask+0x58>)
    2984:	4a0d      	ldr	r2, [pc, #52]	; (29bc <system_apb_clock_set_mask+0x58>)
    2986:	6991      	ldr	r1, [r2, #24]
    2988:	683a      	ldr	r2, [r7, #0]
    298a:	430a      	orrs	r2, r1
    298c:	619a      	str	r2, [r3, #24]
    298e:	e00f      	b.n	29b0 <system_apb_clock_set_mask+0x4c>
    2990:	4b0a      	ldr	r3, [pc, #40]	; (29bc <system_apb_clock_set_mask+0x58>)
    2992:	4a0a      	ldr	r2, [pc, #40]	; (29bc <system_apb_clock_set_mask+0x58>)
    2994:	69d1      	ldr	r1, [r2, #28]
    2996:	683a      	ldr	r2, [r7, #0]
    2998:	430a      	orrs	r2, r1
    299a:	61da      	str	r2, [r3, #28]
    299c:	e008      	b.n	29b0 <system_apb_clock_set_mask+0x4c>
    299e:	4b07      	ldr	r3, [pc, #28]	; (29bc <system_apb_clock_set_mask+0x58>)
    29a0:	4a06      	ldr	r2, [pc, #24]	; (29bc <system_apb_clock_set_mask+0x58>)
    29a2:	6a11      	ldr	r1, [r2, #32]
    29a4:	683a      	ldr	r2, [r7, #0]
    29a6:	430a      	orrs	r2, r1
    29a8:	621a      	str	r2, [r3, #32]
    29aa:	e001      	b.n	29b0 <system_apb_clock_set_mask+0x4c>
    29ac:	2317      	movs	r3, #23
    29ae:	e000      	b.n	29b2 <system_apb_clock_set_mask+0x4e>
    29b0:	2300      	movs	r3, #0
    29b2:	1c18      	adds	r0, r3, #0
    29b4:	46bd      	mov	sp, r7
    29b6:	b002      	add	sp, #8
    29b8:	bd80      	pop	{r7, pc}
    29ba:	46c0      	nop			; (mov r8, r8)
    29bc:	40000400 	.word	0x40000400

000029c0 <system_interrupt_enter_critical_section>:
    29c0:	b580      	push	{r7, lr}
    29c2:	af00      	add	r7, sp, #0
    29c4:	4b01      	ldr	r3, [pc, #4]	; (29cc <system_interrupt_enter_critical_section+0xc>)
    29c6:	4798      	blx	r3
    29c8:	46bd      	mov	sp, r7
    29ca:	bd80      	pop	{r7, pc}
    29cc:	000002a5 	.word	0x000002a5

000029d0 <system_interrupt_leave_critical_section>:
    29d0:	b580      	push	{r7, lr}
    29d2:	af00      	add	r7, sp, #0
    29d4:	4b01      	ldr	r3, [pc, #4]	; (29dc <system_interrupt_leave_critical_section+0xc>)
    29d6:	4798      	blx	r3
    29d8:	46bd      	mov	sp, r7
    29da:	bd80      	pop	{r7, pc}
    29dc:	000002f5 	.word	0x000002f5

000029e0 <system_gclk_init>:
    29e0:	b580      	push	{r7, lr}
    29e2:	af00      	add	r7, sp, #0
    29e4:	2000      	movs	r0, #0
    29e6:	2108      	movs	r1, #8
    29e8:	4b07      	ldr	r3, [pc, #28]	; (2a08 <system_gclk_init+0x28>)
    29ea:	4798      	blx	r3
    29ec:	4b07      	ldr	r3, [pc, #28]	; (2a0c <system_gclk_init+0x2c>)
    29ee:	2201      	movs	r2, #1
    29f0:	701a      	strb	r2, [r3, #0]
    29f2:	46c0      	nop			; (mov r8, r8)
    29f4:	4b05      	ldr	r3, [pc, #20]	; (2a0c <system_gclk_init+0x2c>)
    29f6:	781b      	ldrb	r3, [r3, #0]
    29f8:	b2db      	uxtb	r3, r3
    29fa:	1c1a      	adds	r2, r3, #0
    29fc:	2301      	movs	r3, #1
    29fe:	4013      	ands	r3, r2
    2a00:	d1f8      	bne.n	29f4 <system_gclk_init+0x14>
    2a02:	46bd      	mov	sp, r7
    2a04:	bd80      	pop	{r7, pc}
    2a06:	46c0      	nop			; (mov r8, r8)
    2a08:	00002965 	.word	0x00002965
    2a0c:	40000c00 	.word	0x40000c00

00002a10 <system_gclk_gen_set_config>:
    2a10:	b580      	push	{r7, lr}
    2a12:	b086      	sub	sp, #24
    2a14:	af00      	add	r7, sp, #0
    2a16:	1c02      	adds	r2, r0, #0
    2a18:	6039      	str	r1, [r7, #0]
    2a1a:	1dfb      	adds	r3, r7, #7
    2a1c:	701a      	strb	r2, [r3, #0]
    2a1e:	1dfb      	adds	r3, r7, #7
    2a20:	781b      	ldrb	r3, [r3, #0]
    2a22:	617b      	str	r3, [r7, #20]
    2a24:	1dfb      	adds	r3, r7, #7
    2a26:	781b      	ldrb	r3, [r3, #0]
    2a28:	613b      	str	r3, [r7, #16]
    2a2a:	683b      	ldr	r3, [r7, #0]
    2a2c:	781b      	ldrb	r3, [r3, #0]
    2a2e:	021b      	lsls	r3, r3, #8
    2a30:	1c1a      	adds	r2, r3, #0
    2a32:	697b      	ldr	r3, [r7, #20]
    2a34:	4313      	orrs	r3, r2
    2a36:	617b      	str	r3, [r7, #20]
    2a38:	683b      	ldr	r3, [r7, #0]
    2a3a:	785b      	ldrb	r3, [r3, #1]
    2a3c:	2b00      	cmp	r3, #0
    2a3e:	d004      	beq.n	2a4a <system_gclk_gen_set_config+0x3a>
    2a40:	697b      	ldr	r3, [r7, #20]
    2a42:	2280      	movs	r2, #128	; 0x80
    2a44:	02d2      	lsls	r2, r2, #11
    2a46:	4313      	orrs	r3, r2
    2a48:	617b      	str	r3, [r7, #20]
    2a4a:	683b      	ldr	r3, [r7, #0]
    2a4c:	7a5b      	ldrb	r3, [r3, #9]
    2a4e:	2b00      	cmp	r3, #0
    2a50:	d004      	beq.n	2a5c <system_gclk_gen_set_config+0x4c>
    2a52:	697b      	ldr	r3, [r7, #20]
    2a54:	2280      	movs	r2, #128	; 0x80
    2a56:	0312      	lsls	r2, r2, #12
    2a58:	4313      	orrs	r3, r2
    2a5a:	617b      	str	r3, [r7, #20]
    2a5c:	683b      	ldr	r3, [r7, #0]
    2a5e:	685b      	ldr	r3, [r3, #4]
    2a60:	2b01      	cmp	r3, #1
    2a62:	d92c      	bls.n	2abe <system_gclk_gen_set_config+0xae>
    2a64:	683b      	ldr	r3, [r7, #0]
    2a66:	685a      	ldr	r2, [r3, #4]
    2a68:	683b      	ldr	r3, [r7, #0]
    2a6a:	685b      	ldr	r3, [r3, #4]
    2a6c:	3b01      	subs	r3, #1
    2a6e:	4013      	ands	r3, r2
    2a70:	d11a      	bne.n	2aa8 <system_gclk_gen_set_config+0x98>
    2a72:	2300      	movs	r3, #0
    2a74:	60fb      	str	r3, [r7, #12]
    2a76:	2302      	movs	r3, #2
    2a78:	60bb      	str	r3, [r7, #8]
    2a7a:	e005      	b.n	2a88 <system_gclk_gen_set_config+0x78>
    2a7c:	68fb      	ldr	r3, [r7, #12]
    2a7e:	3301      	adds	r3, #1
    2a80:	60fb      	str	r3, [r7, #12]
    2a82:	68bb      	ldr	r3, [r7, #8]
    2a84:	005b      	lsls	r3, r3, #1
    2a86:	60bb      	str	r3, [r7, #8]
    2a88:	683b      	ldr	r3, [r7, #0]
    2a8a:	685a      	ldr	r2, [r3, #4]
    2a8c:	68bb      	ldr	r3, [r7, #8]
    2a8e:	429a      	cmp	r2, r3
    2a90:	d8f4      	bhi.n	2a7c <system_gclk_gen_set_config+0x6c>
    2a92:	68fb      	ldr	r3, [r7, #12]
    2a94:	021b      	lsls	r3, r3, #8
    2a96:	693a      	ldr	r2, [r7, #16]
    2a98:	4313      	orrs	r3, r2
    2a9a:	613b      	str	r3, [r7, #16]
    2a9c:	697b      	ldr	r3, [r7, #20]
    2a9e:	2280      	movs	r2, #128	; 0x80
    2aa0:	0352      	lsls	r2, r2, #13
    2aa2:	4313      	orrs	r3, r2
    2aa4:	617b      	str	r3, [r7, #20]
    2aa6:	e00a      	b.n	2abe <system_gclk_gen_set_config+0xae>
    2aa8:	683b      	ldr	r3, [r7, #0]
    2aaa:	685b      	ldr	r3, [r3, #4]
    2aac:	021b      	lsls	r3, r3, #8
    2aae:	693a      	ldr	r2, [r7, #16]
    2ab0:	4313      	orrs	r3, r2
    2ab2:	613b      	str	r3, [r7, #16]
    2ab4:	697b      	ldr	r3, [r7, #20]
    2ab6:	2280      	movs	r2, #128	; 0x80
    2ab8:	0292      	lsls	r2, r2, #10
    2aba:	4313      	orrs	r3, r2
    2abc:	617b      	str	r3, [r7, #20]
    2abe:	683b      	ldr	r3, [r7, #0]
    2ac0:	7a1b      	ldrb	r3, [r3, #8]
    2ac2:	2b00      	cmp	r3, #0
    2ac4:	d004      	beq.n	2ad0 <system_gclk_gen_set_config+0xc0>
    2ac6:	697b      	ldr	r3, [r7, #20]
    2ac8:	2280      	movs	r2, #128	; 0x80
    2aca:	0392      	lsls	r2, r2, #14
    2acc:	4313      	orrs	r3, r2
    2ace:	617b      	str	r3, [r7, #20]
    2ad0:	46c0      	nop			; (mov r8, r8)
    2ad2:	4b12      	ldr	r3, [pc, #72]	; (2b1c <system_gclk_gen_set_config+0x10c>)
    2ad4:	4798      	blx	r3
    2ad6:	1e03      	subs	r3, r0, #0
    2ad8:	d1fb      	bne.n	2ad2 <system_gclk_gen_set_config+0xc2>
    2ada:	4b11      	ldr	r3, [pc, #68]	; (2b20 <system_gclk_gen_set_config+0x110>)
    2adc:	4798      	blx	r3
    2ade:	4a11      	ldr	r2, [pc, #68]	; (2b24 <system_gclk_gen_set_config+0x114>)
    2ae0:	1dfb      	adds	r3, r7, #7
    2ae2:	781b      	ldrb	r3, [r3, #0]
    2ae4:	7013      	strb	r3, [r2, #0]
    2ae6:	46c0      	nop			; (mov r8, r8)
    2ae8:	4b0c      	ldr	r3, [pc, #48]	; (2b1c <system_gclk_gen_set_config+0x10c>)
    2aea:	4798      	blx	r3
    2aec:	1e03      	subs	r3, r0, #0
    2aee:	d1fb      	bne.n	2ae8 <system_gclk_gen_set_config+0xd8>
    2af0:	4b0d      	ldr	r3, [pc, #52]	; (2b28 <system_gclk_gen_set_config+0x118>)
    2af2:	693a      	ldr	r2, [r7, #16]
    2af4:	609a      	str	r2, [r3, #8]
    2af6:	46c0      	nop			; (mov r8, r8)
    2af8:	4b08      	ldr	r3, [pc, #32]	; (2b1c <system_gclk_gen_set_config+0x10c>)
    2afa:	4798      	blx	r3
    2afc:	1e03      	subs	r3, r0, #0
    2afe:	d1fb      	bne.n	2af8 <system_gclk_gen_set_config+0xe8>
    2b00:	4b09      	ldr	r3, [pc, #36]	; (2b28 <system_gclk_gen_set_config+0x118>)
    2b02:	4a09      	ldr	r2, [pc, #36]	; (2b28 <system_gclk_gen_set_config+0x118>)
    2b04:	6851      	ldr	r1, [r2, #4]
    2b06:	2280      	movs	r2, #128	; 0x80
    2b08:	0252      	lsls	r2, r2, #9
    2b0a:	4011      	ands	r1, r2
    2b0c:	697a      	ldr	r2, [r7, #20]
    2b0e:	430a      	orrs	r2, r1
    2b10:	605a      	str	r2, [r3, #4]
    2b12:	4b06      	ldr	r3, [pc, #24]	; (2b2c <system_gclk_gen_set_config+0x11c>)
    2b14:	4798      	blx	r3
    2b16:	46bd      	mov	sp, r7
    2b18:	b006      	add	sp, #24
    2b1a:	bd80      	pop	{r7, pc}
    2b1c:	00002941 	.word	0x00002941
    2b20:	000029c1 	.word	0x000029c1
    2b24:	40000c08 	.word	0x40000c08
    2b28:	40000c00 	.word	0x40000c00
    2b2c:	000029d1 	.word	0x000029d1

00002b30 <system_gclk_gen_enable>:
    2b30:	b580      	push	{r7, lr}
    2b32:	b082      	sub	sp, #8
    2b34:	af00      	add	r7, sp, #0
    2b36:	1c02      	adds	r2, r0, #0
    2b38:	1dfb      	adds	r3, r7, #7
    2b3a:	701a      	strb	r2, [r3, #0]
    2b3c:	46c0      	nop			; (mov r8, r8)
    2b3e:	4b0d      	ldr	r3, [pc, #52]	; (2b74 <system_gclk_gen_enable+0x44>)
    2b40:	4798      	blx	r3
    2b42:	1e03      	subs	r3, r0, #0
    2b44:	d1fb      	bne.n	2b3e <system_gclk_gen_enable+0xe>
    2b46:	4b0c      	ldr	r3, [pc, #48]	; (2b78 <system_gclk_gen_enable+0x48>)
    2b48:	4798      	blx	r3
    2b4a:	4a0c      	ldr	r2, [pc, #48]	; (2b7c <system_gclk_gen_enable+0x4c>)
    2b4c:	1dfb      	adds	r3, r7, #7
    2b4e:	781b      	ldrb	r3, [r3, #0]
    2b50:	7013      	strb	r3, [r2, #0]
    2b52:	46c0      	nop			; (mov r8, r8)
    2b54:	4b07      	ldr	r3, [pc, #28]	; (2b74 <system_gclk_gen_enable+0x44>)
    2b56:	4798      	blx	r3
    2b58:	1e03      	subs	r3, r0, #0
    2b5a:	d1fb      	bne.n	2b54 <system_gclk_gen_enable+0x24>
    2b5c:	4b08      	ldr	r3, [pc, #32]	; (2b80 <system_gclk_gen_enable+0x50>)
    2b5e:	4a08      	ldr	r2, [pc, #32]	; (2b80 <system_gclk_gen_enable+0x50>)
    2b60:	6852      	ldr	r2, [r2, #4]
    2b62:	2180      	movs	r1, #128	; 0x80
    2b64:	0249      	lsls	r1, r1, #9
    2b66:	430a      	orrs	r2, r1
    2b68:	605a      	str	r2, [r3, #4]
    2b6a:	4b06      	ldr	r3, [pc, #24]	; (2b84 <system_gclk_gen_enable+0x54>)
    2b6c:	4798      	blx	r3
    2b6e:	46bd      	mov	sp, r7
    2b70:	b002      	add	sp, #8
    2b72:	bd80      	pop	{r7, pc}
    2b74:	00002941 	.word	0x00002941
    2b78:	000029c1 	.word	0x000029c1
    2b7c:	40000c04 	.word	0x40000c04
    2b80:	40000c00 	.word	0x40000c00
    2b84:	000029d1 	.word	0x000029d1

00002b88 <system_gclk_gen_get_hz>:
    2b88:	b580      	push	{r7, lr}
    2b8a:	b086      	sub	sp, #24
    2b8c:	af00      	add	r7, sp, #0
    2b8e:	1c02      	adds	r2, r0, #0
    2b90:	1dfb      	adds	r3, r7, #7
    2b92:	701a      	strb	r2, [r3, #0]
    2b94:	46c0      	nop			; (mov r8, r8)
    2b96:	4b2e      	ldr	r3, [pc, #184]	; (2c50 <system_gclk_gen_get_hz+0xc8>)
    2b98:	4798      	blx	r3
    2b9a:	1e03      	subs	r3, r0, #0
    2b9c:	d1fb      	bne.n	2b96 <system_gclk_gen_get_hz+0xe>
    2b9e:	4b2d      	ldr	r3, [pc, #180]	; (2c54 <system_gclk_gen_get_hz+0xcc>)
    2ba0:	4798      	blx	r3
    2ba2:	4a2d      	ldr	r2, [pc, #180]	; (2c58 <system_gclk_gen_get_hz+0xd0>)
    2ba4:	1dfb      	adds	r3, r7, #7
    2ba6:	781b      	ldrb	r3, [r3, #0]
    2ba8:	7013      	strb	r3, [r2, #0]
    2baa:	46c0      	nop			; (mov r8, r8)
    2bac:	4b28      	ldr	r3, [pc, #160]	; (2c50 <system_gclk_gen_get_hz+0xc8>)
    2bae:	4798      	blx	r3
    2bb0:	1e03      	subs	r3, r0, #0
    2bb2:	d1fb      	bne.n	2bac <system_gclk_gen_get_hz+0x24>
    2bb4:	4b29      	ldr	r3, [pc, #164]	; (2c5c <system_gclk_gen_get_hz+0xd4>)
    2bb6:	685b      	ldr	r3, [r3, #4]
    2bb8:	0a1b      	lsrs	r3, r3, #8
    2bba:	1c1a      	adds	r2, r3, #0
    2bbc:	231f      	movs	r3, #31
    2bbe:	4013      	ands	r3, r2
    2bc0:	b2db      	uxtb	r3, r3
    2bc2:	1c18      	adds	r0, r3, #0
    2bc4:	4b26      	ldr	r3, [pc, #152]	; (2c60 <system_gclk_gen_get_hz+0xd8>)
    2bc6:	4798      	blx	r3
    2bc8:	1c03      	adds	r3, r0, #0
    2bca:	617b      	str	r3, [r7, #20]
    2bcc:	4a22      	ldr	r2, [pc, #136]	; (2c58 <system_gclk_gen_get_hz+0xd0>)
    2bce:	1dfb      	adds	r3, r7, #7
    2bd0:	781b      	ldrb	r3, [r3, #0]
    2bd2:	7013      	strb	r3, [r2, #0]
    2bd4:	4b21      	ldr	r3, [pc, #132]	; (2c5c <system_gclk_gen_get_hz+0xd4>)
    2bd6:	685b      	ldr	r3, [r3, #4]
    2bd8:	0d1b      	lsrs	r3, r3, #20
    2bda:	1c1a      	adds	r2, r3, #0
    2bdc:	2301      	movs	r3, #1
    2bde:	4013      	ands	r3, r2
    2be0:	b2da      	uxtb	r2, r3
    2be2:	2313      	movs	r3, #19
    2be4:	18fb      	adds	r3, r7, r3
    2be6:	701a      	strb	r2, [r3, #0]
    2be8:	4a1e      	ldr	r2, [pc, #120]	; (2c64 <system_gclk_gen_get_hz+0xdc>)
    2bea:	1dfb      	adds	r3, r7, #7
    2bec:	781b      	ldrb	r3, [r3, #0]
    2bee:	7013      	strb	r3, [r2, #0]
    2bf0:	46c0      	nop			; (mov r8, r8)
    2bf2:	4b17      	ldr	r3, [pc, #92]	; (2c50 <system_gclk_gen_get_hz+0xc8>)
    2bf4:	4798      	blx	r3
    2bf6:	1e03      	subs	r3, r0, #0
    2bf8:	d1fb      	bne.n	2bf2 <system_gclk_gen_get_hz+0x6a>
    2bfa:	4b18      	ldr	r3, [pc, #96]	; (2c5c <system_gclk_gen_get_hz+0xd4>)
    2bfc:	689b      	ldr	r3, [r3, #8]
    2bfe:	0a1b      	lsrs	r3, r3, #8
    2c00:	1c1a      	adds	r2, r3, #0
    2c02:	2300      	movs	r3, #0
    2c04:	439a      	bics	r2, r3
    2c06:	1c13      	adds	r3, r2, #0
    2c08:	b29b      	uxth	r3, r3
    2c0a:	60fb      	str	r3, [r7, #12]
    2c0c:	4b16      	ldr	r3, [pc, #88]	; (2c68 <system_gclk_gen_get_hz+0xe0>)
    2c0e:	4798      	blx	r3
    2c10:	2313      	movs	r3, #19
    2c12:	18fb      	adds	r3, r7, r3
    2c14:	781b      	ldrb	r3, [r3, #0]
    2c16:	2b00      	cmp	r3, #0
    2c18:	d109      	bne.n	2c2e <system_gclk_gen_get_hz+0xa6>
    2c1a:	68fb      	ldr	r3, [r7, #12]
    2c1c:	2b01      	cmp	r3, #1
    2c1e:	d906      	bls.n	2c2e <system_gclk_gen_get_hz+0xa6>
    2c20:	4b12      	ldr	r3, [pc, #72]	; (2c6c <system_gclk_gen_get_hz+0xe4>)
    2c22:	6978      	ldr	r0, [r7, #20]
    2c24:	68f9      	ldr	r1, [r7, #12]
    2c26:	4798      	blx	r3
    2c28:	1c03      	adds	r3, r0, #0
    2c2a:	617b      	str	r3, [r7, #20]
    2c2c:	e00a      	b.n	2c44 <system_gclk_gen_get_hz+0xbc>
    2c2e:	2313      	movs	r3, #19
    2c30:	18fb      	adds	r3, r7, r3
    2c32:	781b      	ldrb	r3, [r3, #0]
    2c34:	2b00      	cmp	r3, #0
    2c36:	d005      	beq.n	2c44 <system_gclk_gen_get_hz+0xbc>
    2c38:	68fb      	ldr	r3, [r7, #12]
    2c3a:	3301      	adds	r3, #1
    2c3c:	1c1a      	adds	r2, r3, #0
    2c3e:	697b      	ldr	r3, [r7, #20]
    2c40:	40d3      	lsrs	r3, r2
    2c42:	617b      	str	r3, [r7, #20]
    2c44:	697b      	ldr	r3, [r7, #20]
    2c46:	1c18      	adds	r0, r3, #0
    2c48:	46bd      	mov	sp, r7
    2c4a:	b006      	add	sp, #24
    2c4c:	bd80      	pop	{r7, pc}
    2c4e:	46c0      	nop			; (mov r8, r8)
    2c50:	00002941 	.word	0x00002941
    2c54:	000029c1 	.word	0x000029c1
    2c58:	40000c04 	.word	0x40000c04
    2c5c:	40000c00 	.word	0x40000c00
    2c60:	00002699 	.word	0x00002699
    2c64:	40000c08 	.word	0x40000c08
    2c68:	000029d1 	.word	0x000029d1
    2c6c:	000036a5 	.word	0x000036a5

00002c70 <system_gclk_chan_set_config>:
    2c70:	b580      	push	{r7, lr}
    2c72:	b084      	sub	sp, #16
    2c74:	af00      	add	r7, sp, #0
    2c76:	1c02      	adds	r2, r0, #0
    2c78:	6039      	str	r1, [r7, #0]
    2c7a:	1dfb      	adds	r3, r7, #7
    2c7c:	701a      	strb	r2, [r3, #0]
    2c7e:	1dfb      	adds	r3, r7, #7
    2c80:	781b      	ldrb	r3, [r3, #0]
    2c82:	60fb      	str	r3, [r7, #12]
    2c84:	683b      	ldr	r3, [r7, #0]
    2c86:	781b      	ldrb	r3, [r3, #0]
    2c88:	021b      	lsls	r3, r3, #8
    2c8a:	1c1a      	adds	r2, r3, #0
    2c8c:	68fb      	ldr	r3, [r7, #12]
    2c8e:	4313      	orrs	r3, r2
    2c90:	60fb      	str	r3, [r7, #12]
    2c92:	1dfb      	adds	r3, r7, #7
    2c94:	781b      	ldrb	r3, [r3, #0]
    2c96:	1c18      	adds	r0, r3, #0
    2c98:	4b04      	ldr	r3, [pc, #16]	; (2cac <system_gclk_chan_set_config+0x3c>)
    2c9a:	4798      	blx	r3
    2c9c:	4b04      	ldr	r3, [pc, #16]	; (2cb0 <system_gclk_chan_set_config+0x40>)
    2c9e:	68fa      	ldr	r2, [r7, #12]
    2ca0:	b292      	uxth	r2, r2
    2ca2:	805a      	strh	r2, [r3, #2]
    2ca4:	46bd      	mov	sp, r7
    2ca6:	b004      	add	sp, #16
    2ca8:	bd80      	pop	{r7, pc}
    2caa:	46c0      	nop			; (mov r8, r8)
    2cac:	00002cf9 	.word	0x00002cf9
    2cb0:	40000c00 	.word	0x40000c00

00002cb4 <system_gclk_chan_enable>:
    2cb4:	b580      	push	{r7, lr}
    2cb6:	b082      	sub	sp, #8
    2cb8:	af00      	add	r7, sp, #0
    2cba:	1c02      	adds	r2, r0, #0
    2cbc:	1dfb      	adds	r3, r7, #7
    2cbe:	701a      	strb	r2, [r3, #0]
    2cc0:	4b09      	ldr	r3, [pc, #36]	; (2ce8 <system_gclk_chan_enable+0x34>)
    2cc2:	4798      	blx	r3
    2cc4:	4a09      	ldr	r2, [pc, #36]	; (2cec <system_gclk_chan_enable+0x38>)
    2cc6:	1dfb      	adds	r3, r7, #7
    2cc8:	781b      	ldrb	r3, [r3, #0]
    2cca:	7013      	strb	r3, [r2, #0]
    2ccc:	4908      	ldr	r1, [pc, #32]	; (2cf0 <system_gclk_chan_enable+0x3c>)
    2cce:	4b08      	ldr	r3, [pc, #32]	; (2cf0 <system_gclk_chan_enable+0x3c>)
    2cd0:	885b      	ldrh	r3, [r3, #2]
    2cd2:	b29b      	uxth	r3, r3
    2cd4:	2280      	movs	r2, #128	; 0x80
    2cd6:	01d2      	lsls	r2, r2, #7
    2cd8:	4313      	orrs	r3, r2
    2cda:	b29b      	uxth	r3, r3
    2cdc:	804b      	strh	r3, [r1, #2]
    2cde:	4b05      	ldr	r3, [pc, #20]	; (2cf4 <system_gclk_chan_enable+0x40>)
    2ce0:	4798      	blx	r3
    2ce2:	46bd      	mov	sp, r7
    2ce4:	b002      	add	sp, #8
    2ce6:	bd80      	pop	{r7, pc}
    2ce8:	000029c1 	.word	0x000029c1
    2cec:	40000c02 	.word	0x40000c02
    2cf0:	40000c00 	.word	0x40000c00
    2cf4:	000029d1 	.word	0x000029d1

00002cf8 <system_gclk_chan_disable>:
    2cf8:	b580      	push	{r7, lr}
    2cfa:	b084      	sub	sp, #16
    2cfc:	af00      	add	r7, sp, #0
    2cfe:	1c02      	adds	r2, r0, #0
    2d00:	1dfb      	adds	r3, r7, #7
    2d02:	701a      	strb	r2, [r3, #0]
    2d04:	4b1d      	ldr	r3, [pc, #116]	; (2d7c <system_gclk_chan_disable+0x84>)
    2d06:	4798      	blx	r3
    2d08:	4a1d      	ldr	r2, [pc, #116]	; (2d80 <system_gclk_chan_disable+0x88>)
    2d0a:	1dfb      	adds	r3, r7, #7
    2d0c:	781b      	ldrb	r3, [r3, #0]
    2d0e:	7013      	strb	r3, [r2, #0]
    2d10:	4b1c      	ldr	r3, [pc, #112]	; (2d84 <system_gclk_chan_disable+0x8c>)
    2d12:	885b      	ldrh	r3, [r3, #2]
    2d14:	b29b      	uxth	r3, r3
    2d16:	0a1b      	lsrs	r3, r3, #8
    2d18:	1c1a      	adds	r2, r3, #0
    2d1a:	230f      	movs	r3, #15
    2d1c:	4013      	ands	r3, r2
    2d1e:	b2db      	uxtb	r3, r3
    2d20:	60fb      	str	r3, [r7, #12]
    2d22:	4b18      	ldr	r3, [pc, #96]	; (2d84 <system_gclk_chan_disable+0x8c>)
    2d24:	885a      	ldrh	r2, [r3, #2]
    2d26:	4918      	ldr	r1, [pc, #96]	; (2d88 <system_gclk_chan_disable+0x90>)
    2d28:	400a      	ands	r2, r1
    2d2a:	805a      	strh	r2, [r3, #2]
    2d2c:	4a15      	ldr	r2, [pc, #84]	; (2d84 <system_gclk_chan_disable+0x8c>)
    2d2e:	4b15      	ldr	r3, [pc, #84]	; (2d84 <system_gclk_chan_disable+0x8c>)
    2d30:	885b      	ldrh	r3, [r3, #2]
    2d32:	b29b      	uxth	r3, r3
    2d34:	4915      	ldr	r1, [pc, #84]	; (2d8c <system_gclk_chan_disable+0x94>)
    2d36:	400b      	ands	r3, r1
    2d38:	b29b      	uxth	r3, r3
    2d3a:	8053      	strh	r3, [r2, #2]
    2d3c:	46c0      	nop			; (mov r8, r8)
    2d3e:	4b11      	ldr	r3, [pc, #68]	; (2d84 <system_gclk_chan_disable+0x8c>)
    2d40:	885b      	ldrh	r3, [r3, #2]
    2d42:	b29b      	uxth	r3, r3
    2d44:	1c1a      	adds	r2, r3, #0
    2d46:	2380      	movs	r3, #128	; 0x80
    2d48:	01db      	lsls	r3, r3, #7
    2d4a:	4013      	ands	r3, r2
    2d4c:	d1f7      	bne.n	2d3e <system_gclk_chan_disable+0x46>
    2d4e:	4b0d      	ldr	r3, [pc, #52]	; (2d84 <system_gclk_chan_disable+0x8c>)
    2d50:	68fa      	ldr	r2, [r7, #12]
    2d52:	b2d2      	uxtb	r2, r2
    2d54:	1c11      	adds	r1, r2, #0
    2d56:	220f      	movs	r2, #15
    2d58:	400a      	ands	r2, r1
    2d5a:	b2d2      	uxtb	r2, r2
    2d5c:	1c11      	adds	r1, r2, #0
    2d5e:	220f      	movs	r2, #15
    2d60:	400a      	ands	r2, r1
    2d62:	0210      	lsls	r0, r2, #8
    2d64:	885a      	ldrh	r2, [r3, #2]
    2d66:	4908      	ldr	r1, [pc, #32]	; (2d88 <system_gclk_chan_disable+0x90>)
    2d68:	400a      	ands	r2, r1
    2d6a:	1c11      	adds	r1, r2, #0
    2d6c:	1c02      	adds	r2, r0, #0
    2d6e:	430a      	orrs	r2, r1
    2d70:	805a      	strh	r2, [r3, #2]
    2d72:	4b07      	ldr	r3, [pc, #28]	; (2d90 <system_gclk_chan_disable+0x98>)
    2d74:	4798      	blx	r3
    2d76:	46bd      	mov	sp, r7
    2d78:	b004      	add	sp, #16
    2d7a:	bd80      	pop	{r7, pc}
    2d7c:	000029c1 	.word	0x000029c1
    2d80:	40000c02 	.word	0x40000c02
    2d84:	40000c00 	.word	0x40000c00
    2d88:	fffff0ff 	.word	0xfffff0ff
    2d8c:	ffffbfff 	.word	0xffffbfff
    2d90:	000029d1 	.word	0x000029d1

00002d94 <system_gclk_chan_get_hz>:
    2d94:	b580      	push	{r7, lr}
    2d96:	b084      	sub	sp, #16
    2d98:	af00      	add	r7, sp, #0
    2d9a:	1c02      	adds	r2, r0, #0
    2d9c:	1dfb      	adds	r3, r7, #7
    2d9e:	701a      	strb	r2, [r3, #0]
    2da0:	4b0e      	ldr	r3, [pc, #56]	; (2ddc <system_gclk_chan_get_hz+0x48>)
    2da2:	4798      	blx	r3
    2da4:	4a0e      	ldr	r2, [pc, #56]	; (2de0 <system_gclk_chan_get_hz+0x4c>)
    2da6:	1dfb      	adds	r3, r7, #7
    2da8:	781b      	ldrb	r3, [r3, #0]
    2daa:	7013      	strb	r3, [r2, #0]
    2dac:	4b0d      	ldr	r3, [pc, #52]	; (2de4 <system_gclk_chan_get_hz+0x50>)
    2dae:	885b      	ldrh	r3, [r3, #2]
    2db0:	b29b      	uxth	r3, r3
    2db2:	0a1b      	lsrs	r3, r3, #8
    2db4:	1c1a      	adds	r2, r3, #0
    2db6:	230f      	movs	r3, #15
    2db8:	4013      	ands	r3, r2
    2dba:	b2da      	uxtb	r2, r3
    2dbc:	230f      	movs	r3, #15
    2dbe:	18fb      	adds	r3, r7, r3
    2dc0:	701a      	strb	r2, [r3, #0]
    2dc2:	4b09      	ldr	r3, [pc, #36]	; (2de8 <system_gclk_chan_get_hz+0x54>)
    2dc4:	4798      	blx	r3
    2dc6:	230f      	movs	r3, #15
    2dc8:	18fb      	adds	r3, r7, r3
    2dca:	781b      	ldrb	r3, [r3, #0]
    2dcc:	1c18      	adds	r0, r3, #0
    2dce:	4b07      	ldr	r3, [pc, #28]	; (2dec <system_gclk_chan_get_hz+0x58>)
    2dd0:	4798      	blx	r3
    2dd2:	1c03      	adds	r3, r0, #0
    2dd4:	1c18      	adds	r0, r3, #0
    2dd6:	46bd      	mov	sp, r7
    2dd8:	b004      	add	sp, #16
    2dda:	bd80      	pop	{r7, pc}
    2ddc:	000029c1 	.word	0x000029c1
    2de0:	40000c02 	.word	0x40000c02
    2de4:	40000c00 	.word	0x40000c00
    2de8:	000029d1 	.word	0x000029d1
    2dec:	00002b89 	.word	0x00002b89

00002df0 <system_pinmux_get_group_from_gpio_pin>:
    2df0:	b580      	push	{r7, lr}
    2df2:	b084      	sub	sp, #16
    2df4:	af00      	add	r7, sp, #0
    2df6:	1c02      	adds	r2, r0, #0
    2df8:	1dfb      	adds	r3, r7, #7
    2dfa:	701a      	strb	r2, [r3, #0]
    2dfc:	230f      	movs	r3, #15
    2dfe:	18fb      	adds	r3, r7, r3
    2e00:	1dfa      	adds	r2, r7, #7
    2e02:	7812      	ldrb	r2, [r2, #0]
    2e04:	09d2      	lsrs	r2, r2, #7
    2e06:	701a      	strb	r2, [r3, #0]
    2e08:	230e      	movs	r3, #14
    2e0a:	18fb      	adds	r3, r7, r3
    2e0c:	1dfa      	adds	r2, r7, #7
    2e0e:	7812      	ldrb	r2, [r2, #0]
    2e10:	0952      	lsrs	r2, r2, #5
    2e12:	701a      	strb	r2, [r3, #0]
    2e14:	4b0d      	ldr	r3, [pc, #52]	; (2e4c <system_pinmux_get_group_from_gpio_pin+0x5c>)
    2e16:	60bb      	str	r3, [r7, #8]
    2e18:	230f      	movs	r3, #15
    2e1a:	18fb      	adds	r3, r7, r3
    2e1c:	781b      	ldrb	r3, [r3, #0]
    2e1e:	2b00      	cmp	r3, #0
    2e20:	d10f      	bne.n	2e42 <system_pinmux_get_group_from_gpio_pin+0x52>
    2e22:	230f      	movs	r3, #15
    2e24:	18fb      	adds	r3, r7, r3
    2e26:	781b      	ldrb	r3, [r3, #0]
    2e28:	009b      	lsls	r3, r3, #2
    2e2a:	2210      	movs	r2, #16
    2e2c:	4694      	mov	ip, r2
    2e2e:	44bc      	add	ip, r7
    2e30:	4463      	add	r3, ip
    2e32:	3b08      	subs	r3, #8
    2e34:	681a      	ldr	r2, [r3, #0]
    2e36:	230e      	movs	r3, #14
    2e38:	18fb      	adds	r3, r7, r3
    2e3a:	781b      	ldrb	r3, [r3, #0]
    2e3c:	01db      	lsls	r3, r3, #7
    2e3e:	18d3      	adds	r3, r2, r3
    2e40:	e000      	b.n	2e44 <system_pinmux_get_group_from_gpio_pin+0x54>
    2e42:	2300      	movs	r3, #0
    2e44:	1c18      	adds	r0, r3, #0
    2e46:	46bd      	mov	sp, r7
    2e48:	b004      	add	sp, #16
    2e4a:	bd80      	pop	{r7, pc}
    2e4c:	41004400 	.word	0x41004400

00002e50 <_system_pinmux_config>:
    2e50:	b580      	push	{r7, lr}
    2e52:	b088      	sub	sp, #32
    2e54:	af00      	add	r7, sp, #0
    2e56:	60f8      	str	r0, [r7, #12]
    2e58:	60b9      	str	r1, [r7, #8]
    2e5a:	607a      	str	r2, [r7, #4]
    2e5c:	2300      	movs	r3, #0
    2e5e:	61fb      	str	r3, [r7, #28]
    2e60:	687b      	ldr	r3, [r7, #4]
    2e62:	78db      	ldrb	r3, [r3, #3]
    2e64:	2201      	movs	r2, #1
    2e66:	4053      	eors	r3, r2
    2e68:	b2db      	uxtb	r3, r3
    2e6a:	2b00      	cmp	r3, #0
    2e6c:	d035      	beq.n	2eda <_system_pinmux_config+0x8a>
    2e6e:	687b      	ldr	r3, [r7, #4]
    2e70:	781b      	ldrb	r3, [r3, #0]
    2e72:	2b80      	cmp	r3, #128	; 0x80
    2e74:	d00b      	beq.n	2e8e <_system_pinmux_config+0x3e>
    2e76:	69fb      	ldr	r3, [r7, #28]
    2e78:	2280      	movs	r2, #128	; 0x80
    2e7a:	0252      	lsls	r2, r2, #9
    2e7c:	4313      	orrs	r3, r2
    2e7e:	61fb      	str	r3, [r7, #28]
    2e80:	687b      	ldr	r3, [r7, #4]
    2e82:	781b      	ldrb	r3, [r3, #0]
    2e84:	061b      	lsls	r3, r3, #24
    2e86:	1c1a      	adds	r2, r3, #0
    2e88:	69fb      	ldr	r3, [r7, #28]
    2e8a:	4313      	orrs	r3, r2
    2e8c:	61fb      	str	r3, [r7, #28]
    2e8e:	687b      	ldr	r3, [r7, #4]
    2e90:	785b      	ldrb	r3, [r3, #1]
    2e92:	2b00      	cmp	r3, #0
    2e94:	d003      	beq.n	2e9e <_system_pinmux_config+0x4e>
    2e96:	687b      	ldr	r3, [r7, #4]
    2e98:	785b      	ldrb	r3, [r3, #1]
    2e9a:	2b02      	cmp	r3, #2
    2e9c:	d110      	bne.n	2ec0 <_system_pinmux_config+0x70>
    2e9e:	69fb      	ldr	r3, [r7, #28]
    2ea0:	2280      	movs	r2, #128	; 0x80
    2ea2:	0292      	lsls	r2, r2, #10
    2ea4:	4313      	orrs	r3, r2
    2ea6:	61fb      	str	r3, [r7, #28]
    2ea8:	687b      	ldr	r3, [r7, #4]
    2eaa:	789b      	ldrb	r3, [r3, #2]
    2eac:	2b00      	cmp	r3, #0
    2eae:	d004      	beq.n	2eba <_system_pinmux_config+0x6a>
    2eb0:	69fb      	ldr	r3, [r7, #28]
    2eb2:	2280      	movs	r2, #128	; 0x80
    2eb4:	02d2      	lsls	r2, r2, #11
    2eb6:	4313      	orrs	r3, r2
    2eb8:	61fb      	str	r3, [r7, #28]
    2eba:	68fb      	ldr	r3, [r7, #12]
    2ebc:	68ba      	ldr	r2, [r7, #8]
    2ebe:	605a      	str	r2, [r3, #4]
    2ec0:	687b      	ldr	r3, [r7, #4]
    2ec2:	785b      	ldrb	r3, [r3, #1]
    2ec4:	2b01      	cmp	r3, #1
    2ec6:	d003      	beq.n	2ed0 <_system_pinmux_config+0x80>
    2ec8:	687b      	ldr	r3, [r7, #4]
    2eca:	785b      	ldrb	r3, [r3, #1]
    2ecc:	2b02      	cmp	r3, #2
    2ece:	d107      	bne.n	2ee0 <_system_pinmux_config+0x90>
    2ed0:	69fb      	ldr	r3, [r7, #28]
    2ed2:	4a21      	ldr	r2, [pc, #132]	; (2f58 <_system_pinmux_config+0x108>)
    2ed4:	4013      	ands	r3, r2
    2ed6:	61fb      	str	r3, [r7, #28]
    2ed8:	e002      	b.n	2ee0 <_system_pinmux_config+0x90>
    2eda:	68fb      	ldr	r3, [r7, #12]
    2edc:	68ba      	ldr	r2, [r7, #8]
    2ede:	605a      	str	r2, [r3, #4]
    2ee0:	68bb      	ldr	r3, [r7, #8]
    2ee2:	041b      	lsls	r3, r3, #16
    2ee4:	0c1b      	lsrs	r3, r3, #16
    2ee6:	61bb      	str	r3, [r7, #24]
    2ee8:	68bb      	ldr	r3, [r7, #8]
    2eea:	0c1b      	lsrs	r3, r3, #16
    2eec:	617b      	str	r3, [r7, #20]
    2eee:	69ba      	ldr	r2, [r7, #24]
    2ef0:	69fb      	ldr	r3, [r7, #28]
    2ef2:	4313      	orrs	r3, r2
    2ef4:	22a0      	movs	r2, #160	; 0xa0
    2ef6:	05d2      	lsls	r2, r2, #23
    2ef8:	431a      	orrs	r2, r3
    2efa:	68fb      	ldr	r3, [r7, #12]
    2efc:	629a      	str	r2, [r3, #40]	; 0x28
    2efe:	697a      	ldr	r2, [r7, #20]
    2f00:	69fb      	ldr	r3, [r7, #28]
    2f02:	4313      	orrs	r3, r2
    2f04:	22d0      	movs	r2, #208	; 0xd0
    2f06:	0612      	lsls	r2, r2, #24
    2f08:	431a      	orrs	r2, r3
    2f0a:	68fb      	ldr	r3, [r7, #12]
    2f0c:	629a      	str	r2, [r3, #40]	; 0x28
    2f0e:	687b      	ldr	r3, [r7, #4]
    2f10:	78db      	ldrb	r3, [r3, #3]
    2f12:	2201      	movs	r2, #1
    2f14:	4053      	eors	r3, r2
    2f16:	b2db      	uxtb	r3, r3
    2f18:	2b00      	cmp	r3, #0
    2f1a:	d01a      	beq.n	2f52 <_system_pinmux_config+0x102>
    2f1c:	69fa      	ldr	r2, [r7, #28]
    2f1e:	2380      	movs	r3, #128	; 0x80
    2f20:	02db      	lsls	r3, r3, #11
    2f22:	4013      	ands	r3, r2
    2f24:	d00a      	beq.n	2f3c <_system_pinmux_config+0xec>
    2f26:	687b      	ldr	r3, [r7, #4]
    2f28:	789b      	ldrb	r3, [r3, #2]
    2f2a:	2b01      	cmp	r3, #1
    2f2c:	d103      	bne.n	2f36 <_system_pinmux_config+0xe6>
    2f2e:	68fb      	ldr	r3, [r7, #12]
    2f30:	68ba      	ldr	r2, [r7, #8]
    2f32:	619a      	str	r2, [r3, #24]
    2f34:	e002      	b.n	2f3c <_system_pinmux_config+0xec>
    2f36:	68fb      	ldr	r3, [r7, #12]
    2f38:	68ba      	ldr	r2, [r7, #8]
    2f3a:	615a      	str	r2, [r3, #20]
    2f3c:	687b      	ldr	r3, [r7, #4]
    2f3e:	785b      	ldrb	r3, [r3, #1]
    2f40:	2b01      	cmp	r3, #1
    2f42:	d003      	beq.n	2f4c <_system_pinmux_config+0xfc>
    2f44:	687b      	ldr	r3, [r7, #4]
    2f46:	785b      	ldrb	r3, [r3, #1]
    2f48:	2b02      	cmp	r3, #2
    2f4a:	d102      	bne.n	2f52 <_system_pinmux_config+0x102>
    2f4c:	68fb      	ldr	r3, [r7, #12]
    2f4e:	68ba      	ldr	r2, [r7, #8]
    2f50:	609a      	str	r2, [r3, #8]
    2f52:	46bd      	mov	sp, r7
    2f54:	b008      	add	sp, #32
    2f56:	bd80      	pop	{r7, pc}
    2f58:	fffbffff 	.word	0xfffbffff

00002f5c <system_pinmux_pin_set_config>:
    2f5c:	b580      	push	{r7, lr}
    2f5e:	b084      	sub	sp, #16
    2f60:	af00      	add	r7, sp, #0
    2f62:	1c02      	adds	r2, r0, #0
    2f64:	6039      	str	r1, [r7, #0]
    2f66:	1dfb      	adds	r3, r7, #7
    2f68:	701a      	strb	r2, [r3, #0]
    2f6a:	1dfb      	adds	r3, r7, #7
    2f6c:	781b      	ldrb	r3, [r3, #0]
    2f6e:	1c18      	adds	r0, r3, #0
    2f70:	4b0b      	ldr	r3, [pc, #44]	; (2fa0 <system_pinmux_pin_set_config+0x44>)
    2f72:	4798      	blx	r3
    2f74:	1c03      	adds	r3, r0, #0
    2f76:	60fb      	str	r3, [r7, #12]
    2f78:	1dfb      	adds	r3, r7, #7
    2f7a:	781b      	ldrb	r3, [r3, #0]
    2f7c:	221f      	movs	r2, #31
    2f7e:	4013      	ands	r3, r2
    2f80:	2201      	movs	r2, #1
    2f82:	409a      	lsls	r2, r3
    2f84:	1c13      	adds	r3, r2, #0
    2f86:	60bb      	str	r3, [r7, #8]
    2f88:	68f9      	ldr	r1, [r7, #12]
    2f8a:	68ba      	ldr	r2, [r7, #8]
    2f8c:	683b      	ldr	r3, [r7, #0]
    2f8e:	1c08      	adds	r0, r1, #0
    2f90:	1c11      	adds	r1, r2, #0
    2f92:	1c1a      	adds	r2, r3, #0
    2f94:	4b03      	ldr	r3, [pc, #12]	; (2fa4 <system_pinmux_pin_set_config+0x48>)
    2f96:	4798      	blx	r3
    2f98:	46bd      	mov	sp, r7
    2f9a:	b004      	add	sp, #16
    2f9c:	bd80      	pop	{r7, pc}
    2f9e:	46c0      	nop			; (mov r8, r8)
    2fa0:	00002df1 	.word	0x00002df1
    2fa4:	00002e51 	.word	0x00002e51

00002fa8 <_system_dummy_init>:
    2fa8:	b580      	push	{r7, lr}
    2faa:	af00      	add	r7, sp, #0
    2fac:	46c0      	nop			; (mov r8, r8)
    2fae:	46bd      	mov	sp, r7
    2fb0:	bd80      	pop	{r7, pc}
    2fb2:	46c0      	nop			; (mov r8, r8)

00002fb4 <system_init>:
    2fb4:	b580      	push	{r7, lr}
    2fb6:	af00      	add	r7, sp, #0
    2fb8:	4b04      	ldr	r3, [pc, #16]	; (2fcc <system_init+0x18>)
    2fba:	4798      	blx	r3
    2fbc:	4b04      	ldr	r3, [pc, #16]	; (2fd0 <system_init+0x1c>)
    2fbe:	4798      	blx	r3
    2fc0:	4b04      	ldr	r3, [pc, #16]	; (2fd4 <system_init+0x20>)
    2fc2:	4798      	blx	r3
    2fc4:	4b04      	ldr	r3, [pc, #16]	; (2fd8 <system_init+0x24>)
    2fc6:	4798      	blx	r3
    2fc8:	46bd      	mov	sp, r7
    2fca:	bd80      	pop	{r7, pc}
    2fcc:	0000287d 	.word	0x0000287d
    2fd0:	00002475 	.word	0x00002475
    2fd4:	00002fa9 	.word	0x00002fa9
    2fd8:	00002fa9 	.word	0x00002fa9

00002fdc <Reset_Handler>:
    2fdc:	b580      	push	{r7, lr}
    2fde:	b082      	sub	sp, #8
    2fe0:	af00      	add	r7, sp, #0
    2fe2:	4b16      	ldr	r3, [pc, #88]	; (303c <Reset_Handler+0x60>)
    2fe4:	607b      	str	r3, [r7, #4]
    2fe6:	4b16      	ldr	r3, [pc, #88]	; (3040 <Reset_Handler+0x64>)
    2fe8:	603b      	str	r3, [r7, #0]
    2fea:	687a      	ldr	r2, [r7, #4]
    2fec:	683b      	ldr	r3, [r7, #0]
    2fee:	429a      	cmp	r2, r3
    2ff0:	d00c      	beq.n	300c <Reset_Handler+0x30>
    2ff2:	e007      	b.n	3004 <Reset_Handler+0x28>
    2ff4:	683b      	ldr	r3, [r7, #0]
    2ff6:	1d1a      	adds	r2, r3, #4
    2ff8:	603a      	str	r2, [r7, #0]
    2ffa:	687a      	ldr	r2, [r7, #4]
    2ffc:	1d11      	adds	r1, r2, #4
    2ffe:	6079      	str	r1, [r7, #4]
    3000:	6812      	ldr	r2, [r2, #0]
    3002:	601a      	str	r2, [r3, #0]
    3004:	683a      	ldr	r2, [r7, #0]
    3006:	4b0f      	ldr	r3, [pc, #60]	; (3044 <Reset_Handler+0x68>)
    3008:	429a      	cmp	r2, r3
    300a:	d3f3      	bcc.n	2ff4 <Reset_Handler+0x18>
    300c:	4b0e      	ldr	r3, [pc, #56]	; (3048 <Reset_Handler+0x6c>)
    300e:	603b      	str	r3, [r7, #0]
    3010:	e004      	b.n	301c <Reset_Handler+0x40>
    3012:	683b      	ldr	r3, [r7, #0]
    3014:	1d1a      	adds	r2, r3, #4
    3016:	603a      	str	r2, [r7, #0]
    3018:	2200      	movs	r2, #0
    301a:	601a      	str	r2, [r3, #0]
    301c:	683a      	ldr	r2, [r7, #0]
    301e:	4b0b      	ldr	r3, [pc, #44]	; (304c <Reset_Handler+0x70>)
    3020:	429a      	cmp	r2, r3
    3022:	d3f6      	bcc.n	3012 <Reset_Handler+0x36>
    3024:	4b0a      	ldr	r3, [pc, #40]	; (3050 <Reset_Handler+0x74>)
    3026:	607b      	str	r3, [r7, #4]
    3028:	4b0a      	ldr	r3, [pc, #40]	; (3054 <Reset_Handler+0x78>)
    302a:	687a      	ldr	r2, [r7, #4]
    302c:	217f      	movs	r1, #127	; 0x7f
    302e:	438a      	bics	r2, r1
    3030:	609a      	str	r2, [r3, #8]
    3032:	4b09      	ldr	r3, [pc, #36]	; (3058 <Reset_Handler+0x7c>)
    3034:	4798      	blx	r3
    3036:	4b09      	ldr	r3, [pc, #36]	; (305c <Reset_Handler+0x80>)
    3038:	4798      	blx	r3
    303a:	e7fe      	b.n	303a <Reset_Handler+0x5e>
    303c:	0000588c 	.word	0x0000588c
    3040:	20000000 	.word	0x20000000
    3044:	2000006c 	.word	0x2000006c
    3048:	2000006c 	.word	0x2000006c
    304c:	200001f0 	.word	0x200001f0
    3050:	00000000 	.word	0x00000000
    3054:	e000ed00 	.word	0xe000ed00
    3058:	000046d9 	.word	0x000046d9
    305c:	00003639 	.word	0x00003639

00003060 <Dummy_Handler>:
    3060:	b580      	push	{r7, lr}
    3062:	af00      	add	r7, sp, #0
    3064:	e7fe      	b.n	3064 <Dummy_Handler+0x4>
    3066:	46c0      	nop			; (mov r8, r8)

00003068 <_sbrk>:
    3068:	b580      	push	{r7, lr}
    306a:	b084      	sub	sp, #16
    306c:	af00      	add	r7, sp, #0
    306e:	6078      	str	r0, [r7, #4]
    3070:	4b0a      	ldr	r3, [pc, #40]	; (309c <_sbrk+0x34>)
    3072:	681b      	ldr	r3, [r3, #0]
    3074:	2b00      	cmp	r3, #0
    3076:	d102      	bne.n	307e <_sbrk+0x16>
    3078:	4b08      	ldr	r3, [pc, #32]	; (309c <_sbrk+0x34>)
    307a:	4a09      	ldr	r2, [pc, #36]	; (30a0 <_sbrk+0x38>)
    307c:	601a      	str	r2, [r3, #0]
    307e:	4b07      	ldr	r3, [pc, #28]	; (309c <_sbrk+0x34>)
    3080:	681b      	ldr	r3, [r3, #0]
    3082:	60fb      	str	r3, [r7, #12]
    3084:	4b05      	ldr	r3, [pc, #20]	; (309c <_sbrk+0x34>)
    3086:	681a      	ldr	r2, [r3, #0]
    3088:	687b      	ldr	r3, [r7, #4]
    308a:	18d2      	adds	r2, r2, r3
    308c:	4b03      	ldr	r3, [pc, #12]	; (309c <_sbrk+0x34>)
    308e:	601a      	str	r2, [r3, #0]
    3090:	68fb      	ldr	r3, [r7, #12]
    3092:	1c18      	adds	r0, r3, #0
    3094:	46bd      	mov	sp, r7
    3096:	b004      	add	sp, #16
    3098:	bd80      	pop	{r7, pc}
    309a:	46c0      	nop			; (mov r8, r8)
    309c:	2000014c 	.word	0x2000014c
    30a0:	200021f0 	.word	0x200021f0

000030a4 <_close>:
    30a4:	b580      	push	{r7, lr}
    30a6:	b082      	sub	sp, #8
    30a8:	af00      	add	r7, sp, #0
    30aa:	6078      	str	r0, [r7, #4]
    30ac:	2301      	movs	r3, #1
    30ae:	425b      	negs	r3, r3
    30b0:	1c18      	adds	r0, r3, #0
    30b2:	46bd      	mov	sp, r7
    30b4:	b002      	add	sp, #8
    30b6:	bd80      	pop	{r7, pc}

000030b8 <_fstat>:
    30b8:	b580      	push	{r7, lr}
    30ba:	b082      	sub	sp, #8
    30bc:	af00      	add	r7, sp, #0
    30be:	6078      	str	r0, [r7, #4]
    30c0:	6039      	str	r1, [r7, #0]
    30c2:	683b      	ldr	r3, [r7, #0]
    30c4:	2280      	movs	r2, #128	; 0x80
    30c6:	0192      	lsls	r2, r2, #6
    30c8:	605a      	str	r2, [r3, #4]
    30ca:	2300      	movs	r3, #0
    30cc:	1c18      	adds	r0, r3, #0
    30ce:	46bd      	mov	sp, r7
    30d0:	b002      	add	sp, #8
    30d2:	bd80      	pop	{r7, pc}

000030d4 <_isatty>:
    30d4:	b580      	push	{r7, lr}
    30d6:	b082      	sub	sp, #8
    30d8:	af00      	add	r7, sp, #0
    30da:	6078      	str	r0, [r7, #4]
    30dc:	2301      	movs	r3, #1
    30de:	1c18      	adds	r0, r3, #0
    30e0:	46bd      	mov	sp, r7
    30e2:	b002      	add	sp, #8
    30e4:	bd80      	pop	{r7, pc}
    30e6:	46c0      	nop			; (mov r8, r8)

000030e8 <_lseek>:
    30e8:	b580      	push	{r7, lr}
    30ea:	b084      	sub	sp, #16
    30ec:	af00      	add	r7, sp, #0
    30ee:	60f8      	str	r0, [r7, #12]
    30f0:	60b9      	str	r1, [r7, #8]
    30f2:	607a      	str	r2, [r7, #4]
    30f4:	2300      	movs	r3, #0
    30f6:	1c18      	adds	r0, r3, #0
    30f8:	46bd      	mov	sp, r7
    30fa:	b004      	add	sp, #16
    30fc:	bd80      	pop	{r7, pc}
    30fe:	46c0      	nop			; (mov r8, r8)

00003100 <i2c_master_is_syncing>:
 * \retval true   Module is busy synchronizing
 * \retval false  Module is not synchronizing
 */
static inline bool i2c_master_is_syncing (
		const struct i2c_master_module *const module)
{
    3100:	b580      	push	{r7, lr}
    3102:	b084      	sub	sp, #16
    3104:	af00      	add	r7, sp, #0
    3106:	6078      	str	r0, [r7, #4]
	/* Sanity check. */
	Assert(module);
	Assert(module->hw);

	SercomI2cm *const i2c_hw = &(module->hw->I2CM);
    3108:	687b      	ldr	r3, [r7, #4]
    310a:	681b      	ldr	r3, [r3, #0]
    310c:	60fb      	str	r3, [r7, #12]

#if defined(FEATURE_SERCOM_SYNCBUSY_SCHEME_VERSION_1)
	return (i2c_hw->STATUS.reg & SERCOM_I2CM_STATUS_SYNCBUSY);
#elif defined(FEATURE_SERCOM_SYNCBUSY_SCHEME_VERSION_2)
	return (i2c_hw->SYNCBUSY.reg & SERCOM_I2CM_SYNCBUSY_MASK);
    310e:	68fb      	ldr	r3, [r7, #12]
    3110:	69db      	ldr	r3, [r3, #28]
    3112:	2207      	movs	r2, #7
    3114:	4013      	ands	r3, r2
    3116:	1e5a      	subs	r2, r3, #1
    3118:	4193      	sbcs	r3, r2
    311a:	b2db      	uxtb	r3, r3
#else
#  error Unknown SERCOM SYNCBUSY scheme!
#endif
}
    311c:	1c18      	adds	r0, r3, #0
    311e:	46bd      	mov	sp, r7
    3120:	b004      	add	sp, #16
    3122:	bd80      	pop	{r7, pc}

00003124 <_i2c_master_wait_for_sync>:
 *
 * \param[in]  module  Pointer to software module structure
 */
static void _i2c_master_wait_for_sync(
		const struct i2c_master_module *const module)
{
    3124:	b580      	push	{r7, lr}
    3126:	b082      	sub	sp, #8
    3128:	af00      	add	r7, sp, #0
    312a:	6078      	str	r0, [r7, #4]
	/* Sanity check. */
	Assert(module);

	while (i2c_master_is_syncing(module)) {
    312c:	46c0      	nop			; (mov r8, r8)
    312e:	687b      	ldr	r3, [r7, #4]
    3130:	1c18      	adds	r0, r3, #0
    3132:	4b03      	ldr	r3, [pc, #12]	; (3140 <_i2c_master_wait_for_sync+0x1c>)
    3134:	4798      	blx	r3
    3136:	1e03      	subs	r3, r0, #0
    3138:	d1f9      	bne.n	312e <_i2c_master_wait_for_sync+0xa>
		/* Wait for I2C module to sync. */
	}
}
    313a:	46bd      	mov	sp, r7
    313c:	b002      	add	sp, #8
    313e:	bd80      	pop	{r7, pc}
    3140:	00003101 	.word	0x00003101

00003144 <i2c_master_get_config_defaults>:
 *
 * \param[out] config  Pointer to configuration structure to be initiated
 */
static inline void i2c_master_get_config_defaults(
		struct i2c_master_config *const config)
{
    3144:	b580      	push	{r7, lr}
    3146:	b082      	sub	sp, #8
    3148:	af00      	add	r7, sp, #0
    314a:	6078      	str	r0, [r7, #4]
	/*Sanity check argument. */
	Assert(config);
	config->baud_rate        = I2C_MASTER_BAUD_RATE_100KHZ;
    314c:	687b      	ldr	r3, [r7, #4]
    314e:	2264      	movs	r2, #100	; 0x64
    3150:	601a      	str	r2, [r3, #0]
#ifdef FEATURE_I2C_FAST_MODE_PLUS_AND_HIGH_SPEED
	config->baud_rate_high_speed = I2C_MASTER_BAUD_RATE_3400KHZ;
    3152:	687b      	ldr	r3, [r7, #4]
    3154:	4a19      	ldr	r2, [pc, #100]	; (31bc <i2c_master_get_config_defaults+0x78>)
    3156:	605a      	str	r2, [r3, #4]
	config->transfer_speed       = I2C_MASTER_SPEED_STANDARD_AND_FAST;
    3158:	687b      	ldr	r3, [r7, #4]
    315a:	2200      	movs	r2, #0
    315c:	609a      	str	r2, [r3, #8]
#endif
	config->generator_source = GCLK_GENERATOR_0;
    315e:	687b      	ldr	r3, [r7, #4]
    3160:	2200      	movs	r2, #0
    3162:	731a      	strb	r2, [r3, #12]
	config->run_in_standby   = false;
    3164:	687b      	ldr	r3, [r7, #4]
    3166:	2200      	movs	r2, #0
    3168:	761a      	strb	r2, [r3, #24]
	config->start_hold_time  = I2C_MASTER_START_HOLD_TIME_300NS_600NS;
    316a:	687b      	ldr	r3, [r7, #4]
    316c:	2280      	movs	r2, #128	; 0x80
    316e:	0392      	lsls	r2, r2, #14
    3170:	611a      	str	r2, [r3, #16]
	config->buffer_timeout   = 65535;
    3172:	687b      	ldr	r3, [r7, #4]
    3174:	2201      	movs	r2, #1
    3176:	4252      	negs	r2, r2
    3178:	82da      	strh	r2, [r3, #22]
	config->unknown_bus_state_timeout = 65535;
    317a:	687b      	ldr	r3, [r7, #4]
    317c:	2201      	movs	r2, #1
    317e:	4252      	negs	r2, r2
    3180:	829a      	strh	r2, [r3, #20]
	config->pinmux_pad0      = PINMUX_DEFAULT;
    3182:	687b      	ldr	r3, [r7, #4]
    3184:	2200      	movs	r2, #0
    3186:	61da      	str	r2, [r3, #28]
	config->pinmux_pad1      = PINMUX_DEFAULT;
    3188:	687b      	ldr	r3, [r7, #4]
    318a:	2200      	movs	r2, #0
    318c:	621a      	str	r2, [r3, #32]
	config->scl_low_timeout  = false;
    318e:	687b      	ldr	r3, [r7, #4]
    3190:	2224      	movs	r2, #36	; 0x24
    3192:	2100      	movs	r1, #0
    3194:	5499      	strb	r1, [r3, r2]
	config->inactive_timeout = I2C_MASTER_INACTIVE_TIMEOUT_DISABLED;
    3196:	687b      	ldr	r3, [r7, #4]
    3198:	2200      	movs	r2, #0
    319a:	629a      	str	r2, [r3, #40]	; 0x28
#ifdef FEATURE_I2C_SCL_STRETCH_MODE
	config->scl_stretch_only_after_ack_bit = false;
    319c:	687b      	ldr	r3, [r7, #4]
    319e:	222c      	movs	r2, #44	; 0x2c
    31a0:	2100      	movs	r1, #0
    31a2:	5499      	strb	r1, [r3, r2]
#endif
#ifdef FEATURE_I2C_SCL_EXTEND_TIMEOUT
	config->slave_scl_low_extend_timeout   = false;
    31a4:	687b      	ldr	r3, [r7, #4]
    31a6:	222d      	movs	r2, #45	; 0x2d
    31a8:	2100      	movs	r1, #0
    31aa:	5499      	strb	r1, [r3, r2]
	config->master_scl_low_extend_timeout  = false;
    31ac:	687b      	ldr	r3, [r7, #4]
    31ae:	222e      	movs	r2, #46	; 0x2e
    31b0:	2100      	movs	r1, #0
    31b2:	5499      	strb	r1, [r3, r2]
#endif
}
    31b4:	46bd      	mov	sp, r7
    31b6:	b002      	add	sp, #8
    31b8:	bd80      	pop	{r7, pc}
    31ba:	46c0      	nop			; (mov r8, r8)
    31bc:	00000d48 	.word	0x00000d48

000031c0 <i2c_master_enable>:
 *
 * \param[in]  module  Pointer to the software module struct
 */
static inline void i2c_master_enable(
		const struct i2c_master_module *const module)
{
    31c0:	b580      	push	{r7, lr}
    31c2:	b084      	sub	sp, #16
    31c4:	af00      	add	r7, sp, #0
    31c6:	6078      	str	r0, [r7, #4]
	/* Sanity check of arguments. */
	Assert(module);
	Assert(module->hw);

	SercomI2cm *const i2c_module = &(module->hw->I2CM);
    31c8:	687b      	ldr	r3, [r7, #4]
    31ca:	681b      	ldr	r3, [r3, #0]
    31cc:	60bb      	str	r3, [r7, #8]

	/* Timeout counter used to force bus state. */
	uint32_t timeout_counter = 0;
    31ce:	2300      	movs	r3, #0
    31d0:	60fb      	str	r3, [r7, #12]

	/* Wait for module to sync. */
	_i2c_master_wait_for_sync(module);
    31d2:	687b      	ldr	r3, [r7, #4]
    31d4:	1c18      	adds	r0, r3, #0
    31d6:	4b10      	ldr	r3, [pc, #64]	; (3218 <i2c_master_enable+0x58>)
    31d8:	4798      	blx	r3

	/* Enable module. */
	i2c_module->CTRLA.reg |= SERCOM_I2CM_CTRLA_ENABLE;
    31da:	68bb      	ldr	r3, [r7, #8]
    31dc:	681b      	ldr	r3, [r3, #0]
    31de:	2202      	movs	r2, #2
    31e0:	431a      	orrs	r2, r3
    31e2:	68bb      	ldr	r3, [r7, #8]
    31e4:	601a      	str	r2, [r3, #0]
#if I2C_MASTER_CALLBACK_MODE == true
	/* Enable module interrupts */
	system_interrupt_enable(_sercom_get_interrupt_vector(module->hw));
#endif
	/* Start timeout if bus state is unknown. */
	while (!(i2c_module->STATUS.reg & SERCOM_I2CM_STATUS_BUSSTATE(1))) {
    31e6:	e00c      	b.n	3202 <i2c_master_enable+0x42>
		timeout_counter++;
    31e8:	68fb      	ldr	r3, [r7, #12]
    31ea:	3301      	adds	r3, #1
    31ec:	60fb      	str	r3, [r7, #12]
		if(timeout_counter >= (module->unknown_bus_state_timeout)) {
    31ee:	687b      	ldr	r3, [r7, #4]
    31f0:	88db      	ldrh	r3, [r3, #6]
    31f2:	1e1a      	subs	r2, r3, #0
    31f4:	68fb      	ldr	r3, [r7, #12]
    31f6:	429a      	cmp	r2, r3
    31f8:	d803      	bhi.n	3202 <i2c_master_enable+0x42>
			/* Timeout, force bus state to idle. */
			i2c_module->STATUS.reg = SERCOM_I2CM_STATUS_BUSSTATE(1);
    31fa:	68bb      	ldr	r3, [r7, #8]
    31fc:	2210      	movs	r2, #16
    31fe:	835a      	strh	r2, [r3, #26]
			/* Workaround #1 */
			return;
    3200:	e006      	b.n	3210 <i2c_master_enable+0x50>
#if I2C_MASTER_CALLBACK_MODE == true
	/* Enable module interrupts */
	system_interrupt_enable(_sercom_get_interrupt_vector(module->hw));
#endif
	/* Start timeout if bus state is unknown. */
	while (!(i2c_module->STATUS.reg & SERCOM_I2CM_STATUS_BUSSTATE(1))) {
    3202:	68bb      	ldr	r3, [r7, #8]
    3204:	8b5b      	ldrh	r3, [r3, #26]
    3206:	b29b      	uxth	r3, r3
    3208:	1c1a      	adds	r2, r3, #0
    320a:	2310      	movs	r3, #16
    320c:	4013      	ands	r3, r2
    320e:	d0eb      	beq.n	31e8 <i2c_master_enable+0x28>
			i2c_module->STATUS.reg = SERCOM_I2CM_STATUS_BUSSTATE(1);
			/* Workaround #1 */
			return;
		}
	}
}
    3210:	46bd      	mov	sp, r7
    3212:	b004      	add	sp, #16
    3214:	bd80      	pop	{r7, pc}
    3216:	46c0      	nop			; (mov r8, r8)
    3218:	00003125 	.word	0x00003125

0000321c <configure_i2c_master>:

/*
	Configures I2C connection with standard settings
*/
void configure_i2c_master(void)
{
    321c:	b580      	push	{r7, lr}
    321e:	b082      	sub	sp, #8
    3220:	af00      	add	r7, sp, #0
	/* Initialize config structure and software module. */
	//! [init_conf]
	i2c_master_get_config_defaults(&config_i2c_master);
    3222:	4b18      	ldr	r3, [pc, #96]	; (3284 <configure_i2c_master+0x68>)
    3224:	1c18      	adds	r0, r3, #0
    3226:	4b18      	ldr	r3, [pc, #96]	; (3288 <configure_i2c_master+0x6c>)
    3228:	4798      	blx	r3
	//! [init_conf]

	/* Change buffer timeout to something longer. */
	//! [conf_change]
	config_i2c_master.buffer_timeout = 65535;
    322a:	4b16      	ldr	r3, [pc, #88]	; (3284 <configure_i2c_master+0x68>)
    322c:	2201      	movs	r2, #1
    322e:	4252      	negs	r2, r2
    3230:	82da      	strh	r2, [r3, #22]
	//! [conf_change]

	/* Initialize and enable device with config. */
	//! [init_module]
	int init_status = i2c_master_init(&i2c_master_instance, SERCOM2, &config_i2c_master);
    3232:	4a16      	ldr	r2, [pc, #88]	; (328c <configure_i2c_master+0x70>)
    3234:	4916      	ldr	r1, [pc, #88]	; (3290 <configure_i2c_master+0x74>)
    3236:	4b13      	ldr	r3, [pc, #76]	; (3284 <configure_i2c_master+0x68>)
    3238:	1c10      	adds	r0, r2, #0
    323a:	1c1a      	adds	r2, r3, #0
    323c:	4b15      	ldr	r3, [pc, #84]	; (3294 <configure_i2c_master+0x78>)
    323e:	4798      	blx	r3
    3240:	1c03      	adds	r3, r0, #0
    3242:	607b      	str	r3, [r7, #4]
	printf("I2C master init status: %d\r\n", init_status);
    3244:	4a14      	ldr	r2, [pc, #80]	; (3298 <configure_i2c_master+0x7c>)
    3246:	687b      	ldr	r3, [r7, #4]
    3248:	1c10      	adds	r0, r2, #0
    324a:	1c19      	adds	r1, r3, #0
    324c:	4b13      	ldr	r3, [pc, #76]	; (329c <configure_i2c_master+0x80>)
    324e:	4798      	blx	r3
	while(init_status != STATUS_OK) {
    3250:	e00e      	b.n	3270 <configure_i2c_master+0x54>
		init_status = i2c_master_init(&i2c_master_instance, SERCOM2, &config_i2c_master);
    3252:	4a0e      	ldr	r2, [pc, #56]	; (328c <configure_i2c_master+0x70>)
    3254:	490e      	ldr	r1, [pc, #56]	; (3290 <configure_i2c_master+0x74>)
    3256:	4b0b      	ldr	r3, [pc, #44]	; (3284 <configure_i2c_master+0x68>)
    3258:	1c10      	adds	r0, r2, #0
    325a:	1c1a      	adds	r2, r3, #0
    325c:	4b0d      	ldr	r3, [pc, #52]	; (3294 <configure_i2c_master+0x78>)
    325e:	4798      	blx	r3
    3260:	1c03      	adds	r3, r0, #0
    3262:	607b      	str	r3, [r7, #4]
		printf("I2C master init error status: %d\r\n", init_status);
    3264:	4a0e      	ldr	r2, [pc, #56]	; (32a0 <configure_i2c_master+0x84>)
    3266:	687b      	ldr	r3, [r7, #4]
    3268:	1c10      	adds	r0, r2, #0
    326a:	1c19      	adds	r1, r3, #0
    326c:	4b0b      	ldr	r3, [pc, #44]	; (329c <configure_i2c_master+0x80>)
    326e:	4798      	blx	r3

	/* Initialize and enable device with config. */
	//! [init_module]
	int init_status = i2c_master_init(&i2c_master_instance, SERCOM2, &config_i2c_master);
	printf("I2C master init status: %d\r\n", init_status);
	while(init_status != STATUS_OK) {
    3270:	687b      	ldr	r3, [r7, #4]
    3272:	2b00      	cmp	r3, #0
    3274:	d1ed      	bne.n	3252 <configure_i2c_master+0x36>
		printf("I2C master init error status: %d\r\n", init_status);
	}
	//! [init_module]

	//! [enable_module]
	i2c_master_enable(&i2c_master_instance);
    3276:	4b05      	ldr	r3, [pc, #20]	; (328c <configure_i2c_master+0x70>)
    3278:	1c18      	adds	r0, r3, #0
    327a:	4b0a      	ldr	r3, [pc, #40]	; (32a4 <configure_i2c_master+0x88>)
    327c:	4798      	blx	r3
	//! [enable_module]
}
    327e:	46bd      	mov	sp, r7
    3280:	b002      	add	sp, #8
    3282:	bd80      	pop	{r7, pc}
    3284:	20000198 	.word	0x20000198
    3288:	00003145 	.word	0x00003145
    328c:	2000018c 	.word	0x2000018c
    3290:	42001000 	.word	0x42001000
    3294:	00000685 	.word	0x00000685
    3298:	000056e4 	.word	0x000056e4
    329c:	00004749 	.word	0x00004749
    32a0:	00005704 	.word	0x00005704
    32a4:	000031c1 	.word	0x000031c1

000032a8 <i2c_writer_helper>:
	detailed in the packet
*/
void i2c_writer_helper(struct i2c_master_packet* packet_address,
                       enum status_code (*i2c_write)(struct i2c_master_module *const module,
                                                     struct i2c_master_packet *const packet))
{
    32a8:	b580      	push	{r7, lr}
    32aa:	b084      	sub	sp, #16
    32ac:	af00      	add	r7, sp, #0
    32ae:	6078      	str	r0, [r7, #4]
    32b0:	6039      	str	r1, [r7, #0]
	uint16_t timeout = 0;
    32b2:	230e      	movs	r3, #14
    32b4:	18fb      	adds	r3, r7, r3
    32b6:	2200      	movs	r2, #0
    32b8:	801a      	strh	r2, [r3, #0]
	int x = i2c_write(&i2c_master_instance, packet_address);
    32ba:	4905      	ldr	r1, [pc, #20]	; (32d0 <i2c_writer_helper+0x28>)
    32bc:	687a      	ldr	r2, [r7, #4]
    32be:	683b      	ldr	r3, [r7, #0]
    32c0:	1c08      	adds	r0, r1, #0
    32c2:	1c11      	adds	r1, r2, #0
    32c4:	4798      	blx	r3
    32c6:	1c03      	adds	r3, r0, #0
    32c8:	60bb      	str	r3, [r7, #8]
}
    32ca:	46bd      	mov	sp, r7
    32cc:	b004      	add	sp, #16
    32ce:	bd80      	pop	{r7, pc}
    32d0:	2000018c 	.word	0x2000018c

000032d4 <i2c_write_command_no_stop>:

/*
	Given a pointer to a packet, perform a write over I2C following the information
	detailed in the packet
*/
void i2c_write_command_no_stop(struct i2c_master_packet* packet_address){
    32d4:	b580      	push	{r7, lr}
    32d6:	b082      	sub	sp, #8
    32d8:	af00      	add	r7, sp, #0
    32da:	6078      	str	r0, [r7, #4]
  i2c_writer_helper(packet_address, i2c_master_write_packet_wait_no_stop);
    32dc:	687a      	ldr	r2, [r7, #4]
    32de:	4b04      	ldr	r3, [pc, #16]	; (32f0 <i2c_write_command_no_stop+0x1c>)
    32e0:	1c10      	adds	r0, r2, #0
    32e2:	1c19      	adds	r1, r3, #0
    32e4:	4b03      	ldr	r3, [pc, #12]	; (32f4 <i2c_write_command_no_stop+0x20>)
    32e6:	4798      	blx	r3
}
    32e8:	46bd      	mov	sp, r7
    32ea:	b002      	add	sp, #8
    32ec:	bd80      	pop	{r7, pc}
    32ee:	46c0      	nop			; (mov r8, r8)
    32f0:	00000c5d 	.word	0x00000c5d
    32f4:	000032a9 	.word	0x000032a9

000032f8 <i2c_read_command>:

/*
	Given a pointer to a packet, perform a read over I2C following the information
	detailed in the packet
*/
void i2c_read_command(struct i2c_master_packet* packet_address){
    32f8:	b580      	push	{r7, lr}
    32fa:	b084      	sub	sp, #16
    32fc:	af00      	add	r7, sp, #0
    32fe:	6078      	str	r0, [r7, #4]
	uint16_t timeout = 0;
    3300:	230e      	movs	r3, #14
    3302:	18fb      	adds	r3, r7, r3
    3304:	2200      	movs	r2, #0
    3306:	801a      	strh	r2, [r3, #0]
	while ((i2c_master_read_packet_wait(&i2c_master_instance, packet_address)) != STATUS_OK) {
    3308:	e00b      	b.n	3322 <i2c_read_command+0x2a>
		if (timeout++ == TIMEOUT) {
    330a:	230e      	movs	r3, #14
    330c:	18fb      	adds	r3, r7, r3
    330e:	881b      	ldrh	r3, [r3, #0]
    3310:	220e      	movs	r2, #14
    3312:	18ba      	adds	r2, r7, r2
    3314:	1c59      	adds	r1, r3, #1
    3316:	8011      	strh	r1, [r2, #0]
    3318:	22fa      	movs	r2, #250	; 0xfa
    331a:	0092      	lsls	r2, r2, #2
    331c:	4293      	cmp	r3, r2
    331e:	d100      	bne.n	3322 <i2c_read_command+0x2a>
			break;
    3320:	e007      	b.n	3332 <i2c_read_command+0x3a>
	Given a pointer to a packet, perform a read over I2C following the information
	detailed in the packet
*/
void i2c_read_command(struct i2c_master_packet* packet_address){
	uint16_t timeout = 0;
	while ((i2c_master_read_packet_wait(&i2c_master_instance, packet_address)) != STATUS_OK) {
    3322:	4a05      	ldr	r2, [pc, #20]	; (3338 <i2c_read_command+0x40>)
    3324:	687b      	ldr	r3, [r7, #4]
    3326:	1c10      	adds	r0, r2, #0
    3328:	1c19      	adds	r1, r3, #0
    332a:	4b04      	ldr	r3, [pc, #16]	; (333c <i2c_read_command+0x44>)
    332c:	4798      	blx	r3
    332e:	1e03      	subs	r3, r0, #0
    3330:	d1eb      	bne.n	330a <i2c_read_command+0x12>
		if (timeout++ == TIMEOUT) {
			break;
			printf("timeout");
		}
	}
}
    3332:	46bd      	mov	sp, r7
    3334:	b004      	add	sp, #16
    3336:	bd80      	pop	{r7, pc}
    3338:	2000018c 	.word	0x2000018c
    333c:	00000ab9 	.word	0x00000ab9

00003340 <system_interrupt_enable>:
 *
 * \param[in] vector Interrupt vector to enable
 */
static inline void system_interrupt_enable(
		const enum system_interrupt_vector vector)
{
    3340:	b580      	push	{r7, lr}
    3342:	b082      	sub	sp, #8
    3344:	af00      	add	r7, sp, #0
    3346:	1c02      	adds	r2, r0, #0
    3348:	1dfb      	adds	r3, r7, #7
    334a:	701a      	strb	r2, [r3, #0]
	NVIC->ISER[0] = (uint32_t)(1 << ((uint32_t)vector & 0x0000001f));
    334c:	4b06      	ldr	r3, [pc, #24]	; (3368 <system_interrupt_enable+0x28>)
    334e:	1dfa      	adds	r2, r7, #7
    3350:	7812      	ldrb	r2, [r2, #0]
    3352:	1c11      	adds	r1, r2, #0
    3354:	221f      	movs	r2, #31
    3356:	400a      	ands	r2, r1
    3358:	2101      	movs	r1, #1
    335a:	4091      	lsls	r1, r2
    335c:	1c0a      	adds	r2, r1, #0
    335e:	601a      	str	r2, [r3, #0]
}
    3360:	46bd      	mov	sp, r7
    3362:	b002      	add	sp, #8
    3364:	bd80      	pop	{r7, pc}
    3366:	46c0      	nop			; (mov r8, r8)
    3368:	e000e100 	.word	0xe000e100

0000336c <usart_is_syncing>:
 * \retval false  Peripheral is not busy syncing and can be read/written without
 *                stalling the bus.
 */
static inline bool usart_is_syncing(
		const struct usart_module *const module)
{
    336c:	b580      	push	{r7, lr}
    336e:	b084      	sub	sp, #16
    3370:	af00      	add	r7, sp, #0
    3372:	6078      	str	r0, [r7, #4]
	/* Sanity check arguments */
	Assert(module);
	Assert(module->hw);

	SercomUsart *const usart_hw = &(module->hw->USART);
    3374:	687b      	ldr	r3, [r7, #4]
    3376:	681b      	ldr	r3, [r3, #0]
    3378:	60fb      	str	r3, [r7, #12]

#ifdef FEATURE_USART_SYNC_SCHEME_V2
	return (usart_hw->SYNCBUSY.reg);
    337a:	68fb      	ldr	r3, [r7, #12]
    337c:	69db      	ldr	r3, [r3, #28]
    337e:	1e5a      	subs	r2, r3, #1
    3380:	4193      	sbcs	r3, r2
    3382:	b2db      	uxtb	r3, r3
#else
	return (usart_hw->STATUS.reg & SERCOM_USART_STATUS_SYNCBUSY);
#endif
}
    3384:	1c18      	adds	r0, r3, #0
    3386:	46bd      	mov	sp, r7
    3388:	b004      	add	sp, #16
    338a:	bd80      	pop	{r7, pc}

0000338c <_usart_wait_for_sync>:
 * \internal
 * Waits until synchronization is complete
 */
static inline void _usart_wait_for_sync(
		const struct usart_module *const module)
{
    338c:	b580      	push	{r7, lr}
    338e:	b082      	sub	sp, #8
    3390:	af00      	add	r7, sp, #0
    3392:	6078      	str	r0, [r7, #4]
	/* Sanity check. */
	Assert(module);

	while (usart_is_syncing(module)) {
    3394:	46c0      	nop			; (mov r8, r8)
    3396:	687b      	ldr	r3, [r7, #4]
    3398:	1c18      	adds	r0, r3, #0
    339a:	4b03      	ldr	r3, [pc, #12]	; (33a8 <_usart_wait_for_sync+0x1c>)
    339c:	4798      	blx	r3
    339e:	1e03      	subs	r3, r0, #0
    33a0:	d1f9      	bne.n	3396 <_usart_wait_for_sync+0xa>
		/* Wait until the synchronization is complete */
	}
}
    33a2:	46bd      	mov	sp, r7
    33a4:	b002      	add	sp, #8
    33a6:	bd80      	pop	{r7, pc}
    33a8:	0000336d 	.word	0x0000336d

000033ac <usart_get_config_defaults>:
 *
 * \param[in,out] config  Pointer to configuration struct
 */
static inline void usart_get_config_defaults(
		struct usart_config *const config)
{
    33ac:	b580      	push	{r7, lr}
    33ae:	b082      	sub	sp, #8
    33b0:	af00      	add	r7, sp, #0
    33b2:	6078      	str	r0, [r7, #4]
	/* Sanity check arguments */
	Assert(config);

	/* Set default config in the config struct */
	config->data_order       = USART_DATAORDER_LSB;
    33b4:	687b      	ldr	r3, [r7, #4]
    33b6:	2280      	movs	r2, #128	; 0x80
    33b8:	05d2      	lsls	r2, r2, #23
    33ba:	601a      	str	r2, [r3, #0]
	config->transfer_mode    = USART_TRANSFER_ASYNCHRONOUSLY;
    33bc:	687b      	ldr	r3, [r7, #4]
    33be:	2200      	movs	r2, #0
    33c0:	605a      	str	r2, [r3, #4]
	config->parity           = USART_PARITY_NONE;
    33c2:	687b      	ldr	r3, [r7, #4]
    33c4:	22ff      	movs	r2, #255	; 0xff
    33c6:	811a      	strh	r2, [r3, #8]
	config->stopbits         = USART_STOPBITS_1;
    33c8:	687b      	ldr	r3, [r7, #4]
    33ca:	2200      	movs	r2, #0
    33cc:	729a      	strb	r2, [r3, #10]
	config->character_size   = USART_CHARACTER_SIZE_8BIT;
    33ce:	687b      	ldr	r3, [r7, #4]
    33d0:	2200      	movs	r2, #0
    33d2:	72da      	strb	r2, [r3, #11]
	config->baudrate         = 9600;
    33d4:	687b      	ldr	r3, [r7, #4]
    33d6:	2296      	movs	r2, #150	; 0x96
    33d8:	0192      	lsls	r2, r2, #6
    33da:	621a      	str	r2, [r3, #32]
	config->receiver_enable  = true;
    33dc:	687b      	ldr	r3, [r7, #4]
    33de:	2224      	movs	r2, #36	; 0x24
    33e0:	2101      	movs	r1, #1
    33e2:	5499      	strb	r1, [r3, r2]
	config->transmitter_enable = true;
    33e4:	687b      	ldr	r3, [r7, #4]
    33e6:	2225      	movs	r2, #37	; 0x25
    33e8:	2101      	movs	r1, #1
    33ea:	5499      	strb	r1, [r3, r2]
	config->clock_polarity_inverted = false;
    33ec:	687b      	ldr	r3, [r7, #4]
    33ee:	2226      	movs	r2, #38	; 0x26
    33f0:	2100      	movs	r1, #0
    33f2:	5499      	strb	r1, [r3, r2]
	config->use_external_clock = false;
    33f4:	687b      	ldr	r3, [r7, #4]
    33f6:	2227      	movs	r2, #39	; 0x27
    33f8:	2100      	movs	r1, #0
    33fa:	5499      	strb	r1, [r3, r2]
	config->ext_clock_freq   = 0;
    33fc:	687b      	ldr	r3, [r7, #4]
    33fe:	2200      	movs	r2, #0
    3400:	629a      	str	r2, [r3, #40]	; 0x28
	config->mux_setting      = USART_RX_1_TX_2_XCK_3;
    3402:	687b      	ldr	r3, [r7, #4]
    3404:	2288      	movs	r2, #136	; 0x88
    3406:	0352      	lsls	r2, r2, #13
    3408:	60da      	str	r2, [r3, #12]
	config->run_in_standby   = false;
    340a:	687b      	ldr	r3, [r7, #4]
    340c:	222c      	movs	r2, #44	; 0x2c
    340e:	2100      	movs	r1, #0
    3410:	5499      	strb	r1, [r3, r2]
	config->generator_source = GCLK_GENERATOR_0;
    3412:	687b      	ldr	r3, [r7, #4]
    3414:	222d      	movs	r2, #45	; 0x2d
    3416:	2100      	movs	r1, #0
    3418:	5499      	strb	r1, [r3, r2]
	config->pinmux_pad0      = PINMUX_DEFAULT;
    341a:	687b      	ldr	r3, [r7, #4]
    341c:	2200      	movs	r2, #0
    341e:	631a      	str	r2, [r3, #48]	; 0x30
	config->pinmux_pad1      = PINMUX_DEFAULT;
    3420:	687b      	ldr	r3, [r7, #4]
    3422:	2200      	movs	r2, #0
    3424:	635a      	str	r2, [r3, #52]	; 0x34
	config->pinmux_pad2      = PINMUX_DEFAULT;
    3426:	687b      	ldr	r3, [r7, #4]
    3428:	2200      	movs	r2, #0
    342a:	639a      	str	r2, [r3, #56]	; 0x38
	config->pinmux_pad3      = PINMUX_DEFAULT;
    342c:	687b      	ldr	r3, [r7, #4]
    342e:	2200      	movs	r2, #0
    3430:	63da      	str	r2, [r3, #60]	; 0x3c
#ifdef FEATURE_USART_OVER_SAMPLE
	config->sample_adjustment     = USART_SAMPLE_ADJUSTMENT_7_8_9;
    3432:	687b      	ldr	r3, [r7, #4]
    3434:	2200      	movs	r2, #0
    3436:	615a      	str	r2, [r3, #20]
	config->sample_rate           = USART_SAMPLE_RATE_16X_ARITHMETIC;
    3438:	687b      	ldr	r3, [r7, #4]
    343a:	2200      	movs	r2, #0
    343c:	821a      	strh	r2, [r3, #16]
#endif
#ifdef FEATURE_USART_LIN_SLAVE
	config->lin_slave_enable      = false;
    343e:	687b      	ldr	r3, [r7, #4]
    3440:	2200      	movs	r2, #0
    3442:	76da      	strb	r2, [r3, #27]
#endif
#ifdef FEATURE_USART_IMMEDIATE_BUFFER_OVERFLOW_NOTIFICATION
	config->immediate_buffer_overflow_notification      = false;
    3444:	687b      	ldr	r3, [r7, #4]
    3446:	2200      	movs	r2, #0
    3448:	761a      	strb	r2, [r3, #24]
#endif
#ifdef FEATURE_USART_START_FRAME_DECTION
	config->start_frame_detection_enable                = false;
    344a:	687b      	ldr	r3, [r7, #4]
    344c:	2200      	movs	r2, #0
    344e:	771a      	strb	r2, [r3, #28]
#endif
#ifdef FEATURE_USART_IRDA
	config->encoding_format_enable                      = false;
    3450:	687b      	ldr	r3, [r7, #4]
    3452:	2200      	movs	r2, #0
    3454:	765a      	strb	r2, [r3, #25]
	config->receive_pulse_length                        = 19;
    3456:	687b      	ldr	r3, [r7, #4]
    3458:	2213      	movs	r2, #19
    345a:	769a      	strb	r2, [r3, #26]
#endif
#ifdef FEATURE_USART_COLLISION_DECTION
	config->collision_detection_enable                  = false;
    345c:	687b      	ldr	r3, [r7, #4]
    345e:	2200      	movs	r2, #0
    3460:	775a      	strb	r2, [r3, #29]
#endif
}
    3462:	46bd      	mov	sp, r7
    3464:	b002      	add	sp, #8
    3466:	bd80      	pop	{r7, pc}

00003468 <usart_enable>:
 *
 * \param[in]  module  Pointer to USART software instance struct
 */
static inline void usart_enable(
		const struct usart_module *const module)
{
    3468:	b580      	push	{r7, lr}
    346a:	b084      	sub	sp, #16
    346c:	af00      	add	r7, sp, #0
    346e:	6078      	str	r0, [r7, #4]
	/* Sanity check arguments */
	Assert(module);
	Assert(module->hw);

	/* Get a pointer to the hardware module instance */
	SercomUsart *const usart_hw = &(module->hw->USART);
    3470:	687b      	ldr	r3, [r7, #4]
    3472:	681b      	ldr	r3, [r3, #0]
    3474:	60fb      	str	r3, [r7, #12]

#if USART_CALLBACK_MODE == true
	/* Enable Global interrupt for module */
	system_interrupt_enable(_sercom_get_interrupt_vector(module->hw));
    3476:	687b      	ldr	r3, [r7, #4]
    3478:	681b      	ldr	r3, [r3, #0]
    347a:	1c18      	adds	r0, r3, #0
    347c:	4b09      	ldr	r3, [pc, #36]	; (34a4 <usart_enable+0x3c>)
    347e:	4798      	blx	r3
    3480:	1c03      	adds	r3, r0, #0
    3482:	1c18      	adds	r0, r3, #0
    3484:	4b08      	ldr	r3, [pc, #32]	; (34a8 <usart_enable+0x40>)
    3486:	4798      	blx	r3
#endif

	/* Wait until synchronization is complete */
	_usart_wait_for_sync(module);
    3488:	687b      	ldr	r3, [r7, #4]
    348a:	1c18      	adds	r0, r3, #0
    348c:	4b07      	ldr	r3, [pc, #28]	; (34ac <usart_enable+0x44>)
    348e:	4798      	blx	r3

	/* Enable USART module */
	usart_hw->CTRLA.reg |= SERCOM_USART_CTRLA_ENABLE;
    3490:	68fb      	ldr	r3, [r7, #12]
    3492:	681b      	ldr	r3, [r3, #0]
    3494:	2202      	movs	r2, #2
    3496:	431a      	orrs	r2, r3
    3498:	68fb      	ldr	r3, [r7, #12]
    349a:	601a      	str	r2, [r3, #0]
}
    349c:	46bd      	mov	sp, r7
    349e:	b004      	add	sp, #16
    34a0:	bd80      	pop	{r7, pc}
    34a2:	46c0      	nop			; (mov r8, r8)
    34a4:	000012fd 	.word	0x000012fd
    34a8:	00003341 	.word	0x00003341
    34ac:	0000338d 	.word	0x0000338d

000034b0 <usart_serial_init>:
 */
static inline bool usart_serial_init(
		struct usart_module *const module,
		usart_inst_t const hw,
		const struct usart_config *const config)
{
    34b0:	b580      	push	{r7, lr}
    34b2:	b084      	sub	sp, #16
    34b4:	af00      	add	r7, sp, #0
    34b6:	60f8      	str	r0, [r7, #12]
    34b8:	60b9      	str	r1, [r7, #8]
    34ba:	607a      	str	r2, [r7, #4]
	if (usart_init(module, hw, config) == STATUS_OK) {
    34bc:	68f9      	ldr	r1, [r7, #12]
    34be:	68ba      	ldr	r2, [r7, #8]
    34c0:	687b      	ldr	r3, [r7, #4]
    34c2:	1c08      	adds	r0, r1, #0
    34c4:	1c11      	adds	r1, r2, #0
    34c6:	1c1a      	adds	r2, r3, #0
    34c8:	4b05      	ldr	r3, [pc, #20]	; (34e0 <usart_serial_init+0x30>)
    34ca:	4798      	blx	r3
    34cc:	1e03      	subs	r3, r0, #0
    34ce:	d101      	bne.n	34d4 <usart_serial_init+0x24>
		return true;
    34d0:	2301      	movs	r3, #1
    34d2:	e000      	b.n	34d6 <usart_serial_init+0x26>
	}
	else {
		return false;
    34d4:	2300      	movs	r3, #0
	}
}
    34d6:	1c18      	adds	r0, r3, #0
    34d8:	46bd      	mov	sp, r7
    34da:	b004      	add	sp, #16
    34dc:	bd80      	pop	{r7, pc}
    34de:	46c0      	nop			; (mov r8, r8)
    34e0:	000017a9 	.word	0x000017a9

000034e4 <usart_serial_putchar>:
 * \return Status code
 */
static inline enum status_code usart_serial_putchar(
		struct usart_module *const module,
		uint8_t c)
{
    34e4:	b580      	push	{r7, lr}
    34e6:	b082      	sub	sp, #8
    34e8:	af00      	add	r7, sp, #0
    34ea:	6078      	str	r0, [r7, #4]
    34ec:	1c0a      	adds	r2, r1, #0
    34ee:	1cfb      	adds	r3, r7, #3
    34f0:	701a      	strb	r2, [r3, #0]
	while(STATUS_OK !=usart_write_wait(module, c));
    34f2:	46c0      	nop			; (mov r8, r8)
    34f4:	1cfb      	adds	r3, r7, #3
    34f6:	781b      	ldrb	r3, [r3, #0]
    34f8:	b29b      	uxth	r3, r3
    34fa:	687a      	ldr	r2, [r7, #4]
    34fc:	1c10      	adds	r0, r2, #0
    34fe:	1c19      	adds	r1, r3, #0
    3500:	4b04      	ldr	r3, [pc, #16]	; (3514 <usart_serial_putchar+0x30>)
    3502:	4798      	blx	r3
    3504:	1e03      	subs	r3, r0, #0
    3506:	d1f5      	bne.n	34f4 <usart_serial_putchar+0x10>

	return STATUS_OK;
    3508:	2300      	movs	r3, #0
}
    350a:	1c18      	adds	r0, r3, #0
    350c:	46bd      	mov	sp, r7
    350e:	b002      	add	sp, #8
    3510:	bd80      	pop	{r7, pc}
    3512:	46c0      	nop			; (mov r8, r8)
    3514:	00001a19 	.word	0x00001a19

00003518 <usart_serial_getchar>:
 * \param[out]    c       Destination for the read character.
 */
static inline void usart_serial_getchar(
		struct usart_module *const module,
		uint8_t *c)
{
    3518:	b580      	push	{r7, lr}
    351a:	b084      	sub	sp, #16
    351c:	af00      	add	r7, sp, #0
    351e:	6078      	str	r0, [r7, #4]
    3520:	6039      	str	r1, [r7, #0]
	uint16_t temp = 0;
    3522:	230e      	movs	r3, #14
    3524:	18fb      	adds	r3, r7, r3
    3526:	2200      	movs	r2, #0
    3528:	801a      	strh	r2, [r3, #0]

	while(STATUS_OK != usart_read_wait(module, &temp));
    352a:	46c0      	nop			; (mov r8, r8)
    352c:	687a      	ldr	r2, [r7, #4]
    352e:	230e      	movs	r3, #14
    3530:	18fb      	adds	r3, r7, r3
    3532:	1c10      	adds	r0, r2, #0
    3534:	1c19      	adds	r1, r3, #0
    3536:	4b06      	ldr	r3, [pc, #24]	; (3550 <usart_serial_getchar+0x38>)
    3538:	4798      	blx	r3
    353a:	1e03      	subs	r3, r0, #0
    353c:	d1f6      	bne.n	352c <usart_serial_getchar+0x14>

	*c = temp;
    353e:	230e      	movs	r3, #14
    3540:	18fb      	adds	r3, r7, r3
    3542:	881b      	ldrh	r3, [r3, #0]
    3544:	b2da      	uxtb	r2, r3
    3546:	683b      	ldr	r3, [r7, #0]
    3548:	701a      	strb	r2, [r3, #0]
}
    354a:	46bd      	mov	sp, r7
    354c:	b004      	add	sp, #16
    354e:	bd80      	pop	{r7, pc}
    3550:	00001a7d 	.word	0x00001a7d

00003554 <stdio_serial_init>:
 */
static inline void stdio_serial_init(
		struct usart_module *const module,
		usart_inst_t const hw,
		const struct usart_config *const config)
{
    3554:	b580      	push	{r7, lr}
    3556:	b084      	sub	sp, #16
    3558:	af00      	add	r7, sp, #0
    355a:	60f8      	str	r0, [r7, #12]
    355c:	60b9      	str	r1, [r7, #8]
    355e:	607a      	str	r2, [r7, #4]
	stdio_base = (void *)module;
    3560:	4b10      	ldr	r3, [pc, #64]	; (35a4 <stdio_serial_init+0x50>)
    3562:	68fa      	ldr	r2, [r7, #12]
    3564:	601a      	str	r2, [r3, #0]
	ptr_put = (int (*)(void volatile*,char))&usart_serial_putchar;
    3566:	4b10      	ldr	r3, [pc, #64]	; (35a8 <stdio_serial_init+0x54>)
    3568:	4a10      	ldr	r2, [pc, #64]	; (35ac <stdio_serial_init+0x58>)
    356a:	601a      	str	r2, [r3, #0]
	ptr_get = (void (*)(void volatile*,char*))&usart_serial_getchar;
    356c:	4b10      	ldr	r3, [pc, #64]	; (35b0 <stdio_serial_init+0x5c>)
    356e:	4a11      	ldr	r2, [pc, #68]	; (35b4 <stdio_serial_init+0x60>)
    3570:	601a      	str	r2, [r3, #0]

	usart_serial_init(module, hw, config);
    3572:	68f9      	ldr	r1, [r7, #12]
    3574:	68ba      	ldr	r2, [r7, #8]
    3576:	687b      	ldr	r3, [r7, #4]
    3578:	1c08      	adds	r0, r1, #0
    357a:	1c11      	adds	r1, r2, #0
    357c:	1c1a      	adds	r2, r3, #0
    357e:	4b0e      	ldr	r3, [pc, #56]	; (35b8 <stdio_serial_init+0x64>)
    3580:	4798      	blx	r3
# if defined(__GNUC__)
	// Specify that stdout and stdin should not be buffered.
	setbuf(stdout, NULL);
    3582:	4b0e      	ldr	r3, [pc, #56]	; (35bc <stdio_serial_init+0x68>)
    3584:	681b      	ldr	r3, [r3, #0]
    3586:	689b      	ldr	r3, [r3, #8]
    3588:	1c18      	adds	r0, r3, #0
    358a:	2100      	movs	r1, #0
    358c:	4b0c      	ldr	r3, [pc, #48]	; (35c0 <stdio_serial_init+0x6c>)
    358e:	4798      	blx	r3
	setbuf(stdin, NULL);
    3590:	4b0a      	ldr	r3, [pc, #40]	; (35bc <stdio_serial_init+0x68>)
    3592:	681b      	ldr	r3, [r3, #0]
    3594:	685b      	ldr	r3, [r3, #4]
    3596:	1c18      	adds	r0, r3, #0
    3598:	2100      	movs	r1, #0
    359a:	4b09      	ldr	r3, [pc, #36]	; (35c0 <stdio_serial_init+0x6c>)
    359c:	4798      	blx	r3
	// Note: Already the case in IAR's Normal DLIB default configuration
	// and AVR GCC library:
	// - printf() emits one character at a time.
	// - getchar() requests only 1 byte to exit.
#  endif
}
    359e:	46bd      	mov	sp, r7
    35a0:	b004      	add	sp, #16
    35a2:	bd80      	pop	{r7, pc}
    35a4:	200001e8 	.word	0x200001e8
    35a8:	200001e4 	.word	0x200001e4
    35ac:	000034e5 	.word	0x000034e5
    35b0:	200001e0 	.word	0x200001e0
    35b4:	00003519 	.word	0x00003519
    35b8:	000034b1 	.word	0x000034b1
    35bc:	20000068 	.word	0x20000068
    35c0:	0000477d 	.word	0x0000477d

000035c4 <configure_console>:

#include "main.h"

//extern void xPortSysTickHandler(void);

static void configure_console(void) {
    35c4:	b580      	push	{r7, lr}
    35c6:	b090      	sub	sp, #64	; 0x40
    35c8:	af00      	add	r7, sp, #0
	struct usart_config usart_conf;

	usart_get_config_defaults(&usart_conf);
    35ca:	1c3b      	adds	r3, r7, #0
    35cc:	1c18      	adds	r0, r3, #0
    35ce:	4b13      	ldr	r3, [pc, #76]	; (361c <configure_console+0x58>)
    35d0:	4798      	blx	r3
	usart_conf.mux_setting = CONF_STDIO_MUX_SETTING;
    35d2:	1c3b      	adds	r3, r7, #0
    35d4:	2280      	movs	r2, #128	; 0x80
    35d6:	0352      	lsls	r2, r2, #13
    35d8:	60da      	str	r2, [r3, #12]
	usart_conf.pinmux_pad0 = CONF_STDIO_PINMUX_PAD0;
    35da:	1c3b      	adds	r3, r7, #0
    35dc:	4a10      	ldr	r2, [pc, #64]	; (3620 <configure_console+0x5c>)
    35de:	631a      	str	r2, [r3, #48]	; 0x30
	usart_conf.pinmux_pad1 = CONF_STDIO_PINMUX_PAD1;
    35e0:	1c3b      	adds	r3, r7, #0
    35e2:	4a10      	ldr	r2, [pc, #64]	; (3624 <configure_console+0x60>)
    35e4:	635a      	str	r2, [r3, #52]	; 0x34
	usart_conf.pinmux_pad2 = CONF_STDIO_PINMUX_PAD2;
    35e6:	1c3b      	adds	r3, r7, #0
    35e8:	2201      	movs	r2, #1
    35ea:	4252      	negs	r2, r2
    35ec:	639a      	str	r2, [r3, #56]	; 0x38
	usart_conf.pinmux_pad3 = CONF_STDIO_PINMUX_PAD3;
    35ee:	1c3b      	adds	r3, r7, #0
    35f0:	2201      	movs	r2, #1
    35f2:	4252      	negs	r2, r2
    35f4:	63da      	str	r2, [r3, #60]	; 0x3c
	usart_conf.baudrate    = CONF_STDIO_BAUDRATE;
    35f6:	1c3b      	adds	r3, r7, #0
    35f8:	2296      	movs	r2, #150	; 0x96
    35fa:	0212      	lsls	r2, r2, #8
    35fc:	621a      	str	r2, [r3, #32]

	stdio_serial_init(&cdc_uart_module, CONF_STDIO_USART_MODULE,
    35fe:	4a0a      	ldr	r2, [pc, #40]	; (3628 <configure_console+0x64>)
    3600:	490a      	ldr	r1, [pc, #40]	; (362c <configure_console+0x68>)
    3602:	1c3b      	adds	r3, r7, #0
    3604:	1c10      	adds	r0, r2, #0
    3606:	1c1a      	adds	r2, r3, #0
    3608:	4b09      	ldr	r3, [pc, #36]	; (3630 <configure_console+0x6c>)
    360a:	4798      	blx	r3
	&usart_conf);
	usart_enable(&cdc_uart_module);
    360c:	4b06      	ldr	r3, [pc, #24]	; (3628 <configure_console+0x64>)
    360e:	1c18      	adds	r0, r3, #0
    3610:	4b08      	ldr	r3, [pc, #32]	; (3634 <configure_console+0x70>)
    3612:	4798      	blx	r3
}
    3614:	46bd      	mov	sp, r7
    3616:	b010      	add	sp, #64	; 0x40
    3618:	bd80      	pop	{r7, pc}
    361a:	46c0      	nop			; (mov r8, r8)
    361c:	000033ad 	.word	0x000033ad
    3620:	00160002 	.word	0x00160002
    3624:	00170002 	.word	0x00170002
    3628:	20000150 	.word	0x20000150
    362c:	42001400 	.word	0x42001400
    3630:	00003555 	.word	0x00003555
    3634:	00003469 	.word	0x00003469

00003638 <main>:
 *  \brief FreeRTOS Real Time Kernel example entry point.
 *
 *  \return Unused (ANSI-C compatibility).
 */
int main(void)
{
    3638:	b580      	push	{r7, lr}
    363a:	b086      	sub	sp, #24
    363c:	af00      	add	r7, sp, #0
	// Initilize the SAM system
	system_init();
    363e:	4b0e      	ldr	r3, [pc, #56]	; (3678 <main+0x40>)
    3640:	4798      	blx	r3

	// Initialize the console uart
	configure_console();
    3642:	4b0e      	ldr	r3, [pc, #56]	; (367c <main+0x44>)
    3644:	4798      	blx	r3
	
	// Output demo infomation.
	printf("-- Freertos Example --\n\r");
    3646:	4b0e      	ldr	r3, [pc, #56]	; (3680 <main+0x48>)
    3648:	1c18      	adds	r0, r3, #0
    364a:	4b0e      	ldr	r3, [pc, #56]	; (3684 <main+0x4c>)
    364c:	4798      	blx	r3
	printf("-- %s\n\r", BOARD_NAME);
    364e:	4a0e      	ldr	r2, [pc, #56]	; (3688 <main+0x50>)
    3650:	4b0e      	ldr	r3, [pc, #56]	; (368c <main+0x54>)
    3652:	1c10      	adds	r0, r2, #0
    3654:	1c19      	adds	r1, r3, #0
    3656:	4b0b      	ldr	r3, [pc, #44]	; (3684 <main+0x4c>)
    3658:	4798      	blx	r3
	printf("-- Compiled: %s %s --\n\r", __DATE__, __TIME__);
    365a:	490d      	ldr	r1, [pc, #52]	; (3690 <main+0x58>)
    365c:	4a0d      	ldr	r2, [pc, #52]	; (3694 <main+0x5c>)
    365e:	4b0e      	ldr	r3, [pc, #56]	; (3698 <main+0x60>)
    3660:	1c08      	adds	r0, r1, #0
    3662:	1c11      	adds	r1, r2, #0
    3664:	1c1a      	adds	r2, r3, #0
    3666:	4b07      	ldr	r3, [pc, #28]	; (3684 <main+0x4c>)
    3668:	4798      	blx	r3
	
	configure_i2c_master();
    366a:	4b0c      	ldr	r3, [pc, #48]	; (369c <main+0x64>)
    366c:	4798      	blx	r3
	
	while(true){
		float x = MLX90614_readObjectTempC();
    366e:	4b0c      	ldr	r3, [pc, #48]	; (36a0 <main+0x68>)
    3670:	4798      	blx	r3
    3672:	1c03      	adds	r3, r0, #0
    3674:	617b      	str	r3, [r7, #20]
	}
    3676:	e7fa      	b.n	366e <main+0x36>
    3678:	00002fb5 	.word	0x00002fb5
    367c:	000035c5 	.word	0x000035c5
    3680:	00005728 	.word	0x00005728
    3684:	00004749 	.word	0x00004749
    3688:	00005744 	.word	0x00005744
    368c:	0000574c 	.word	0x0000574c
    3690:	00005760 	.word	0x00005760
    3694:	00005778 	.word	0x00005778
    3698:	00005784 	.word	0x00005784
    369c:	0000321d 	.word	0x0000321d
    36a0:	0000028d 	.word	0x0000028d

000036a4 <__aeabi_uidiv>:
    36a4:	2200      	movs	r2, #0
    36a6:	0843      	lsrs	r3, r0, #1
    36a8:	428b      	cmp	r3, r1
    36aa:	d374      	bcc.n	3796 <__aeabi_uidiv+0xf2>
    36ac:	0903      	lsrs	r3, r0, #4
    36ae:	428b      	cmp	r3, r1
    36b0:	d35f      	bcc.n	3772 <__aeabi_uidiv+0xce>
    36b2:	0a03      	lsrs	r3, r0, #8
    36b4:	428b      	cmp	r3, r1
    36b6:	d344      	bcc.n	3742 <__aeabi_uidiv+0x9e>
    36b8:	0b03      	lsrs	r3, r0, #12
    36ba:	428b      	cmp	r3, r1
    36bc:	d328      	bcc.n	3710 <__aeabi_uidiv+0x6c>
    36be:	0c03      	lsrs	r3, r0, #16
    36c0:	428b      	cmp	r3, r1
    36c2:	d30d      	bcc.n	36e0 <__aeabi_uidiv+0x3c>
    36c4:	22ff      	movs	r2, #255	; 0xff
    36c6:	0209      	lsls	r1, r1, #8
    36c8:	ba12      	rev	r2, r2
    36ca:	0c03      	lsrs	r3, r0, #16
    36cc:	428b      	cmp	r3, r1
    36ce:	d302      	bcc.n	36d6 <__aeabi_uidiv+0x32>
    36d0:	1212      	asrs	r2, r2, #8
    36d2:	0209      	lsls	r1, r1, #8
    36d4:	d065      	beq.n	37a2 <__aeabi_uidiv+0xfe>
    36d6:	0b03      	lsrs	r3, r0, #12
    36d8:	428b      	cmp	r3, r1
    36da:	d319      	bcc.n	3710 <__aeabi_uidiv+0x6c>
    36dc:	e000      	b.n	36e0 <__aeabi_uidiv+0x3c>
    36de:	0a09      	lsrs	r1, r1, #8
    36e0:	0bc3      	lsrs	r3, r0, #15
    36e2:	428b      	cmp	r3, r1
    36e4:	d301      	bcc.n	36ea <__aeabi_uidiv+0x46>
    36e6:	03cb      	lsls	r3, r1, #15
    36e8:	1ac0      	subs	r0, r0, r3
    36ea:	4152      	adcs	r2, r2
    36ec:	0b83      	lsrs	r3, r0, #14
    36ee:	428b      	cmp	r3, r1
    36f0:	d301      	bcc.n	36f6 <__aeabi_uidiv+0x52>
    36f2:	038b      	lsls	r3, r1, #14
    36f4:	1ac0      	subs	r0, r0, r3
    36f6:	4152      	adcs	r2, r2
    36f8:	0b43      	lsrs	r3, r0, #13
    36fa:	428b      	cmp	r3, r1
    36fc:	d301      	bcc.n	3702 <__aeabi_uidiv+0x5e>
    36fe:	034b      	lsls	r3, r1, #13
    3700:	1ac0      	subs	r0, r0, r3
    3702:	4152      	adcs	r2, r2
    3704:	0b03      	lsrs	r3, r0, #12
    3706:	428b      	cmp	r3, r1
    3708:	d301      	bcc.n	370e <__aeabi_uidiv+0x6a>
    370a:	030b      	lsls	r3, r1, #12
    370c:	1ac0      	subs	r0, r0, r3
    370e:	4152      	adcs	r2, r2
    3710:	0ac3      	lsrs	r3, r0, #11
    3712:	428b      	cmp	r3, r1
    3714:	d301      	bcc.n	371a <__aeabi_uidiv+0x76>
    3716:	02cb      	lsls	r3, r1, #11
    3718:	1ac0      	subs	r0, r0, r3
    371a:	4152      	adcs	r2, r2
    371c:	0a83      	lsrs	r3, r0, #10
    371e:	428b      	cmp	r3, r1
    3720:	d301      	bcc.n	3726 <__aeabi_uidiv+0x82>
    3722:	028b      	lsls	r3, r1, #10
    3724:	1ac0      	subs	r0, r0, r3
    3726:	4152      	adcs	r2, r2
    3728:	0a43      	lsrs	r3, r0, #9
    372a:	428b      	cmp	r3, r1
    372c:	d301      	bcc.n	3732 <__aeabi_uidiv+0x8e>
    372e:	024b      	lsls	r3, r1, #9
    3730:	1ac0      	subs	r0, r0, r3
    3732:	4152      	adcs	r2, r2
    3734:	0a03      	lsrs	r3, r0, #8
    3736:	428b      	cmp	r3, r1
    3738:	d301      	bcc.n	373e <__aeabi_uidiv+0x9a>
    373a:	020b      	lsls	r3, r1, #8
    373c:	1ac0      	subs	r0, r0, r3
    373e:	4152      	adcs	r2, r2
    3740:	d2cd      	bcs.n	36de <__aeabi_uidiv+0x3a>
    3742:	09c3      	lsrs	r3, r0, #7
    3744:	428b      	cmp	r3, r1
    3746:	d301      	bcc.n	374c <__aeabi_uidiv+0xa8>
    3748:	01cb      	lsls	r3, r1, #7
    374a:	1ac0      	subs	r0, r0, r3
    374c:	4152      	adcs	r2, r2
    374e:	0983      	lsrs	r3, r0, #6
    3750:	428b      	cmp	r3, r1
    3752:	d301      	bcc.n	3758 <__aeabi_uidiv+0xb4>
    3754:	018b      	lsls	r3, r1, #6
    3756:	1ac0      	subs	r0, r0, r3
    3758:	4152      	adcs	r2, r2
    375a:	0943      	lsrs	r3, r0, #5
    375c:	428b      	cmp	r3, r1
    375e:	d301      	bcc.n	3764 <__aeabi_uidiv+0xc0>
    3760:	014b      	lsls	r3, r1, #5
    3762:	1ac0      	subs	r0, r0, r3
    3764:	4152      	adcs	r2, r2
    3766:	0903      	lsrs	r3, r0, #4
    3768:	428b      	cmp	r3, r1
    376a:	d301      	bcc.n	3770 <__aeabi_uidiv+0xcc>
    376c:	010b      	lsls	r3, r1, #4
    376e:	1ac0      	subs	r0, r0, r3
    3770:	4152      	adcs	r2, r2
    3772:	08c3      	lsrs	r3, r0, #3
    3774:	428b      	cmp	r3, r1
    3776:	d301      	bcc.n	377c <__aeabi_uidiv+0xd8>
    3778:	00cb      	lsls	r3, r1, #3
    377a:	1ac0      	subs	r0, r0, r3
    377c:	4152      	adcs	r2, r2
    377e:	0883      	lsrs	r3, r0, #2
    3780:	428b      	cmp	r3, r1
    3782:	d301      	bcc.n	3788 <__aeabi_uidiv+0xe4>
    3784:	008b      	lsls	r3, r1, #2
    3786:	1ac0      	subs	r0, r0, r3
    3788:	4152      	adcs	r2, r2
    378a:	0843      	lsrs	r3, r0, #1
    378c:	428b      	cmp	r3, r1
    378e:	d301      	bcc.n	3794 <__aeabi_uidiv+0xf0>
    3790:	004b      	lsls	r3, r1, #1
    3792:	1ac0      	subs	r0, r0, r3
    3794:	4152      	adcs	r2, r2
    3796:	1a41      	subs	r1, r0, r1
    3798:	d200      	bcs.n	379c <__aeabi_uidiv+0xf8>
    379a:	4601      	mov	r1, r0
    379c:	4152      	adcs	r2, r2
    379e:	4610      	mov	r0, r2
    37a0:	4770      	bx	lr
    37a2:	e7ff      	b.n	37a4 <__aeabi_uidiv+0x100>
    37a4:	b501      	push	{r0, lr}
    37a6:	2000      	movs	r0, #0
    37a8:	f000 f80c 	bl	37c4 <__aeabi_idiv0>
    37ac:	bd02      	pop	{r1, pc}
    37ae:	46c0      	nop			; (mov r8, r8)

000037b0 <__aeabi_uidivmod>:
    37b0:	2900      	cmp	r1, #0
    37b2:	d0f7      	beq.n	37a4 <__aeabi_uidiv+0x100>
    37b4:	b503      	push	{r0, r1, lr}
    37b6:	f7ff ff75 	bl	36a4 <__aeabi_uidiv>
    37ba:	bc0e      	pop	{r1, r2, r3}
    37bc:	4342      	muls	r2, r0
    37be:	1a89      	subs	r1, r1, r2
    37c0:	4718      	bx	r3
    37c2:	46c0      	nop			; (mov r8, r8)

000037c4 <__aeabi_idiv0>:
    37c4:	4770      	bx	lr
    37c6:	46c0      	nop			; (mov r8, r8)

000037c8 <__aeabi_lmul>:
    37c8:	b5f0      	push	{r4, r5, r6, r7, lr}
    37ca:	464f      	mov	r7, r9
    37cc:	4646      	mov	r6, r8
    37ce:	0405      	lsls	r5, r0, #16
    37d0:	0c2d      	lsrs	r5, r5, #16
    37d2:	1c2c      	adds	r4, r5, #0
    37d4:	b4c0      	push	{r6, r7}
    37d6:	0417      	lsls	r7, r2, #16
    37d8:	0c16      	lsrs	r6, r2, #16
    37da:	0c3f      	lsrs	r7, r7, #16
    37dc:	4699      	mov	r9, r3
    37de:	0c03      	lsrs	r3, r0, #16
    37e0:	437c      	muls	r4, r7
    37e2:	4375      	muls	r5, r6
    37e4:	435f      	muls	r7, r3
    37e6:	4373      	muls	r3, r6
    37e8:	197d      	adds	r5, r7, r5
    37ea:	0c26      	lsrs	r6, r4, #16
    37ec:	19ad      	adds	r5, r5, r6
    37ee:	469c      	mov	ip, r3
    37f0:	42af      	cmp	r7, r5
    37f2:	d903      	bls.n	37fc <__aeabi_lmul+0x34>
    37f4:	2380      	movs	r3, #128	; 0x80
    37f6:	025b      	lsls	r3, r3, #9
    37f8:	4698      	mov	r8, r3
    37fa:	44c4      	add	ip, r8
    37fc:	464b      	mov	r3, r9
    37fe:	4351      	muls	r1, r2
    3800:	4343      	muls	r3, r0
    3802:	0424      	lsls	r4, r4, #16
    3804:	0c2e      	lsrs	r6, r5, #16
    3806:	0c24      	lsrs	r4, r4, #16
    3808:	042d      	lsls	r5, r5, #16
    380a:	4466      	add	r6, ip
    380c:	192c      	adds	r4, r5, r4
    380e:	1859      	adds	r1, r3, r1
    3810:	1989      	adds	r1, r1, r6
    3812:	1c20      	adds	r0, r4, #0
    3814:	bc0c      	pop	{r2, r3}
    3816:	4690      	mov	r8, r2
    3818:	4699      	mov	r9, r3
    381a:	bdf0      	pop	{r4, r5, r6, r7, pc}

0000381c <__aeabi_ui2f>:
    381c:	b510      	push	{r4, lr}
    381e:	1e04      	subs	r4, r0, #0
    3820:	d035      	beq.n	388e <__aeabi_ui2f+0x72>
    3822:	f000 ff3b 	bl	469c <__clzsi2>
    3826:	219e      	movs	r1, #158	; 0x9e
    3828:	1a09      	subs	r1, r1, r0
    382a:	2996      	cmp	r1, #150	; 0x96
    382c:	dc09      	bgt.n	3842 <__aeabi_ui2f+0x26>
    382e:	2808      	cmp	r0, #8
    3830:	dd30      	ble.n	3894 <__aeabi_ui2f+0x78>
    3832:	1c02      	adds	r2, r0, #0
    3834:	1c23      	adds	r3, r4, #0
    3836:	3a08      	subs	r2, #8
    3838:	4093      	lsls	r3, r2
    383a:	025b      	lsls	r3, r3, #9
    383c:	0a5b      	lsrs	r3, r3, #9
    383e:	b2c8      	uxtb	r0, r1
    3840:	e020      	b.n	3884 <__aeabi_ui2f+0x68>
    3842:	2999      	cmp	r1, #153	; 0x99
    3844:	dd0c      	ble.n	3860 <__aeabi_ui2f+0x44>
    3846:	2205      	movs	r2, #5
    3848:	1c23      	adds	r3, r4, #0
    384a:	1a12      	subs	r2, r2, r0
    384c:	40d3      	lsrs	r3, r2
    384e:	1c1a      	adds	r2, r3, #0
    3850:	1c03      	adds	r3, r0, #0
    3852:	331b      	adds	r3, #27
    3854:	409c      	lsls	r4, r3
    3856:	1c23      	adds	r3, r4, #0
    3858:	1e5c      	subs	r4, r3, #1
    385a:	41a3      	sbcs	r3, r4
    385c:	4313      	orrs	r3, r2
    385e:	1c1c      	adds	r4, r3, #0
    3860:	2805      	cmp	r0, #5
    3862:	dd01      	ble.n	3868 <__aeabi_ui2f+0x4c>
    3864:	1f43      	subs	r3, r0, #5
    3866:	409c      	lsls	r4, r3
    3868:	4b0f      	ldr	r3, [pc, #60]	; (38a8 <__aeabi_ui2f+0x8c>)
    386a:	4023      	ands	r3, r4
    386c:	0762      	lsls	r2, r4, #29
    386e:	d004      	beq.n	387a <__aeabi_ui2f+0x5e>
    3870:	220f      	movs	r2, #15
    3872:	4014      	ands	r4, r2
    3874:	2c04      	cmp	r4, #4
    3876:	d000      	beq.n	387a <__aeabi_ui2f+0x5e>
    3878:	3304      	adds	r3, #4
    387a:	015a      	lsls	r2, r3, #5
    387c:	d40e      	bmi.n	389c <__aeabi_ui2f+0x80>
    387e:	019b      	lsls	r3, r3, #6
    3880:	0a5b      	lsrs	r3, r3, #9
    3882:	b2c8      	uxtb	r0, r1
    3884:	025b      	lsls	r3, r3, #9
    3886:	0a5b      	lsrs	r3, r3, #9
    3888:	05c0      	lsls	r0, r0, #23
    388a:	4318      	orrs	r0, r3
    388c:	bd10      	pop	{r4, pc}
    388e:	2000      	movs	r0, #0
    3890:	2300      	movs	r3, #0
    3892:	e7f7      	b.n	3884 <__aeabi_ui2f+0x68>
    3894:	0263      	lsls	r3, r4, #9
    3896:	0a5b      	lsrs	r3, r3, #9
    3898:	b2c8      	uxtb	r0, r1
    389a:	e7f3      	b.n	3884 <__aeabi_ui2f+0x68>
    389c:	219f      	movs	r1, #159	; 0x9f
    389e:	4a02      	ldr	r2, [pc, #8]	; (38a8 <__aeabi_ui2f+0x8c>)
    38a0:	1a09      	subs	r1, r1, r0
    38a2:	4013      	ands	r3, r2
    38a4:	e7eb      	b.n	387e <__aeabi_ui2f+0x62>
    38a6:	46c0      	nop			; (mov r8, r8)
    38a8:	fbffffff 	.word	0xfbffffff

000038ac <__aeabi_dmul>:
    38ac:	b5f0      	push	{r4, r5, r6, r7, lr}
    38ae:	465f      	mov	r7, fp
    38b0:	4656      	mov	r6, sl
    38b2:	464d      	mov	r5, r9
    38b4:	4644      	mov	r4, r8
    38b6:	b4f0      	push	{r4, r5, r6, r7}
    38b8:	1c05      	adds	r5, r0, #0
    38ba:	1c06      	adds	r6, r0, #0
    38bc:	0308      	lsls	r0, r1, #12
    38be:	b087      	sub	sp, #28
    38c0:	4699      	mov	r9, r3
    38c2:	004f      	lsls	r7, r1, #1
    38c4:	0b03      	lsrs	r3, r0, #12
    38c6:	0fcc      	lsrs	r4, r1, #31
    38c8:	4692      	mov	sl, r2
    38ca:	469b      	mov	fp, r3
    38cc:	0d7f      	lsrs	r7, r7, #21
    38ce:	9401      	str	r4, [sp, #4]
    38d0:	d067      	beq.n	39a2 <__aeabi_dmul+0xf6>
    38d2:	4b6c      	ldr	r3, [pc, #432]	; (3a84 <__aeabi_dmul+0x1d8>)
    38d4:	429f      	cmp	r7, r3
    38d6:	d036      	beq.n	3946 <__aeabi_dmul+0x9a>
    38d8:	2080      	movs	r0, #128	; 0x80
    38da:	465b      	mov	r3, fp
    38dc:	0340      	lsls	r0, r0, #13
    38de:	4318      	orrs	r0, r3
    38e0:	00c0      	lsls	r0, r0, #3
    38e2:	0f6b      	lsrs	r3, r5, #29
    38e4:	4318      	orrs	r0, r3
    38e6:	4b68      	ldr	r3, [pc, #416]	; (3a88 <__aeabi_dmul+0x1dc>)
    38e8:	4683      	mov	fp, r0
    38ea:	469c      	mov	ip, r3
    38ec:	2300      	movs	r3, #0
    38ee:	4698      	mov	r8, r3
    38f0:	00ee      	lsls	r6, r5, #3
    38f2:	4467      	add	r7, ip
    38f4:	9300      	str	r3, [sp, #0]
    38f6:	464b      	mov	r3, r9
    38f8:	4649      	mov	r1, r9
    38fa:	031d      	lsls	r5, r3, #12
    38fc:	0fc9      	lsrs	r1, r1, #31
    38fe:	005b      	lsls	r3, r3, #1
    3900:	4652      	mov	r2, sl
    3902:	0b2d      	lsrs	r5, r5, #12
    3904:	0d5b      	lsrs	r3, r3, #21
    3906:	4689      	mov	r9, r1
    3908:	d100      	bne.n	390c <__aeabi_dmul+0x60>
    390a:	e06e      	b.n	39ea <__aeabi_dmul+0x13e>
    390c:	495d      	ldr	r1, [pc, #372]	; (3a84 <__aeabi_dmul+0x1d8>)
    390e:	428b      	cmp	r3, r1
    3910:	d064      	beq.n	39dc <__aeabi_dmul+0x130>
    3912:	2080      	movs	r0, #128	; 0x80
    3914:	495c      	ldr	r1, [pc, #368]	; (3a88 <__aeabi_dmul+0x1dc>)
    3916:	0340      	lsls	r0, r0, #13
    3918:	468c      	mov	ip, r1
    391a:	2100      	movs	r1, #0
    391c:	4305      	orrs	r5, r0
    391e:	00ed      	lsls	r5, r5, #3
    3920:	0f50      	lsrs	r0, r2, #29
    3922:	4305      	orrs	r5, r0
    3924:	00d2      	lsls	r2, r2, #3
    3926:	4463      	add	r3, ip
    3928:	4648      	mov	r0, r9
    392a:	18ff      	adds	r7, r7, r3
    392c:	1c7b      	adds	r3, r7, #1
    392e:	469a      	mov	sl, r3
    3930:	9b00      	ldr	r3, [sp, #0]
    3932:	4060      	eors	r0, r4
    3934:	9002      	str	r0, [sp, #8]
    3936:	430b      	orrs	r3, r1
    3938:	2b0f      	cmp	r3, #15
    393a:	d900      	bls.n	393e <__aeabi_dmul+0x92>
    393c:	e0ac      	b.n	3a98 <__aeabi_dmul+0x1ec>
    393e:	4853      	ldr	r0, [pc, #332]	; (3a8c <__aeabi_dmul+0x1e0>)
    3940:	009b      	lsls	r3, r3, #2
    3942:	58c3      	ldr	r3, [r0, r3]
    3944:	469f      	mov	pc, r3
    3946:	465b      	mov	r3, fp
    3948:	431d      	orrs	r5, r3
    394a:	d000      	beq.n	394e <__aeabi_dmul+0xa2>
    394c:	e082      	b.n	3a54 <__aeabi_dmul+0x1a8>
    394e:	2308      	movs	r3, #8
    3950:	9300      	str	r3, [sp, #0]
    3952:	2300      	movs	r3, #0
    3954:	469b      	mov	fp, r3
    3956:	3302      	adds	r3, #2
    3958:	2600      	movs	r6, #0
    395a:	4698      	mov	r8, r3
    395c:	e7cb      	b.n	38f6 <__aeabi_dmul+0x4a>
    395e:	9b02      	ldr	r3, [sp, #8]
    3960:	9301      	str	r3, [sp, #4]
    3962:	4643      	mov	r3, r8
    3964:	2b02      	cmp	r3, #2
    3966:	d159      	bne.n	3a1c <__aeabi_dmul+0x170>
    3968:	2401      	movs	r4, #1
    396a:	2500      	movs	r5, #0
    396c:	2600      	movs	r6, #0
    396e:	9b01      	ldr	r3, [sp, #4]
    3970:	401c      	ands	r4, r3
    3972:	4b44      	ldr	r3, [pc, #272]	; (3a84 <__aeabi_dmul+0x1d8>)
    3974:	2100      	movs	r1, #0
    3976:	032d      	lsls	r5, r5, #12
    3978:	0d0a      	lsrs	r2, r1, #20
    397a:	0512      	lsls	r2, r2, #20
    397c:	0b2d      	lsrs	r5, r5, #12
    397e:	4315      	orrs	r5, r2
    3980:	4a43      	ldr	r2, [pc, #268]	; (3a90 <__aeabi_dmul+0x1e4>)
    3982:	051b      	lsls	r3, r3, #20
    3984:	4015      	ands	r5, r2
    3986:	431d      	orrs	r5, r3
    3988:	006d      	lsls	r5, r5, #1
    398a:	07e4      	lsls	r4, r4, #31
    398c:	086d      	lsrs	r5, r5, #1
    398e:	4325      	orrs	r5, r4
    3990:	1c30      	adds	r0, r6, #0
    3992:	1c29      	adds	r1, r5, #0
    3994:	b007      	add	sp, #28
    3996:	bc3c      	pop	{r2, r3, r4, r5}
    3998:	4690      	mov	r8, r2
    399a:	4699      	mov	r9, r3
    399c:	46a2      	mov	sl, r4
    399e:	46ab      	mov	fp, r5
    39a0:	bdf0      	pop	{r4, r5, r6, r7, pc}
    39a2:	432b      	orrs	r3, r5
    39a4:	d04e      	beq.n	3a44 <__aeabi_dmul+0x198>
    39a6:	465b      	mov	r3, fp
    39a8:	2b00      	cmp	r3, #0
    39aa:	d100      	bne.n	39ae <__aeabi_dmul+0x102>
    39ac:	e185      	b.n	3cba <__aeabi_dmul+0x40e>
    39ae:	4658      	mov	r0, fp
    39b0:	f000 fe74 	bl	469c <__clzsi2>
    39b4:	1c02      	adds	r2, r0, #0
    39b6:	2328      	movs	r3, #40	; 0x28
    39b8:	1c29      	adds	r1, r5, #0
    39ba:	1a9b      	subs	r3, r3, r2
    39bc:	1c16      	adds	r6, r2, #0
    39be:	4658      	mov	r0, fp
    39c0:	40d9      	lsrs	r1, r3
    39c2:	3e08      	subs	r6, #8
    39c4:	40b0      	lsls	r0, r6
    39c6:	1c0b      	adds	r3, r1, #0
    39c8:	40b5      	lsls	r5, r6
    39ca:	4303      	orrs	r3, r0
    39cc:	469b      	mov	fp, r3
    39ce:	1c2e      	adds	r6, r5, #0
    39d0:	2300      	movs	r3, #0
    39d2:	4f30      	ldr	r7, [pc, #192]	; (3a94 <__aeabi_dmul+0x1e8>)
    39d4:	9300      	str	r3, [sp, #0]
    39d6:	1abf      	subs	r7, r7, r2
    39d8:	4698      	mov	r8, r3
    39da:	e78c      	b.n	38f6 <__aeabi_dmul+0x4a>
    39dc:	4651      	mov	r1, sl
    39de:	4329      	orrs	r1, r5
    39e0:	d12e      	bne.n	3a40 <__aeabi_dmul+0x194>
    39e2:	2500      	movs	r5, #0
    39e4:	2200      	movs	r2, #0
    39e6:	2102      	movs	r1, #2
    39e8:	e79e      	b.n	3928 <__aeabi_dmul+0x7c>
    39ea:	4651      	mov	r1, sl
    39ec:	4329      	orrs	r1, r5
    39ee:	d023      	beq.n	3a38 <__aeabi_dmul+0x18c>
    39f0:	2d00      	cmp	r5, #0
    39f2:	d100      	bne.n	39f6 <__aeabi_dmul+0x14a>
    39f4:	e154      	b.n	3ca0 <__aeabi_dmul+0x3f4>
    39f6:	1c28      	adds	r0, r5, #0
    39f8:	f000 fe50 	bl	469c <__clzsi2>
    39fc:	1c03      	adds	r3, r0, #0
    39fe:	2128      	movs	r1, #40	; 0x28
    3a00:	4650      	mov	r0, sl
    3a02:	1ac9      	subs	r1, r1, r3
    3a04:	1c1a      	adds	r2, r3, #0
    3a06:	40c8      	lsrs	r0, r1
    3a08:	4651      	mov	r1, sl
    3a0a:	3a08      	subs	r2, #8
    3a0c:	4091      	lsls	r1, r2
    3a0e:	4095      	lsls	r5, r2
    3a10:	1c0a      	adds	r2, r1, #0
    3a12:	4305      	orrs	r5, r0
    3a14:	481f      	ldr	r0, [pc, #124]	; (3a94 <__aeabi_dmul+0x1e8>)
    3a16:	2100      	movs	r1, #0
    3a18:	1ac3      	subs	r3, r0, r3
    3a1a:	e785      	b.n	3928 <__aeabi_dmul+0x7c>
    3a1c:	2b03      	cmp	r3, #3
    3a1e:	d100      	bne.n	3a22 <__aeabi_dmul+0x176>
    3a20:	e1c2      	b.n	3da8 <__aeabi_dmul+0x4fc>
    3a22:	2b01      	cmp	r3, #1
    3a24:	d000      	beq.n	3a28 <__aeabi_dmul+0x17c>
    3a26:	e16d      	b.n	3d04 <__aeabi_dmul+0x458>
    3a28:	4644      	mov	r4, r8
    3a2a:	9b01      	ldr	r3, [sp, #4]
    3a2c:	2500      	movs	r5, #0
    3a2e:	401c      	ands	r4, r3
    3a30:	b2e4      	uxtb	r4, r4
    3a32:	2300      	movs	r3, #0
    3a34:	2600      	movs	r6, #0
    3a36:	e79d      	b.n	3974 <__aeabi_dmul+0xc8>
    3a38:	2500      	movs	r5, #0
    3a3a:	2200      	movs	r2, #0
    3a3c:	2101      	movs	r1, #1
    3a3e:	e773      	b.n	3928 <__aeabi_dmul+0x7c>
    3a40:	2103      	movs	r1, #3
    3a42:	e771      	b.n	3928 <__aeabi_dmul+0x7c>
    3a44:	2304      	movs	r3, #4
    3a46:	9300      	str	r3, [sp, #0]
    3a48:	2300      	movs	r3, #0
    3a4a:	469b      	mov	fp, r3
    3a4c:	3301      	adds	r3, #1
    3a4e:	2600      	movs	r6, #0
    3a50:	4698      	mov	r8, r3
    3a52:	e750      	b.n	38f6 <__aeabi_dmul+0x4a>
    3a54:	230c      	movs	r3, #12
    3a56:	9300      	str	r3, [sp, #0]
    3a58:	3b09      	subs	r3, #9
    3a5a:	4698      	mov	r8, r3
    3a5c:	e74b      	b.n	38f6 <__aeabi_dmul+0x4a>
    3a5e:	2580      	movs	r5, #128	; 0x80
    3a60:	2400      	movs	r4, #0
    3a62:	032d      	lsls	r5, r5, #12
    3a64:	2600      	movs	r6, #0
    3a66:	4b07      	ldr	r3, [pc, #28]	; (3a84 <__aeabi_dmul+0x1d8>)
    3a68:	e784      	b.n	3974 <__aeabi_dmul+0xc8>
    3a6a:	464b      	mov	r3, r9
    3a6c:	46ab      	mov	fp, r5
    3a6e:	1c16      	adds	r6, r2, #0
    3a70:	9301      	str	r3, [sp, #4]
    3a72:	4688      	mov	r8, r1
    3a74:	e775      	b.n	3962 <__aeabi_dmul+0xb6>
    3a76:	9b02      	ldr	r3, [sp, #8]
    3a78:	46ab      	mov	fp, r5
    3a7a:	1c16      	adds	r6, r2, #0
    3a7c:	9301      	str	r3, [sp, #4]
    3a7e:	4688      	mov	r8, r1
    3a80:	e76f      	b.n	3962 <__aeabi_dmul+0xb6>
    3a82:	46c0      	nop			; (mov r8, r8)
    3a84:	000007ff 	.word	0x000007ff
    3a88:	fffffc01 	.word	0xfffffc01
    3a8c:	00005790 	.word	0x00005790
    3a90:	800fffff 	.word	0x800fffff
    3a94:	fffffc0d 	.word	0xfffffc0d
    3a98:	0c33      	lsrs	r3, r6, #16
    3a9a:	0436      	lsls	r6, r6, #16
    3a9c:	0c36      	lsrs	r6, r6, #16
    3a9e:	469c      	mov	ip, r3
    3aa0:	1c33      	adds	r3, r6, #0
    3aa2:	0c14      	lsrs	r4, r2, #16
    3aa4:	0412      	lsls	r2, r2, #16
    3aa6:	0c12      	lsrs	r2, r2, #16
    3aa8:	4353      	muls	r3, r2
    3aaa:	4698      	mov	r8, r3
    3aac:	4663      	mov	r3, ip
    3aae:	4353      	muls	r3, r2
    3ab0:	4699      	mov	r9, r3
    3ab2:	4663      	mov	r3, ip
    3ab4:	4363      	muls	r3, r4
    3ab6:	9301      	str	r3, [sp, #4]
    3ab8:	1c33      	adds	r3, r6, #0
    3aba:	4641      	mov	r1, r8
    3abc:	4363      	muls	r3, r4
    3abe:	0c09      	lsrs	r1, r1, #16
    3ac0:	444b      	add	r3, r9
    3ac2:	185b      	adds	r3, r3, r1
    3ac4:	4599      	cmp	r9, r3
    3ac6:	d905      	bls.n	3ad4 <__aeabi_dmul+0x228>
    3ac8:	2080      	movs	r0, #128	; 0x80
    3aca:	0240      	lsls	r0, r0, #9
    3acc:	4681      	mov	r9, r0
    3ace:	9901      	ldr	r1, [sp, #4]
    3ad0:	4449      	add	r1, r9
    3ad2:	9101      	str	r1, [sp, #4]
    3ad4:	0c19      	lsrs	r1, r3, #16
    3ad6:	9103      	str	r1, [sp, #12]
    3ad8:	4641      	mov	r1, r8
    3ada:	0409      	lsls	r1, r1, #16
    3adc:	0c09      	lsrs	r1, r1, #16
    3ade:	041b      	lsls	r3, r3, #16
    3ae0:	185b      	adds	r3, r3, r1
    3ae2:	9304      	str	r3, [sp, #16]
    3ae4:	0c2b      	lsrs	r3, r5, #16
    3ae6:	4698      	mov	r8, r3
    3ae8:	1c33      	adds	r3, r6, #0
    3aea:	042d      	lsls	r5, r5, #16
    3aec:	0c29      	lsrs	r1, r5, #16
    3aee:	434b      	muls	r3, r1
    3af0:	4660      	mov	r0, ip
    3af2:	9300      	str	r3, [sp, #0]
    3af4:	4643      	mov	r3, r8
    3af6:	4665      	mov	r5, ip
    3af8:	4358      	muls	r0, r3
    3afa:	435e      	muls	r6, r3
    3afc:	9b00      	ldr	r3, [sp, #0]
    3afe:	434d      	muls	r5, r1
    3b00:	0c1b      	lsrs	r3, r3, #16
    3b02:	4699      	mov	r9, r3
    3b04:	19ae      	adds	r6, r5, r6
    3b06:	444e      	add	r6, r9
    3b08:	4684      	mov	ip, r0
    3b0a:	42b5      	cmp	r5, r6
    3b0c:	d903      	bls.n	3b16 <__aeabi_dmul+0x26a>
    3b0e:	2380      	movs	r3, #128	; 0x80
    3b10:	025b      	lsls	r3, r3, #9
    3b12:	4699      	mov	r9, r3
    3b14:	44cc      	add	ip, r9
    3b16:	0c35      	lsrs	r5, r6, #16
    3b18:	1c2b      	adds	r3, r5, #0
    3b1a:	9803      	ldr	r0, [sp, #12]
    3b1c:	4463      	add	r3, ip
    3b1e:	4684      	mov	ip, r0
    3b20:	9305      	str	r3, [sp, #20]
    3b22:	9b00      	ldr	r3, [sp, #0]
    3b24:	0436      	lsls	r6, r6, #16
    3b26:	041b      	lsls	r3, r3, #16
    3b28:	0c1b      	lsrs	r3, r3, #16
    3b2a:	18f3      	adds	r3, r6, r3
    3b2c:	449c      	add	ip, r3
    3b2e:	4660      	mov	r0, ip
    3b30:	9003      	str	r0, [sp, #12]
    3b32:	4658      	mov	r0, fp
    3b34:	0405      	lsls	r5, r0, #16
    3b36:	0c06      	lsrs	r6, r0, #16
    3b38:	0c28      	lsrs	r0, r5, #16
    3b3a:	4684      	mov	ip, r0
    3b3c:	4350      	muls	r0, r2
    3b3e:	1c35      	adds	r5, r6, #0
    3b40:	4681      	mov	r9, r0
    3b42:	4660      	mov	r0, ip
    3b44:	4365      	muls	r5, r4
    3b46:	4344      	muls	r4, r0
    3b48:	4648      	mov	r0, r9
    3b4a:	0c00      	lsrs	r0, r0, #16
    3b4c:	4683      	mov	fp, r0
    3b4e:	4372      	muls	r2, r6
    3b50:	1914      	adds	r4, r2, r4
    3b52:	445c      	add	r4, fp
    3b54:	42a2      	cmp	r2, r4
    3b56:	d903      	bls.n	3b60 <__aeabi_dmul+0x2b4>
    3b58:	2280      	movs	r2, #128	; 0x80
    3b5a:	0252      	lsls	r2, r2, #9
    3b5c:	4693      	mov	fp, r2
    3b5e:	445d      	add	r5, fp
    3b60:	0c22      	lsrs	r2, r4, #16
    3b62:	18ad      	adds	r5, r5, r2
    3b64:	464a      	mov	r2, r9
    3b66:	0412      	lsls	r2, r2, #16
    3b68:	0c12      	lsrs	r2, r2, #16
    3b6a:	0424      	lsls	r4, r4, #16
    3b6c:	4640      	mov	r0, r8
    3b6e:	18a4      	adds	r4, r4, r2
    3b70:	4662      	mov	r2, ip
    3b72:	434a      	muls	r2, r1
    3b74:	4371      	muls	r1, r6
    3b76:	4346      	muls	r6, r0
    3b78:	4660      	mov	r0, ip
    3b7a:	9600      	str	r6, [sp, #0]
    3b7c:	4646      	mov	r6, r8
    3b7e:	4370      	muls	r0, r6
    3b80:	4680      	mov	r8, r0
    3b82:	0c10      	lsrs	r0, r2, #16
    3b84:	4684      	mov	ip, r0
    3b86:	4488      	add	r8, r1
    3b88:	44e0      	add	r8, ip
    3b8a:	4541      	cmp	r1, r8
    3b8c:	d905      	bls.n	3b9a <__aeabi_dmul+0x2ee>
    3b8e:	2180      	movs	r1, #128	; 0x80
    3b90:	0249      	lsls	r1, r1, #9
    3b92:	468c      	mov	ip, r1
    3b94:	9900      	ldr	r1, [sp, #0]
    3b96:	4461      	add	r1, ip
    3b98:	9100      	str	r1, [sp, #0]
    3b9a:	9801      	ldr	r0, [sp, #4]
    3b9c:	9903      	ldr	r1, [sp, #12]
    3b9e:	4684      	mov	ip, r0
    3ba0:	4461      	add	r1, ip
    3ba2:	4299      	cmp	r1, r3
    3ba4:	419b      	sbcs	r3, r3
    3ba6:	425b      	negs	r3, r3
    3ba8:	4699      	mov	r9, r3
    3baa:	9805      	ldr	r0, [sp, #20]
    3bac:	4643      	mov	r3, r8
    3bae:	4684      	mov	ip, r0
    3bb0:	0412      	lsls	r2, r2, #16
    3bb2:	0c12      	lsrs	r2, r2, #16
    3bb4:	041b      	lsls	r3, r3, #16
    3bb6:	189b      	adds	r3, r3, r2
    3bb8:	4463      	add	r3, ip
    3bba:	469c      	mov	ip, r3
    3bbc:	46ab      	mov	fp, r5
    3bbe:	4283      	cmp	r3, r0
    3bc0:	419b      	sbcs	r3, r3
    3bc2:	4640      	mov	r0, r8
    3bc4:	190a      	adds	r2, r1, r4
    3bc6:	44cc      	add	ip, r9
    3bc8:	42a2      	cmp	r2, r4
    3bca:	4189      	sbcs	r1, r1
    3bcc:	44e3      	add	fp, ip
    3bce:	45cc      	cmp	ip, r9
    3bd0:	41b6      	sbcs	r6, r6
    3bd2:	465c      	mov	r4, fp
    3bd4:	0c00      	lsrs	r0, r0, #16
    3bd6:	4680      	mov	r8, r0
    3bd8:	4249      	negs	r1, r1
    3bda:	4276      	negs	r6, r6
    3bdc:	425b      	negs	r3, r3
    3bde:	1864      	adds	r4, r4, r1
    3be0:	4333      	orrs	r3, r6
    3be2:	4498      	add	r8, r3
    3be4:	428c      	cmp	r4, r1
    3be6:	4189      	sbcs	r1, r1
    3be8:	45ab      	cmp	fp, r5
    3bea:	419b      	sbcs	r3, r3
    3bec:	4249      	negs	r1, r1
    3bee:	425b      	negs	r3, r3
    3bf0:	4319      	orrs	r1, r3
    3bf2:	1c0d      	adds	r5, r1, #0
    3bf4:	9b00      	ldr	r3, [sp, #0]
    3bf6:	4445      	add	r5, r8
    3bf8:	18ee      	adds	r6, r5, r3
    3bfa:	0276      	lsls	r6, r6, #9
    3bfc:	0de5      	lsrs	r5, r4, #23
    3bfe:	432e      	orrs	r6, r5
    3c00:	46b3      	mov	fp, r6
    3c02:	9b04      	ldr	r3, [sp, #16]
    3c04:	0256      	lsls	r6, r2, #9
    3c06:	431e      	orrs	r6, r3
    3c08:	1e73      	subs	r3, r6, #1
    3c0a:	419e      	sbcs	r6, r3
    3c0c:	465b      	mov	r3, fp
    3c0e:	0dd2      	lsrs	r2, r2, #23
    3c10:	4332      	orrs	r2, r6
    3c12:	0266      	lsls	r6, r4, #9
    3c14:	4316      	orrs	r6, r2
    3c16:	01db      	lsls	r3, r3, #7
    3c18:	d50a      	bpl.n	3c30 <__aeabi_dmul+0x384>
    3c1a:	2301      	movs	r3, #1
    3c1c:	4033      	ands	r3, r6
    3c1e:	0876      	lsrs	r6, r6, #1
    3c20:	431e      	orrs	r6, r3
    3c22:	465b      	mov	r3, fp
    3c24:	07db      	lsls	r3, r3, #31
    3c26:	431e      	orrs	r6, r3
    3c28:	465b      	mov	r3, fp
    3c2a:	085b      	lsrs	r3, r3, #1
    3c2c:	469b      	mov	fp, r3
    3c2e:	4657      	mov	r7, sl
    3c30:	4b63      	ldr	r3, [pc, #396]	; (3dc0 <__aeabi_dmul+0x514>)
    3c32:	18fb      	adds	r3, r7, r3
    3c34:	2b00      	cmp	r3, #0
    3c36:	dd5a      	ble.n	3cee <__aeabi_dmul+0x442>
    3c38:	0772      	lsls	r2, r6, #29
    3c3a:	d009      	beq.n	3c50 <__aeabi_dmul+0x3a4>
    3c3c:	220f      	movs	r2, #15
    3c3e:	4032      	ands	r2, r6
    3c40:	2a04      	cmp	r2, #4
    3c42:	d005      	beq.n	3c50 <__aeabi_dmul+0x3a4>
    3c44:	1d32      	adds	r2, r6, #4
    3c46:	42b2      	cmp	r2, r6
    3c48:	41b6      	sbcs	r6, r6
    3c4a:	4276      	negs	r6, r6
    3c4c:	44b3      	add	fp, r6
    3c4e:	1c16      	adds	r6, r2, #0
    3c50:	465a      	mov	r2, fp
    3c52:	01d2      	lsls	r2, r2, #7
    3c54:	d506      	bpl.n	3c64 <__aeabi_dmul+0x3b8>
    3c56:	465a      	mov	r2, fp
    3c58:	4b5a      	ldr	r3, [pc, #360]	; (3dc4 <__aeabi_dmul+0x518>)
    3c5a:	401a      	ands	r2, r3
    3c5c:	2380      	movs	r3, #128	; 0x80
    3c5e:	4693      	mov	fp, r2
    3c60:	00db      	lsls	r3, r3, #3
    3c62:	18fb      	adds	r3, r7, r3
    3c64:	4a58      	ldr	r2, [pc, #352]	; (3dc8 <__aeabi_dmul+0x51c>)
    3c66:	4293      	cmp	r3, r2
    3c68:	dd34      	ble.n	3cd4 <__aeabi_dmul+0x428>
    3c6a:	2401      	movs	r4, #1
    3c6c:	9b02      	ldr	r3, [sp, #8]
    3c6e:	2500      	movs	r5, #0
    3c70:	401c      	ands	r4, r3
    3c72:	2600      	movs	r6, #0
    3c74:	4b55      	ldr	r3, [pc, #340]	; (3dcc <__aeabi_dmul+0x520>)
    3c76:	e67d      	b.n	3974 <__aeabi_dmul+0xc8>
    3c78:	2080      	movs	r0, #128	; 0x80
    3c7a:	465b      	mov	r3, fp
    3c7c:	0300      	lsls	r0, r0, #12
    3c7e:	4203      	tst	r3, r0
    3c80:	d008      	beq.n	3c94 <__aeabi_dmul+0x3e8>
    3c82:	4205      	tst	r5, r0
    3c84:	d106      	bne.n	3c94 <__aeabi_dmul+0x3e8>
    3c86:	4305      	orrs	r5, r0
    3c88:	032d      	lsls	r5, r5, #12
    3c8a:	0b2d      	lsrs	r5, r5, #12
    3c8c:	464c      	mov	r4, r9
    3c8e:	1c16      	adds	r6, r2, #0
    3c90:	4b4e      	ldr	r3, [pc, #312]	; (3dcc <__aeabi_dmul+0x520>)
    3c92:	e66f      	b.n	3974 <__aeabi_dmul+0xc8>
    3c94:	465d      	mov	r5, fp
    3c96:	4305      	orrs	r5, r0
    3c98:	032d      	lsls	r5, r5, #12
    3c9a:	0b2d      	lsrs	r5, r5, #12
    3c9c:	4b4b      	ldr	r3, [pc, #300]	; (3dcc <__aeabi_dmul+0x520>)
    3c9e:	e669      	b.n	3974 <__aeabi_dmul+0xc8>
    3ca0:	4650      	mov	r0, sl
    3ca2:	f000 fcfb 	bl	469c <__clzsi2>
    3ca6:	1c03      	adds	r3, r0, #0
    3ca8:	3320      	adds	r3, #32
    3caa:	2b27      	cmp	r3, #39	; 0x27
    3cac:	dc00      	bgt.n	3cb0 <__aeabi_dmul+0x404>
    3cae:	e6a6      	b.n	39fe <__aeabi_dmul+0x152>
    3cb0:	4655      	mov	r5, sl
    3cb2:	3808      	subs	r0, #8
    3cb4:	4085      	lsls	r5, r0
    3cb6:	2200      	movs	r2, #0
    3cb8:	e6ac      	b.n	3a14 <__aeabi_dmul+0x168>
    3cba:	1c28      	adds	r0, r5, #0
    3cbc:	f000 fcee 	bl	469c <__clzsi2>
    3cc0:	1c02      	adds	r2, r0, #0
    3cc2:	3220      	adds	r2, #32
    3cc4:	2a27      	cmp	r2, #39	; 0x27
    3cc6:	dc00      	bgt.n	3cca <__aeabi_dmul+0x41e>
    3cc8:	e675      	b.n	39b6 <__aeabi_dmul+0x10a>
    3cca:	3808      	subs	r0, #8
    3ccc:	4085      	lsls	r5, r0
    3cce:	2600      	movs	r6, #0
    3cd0:	46ab      	mov	fp, r5
    3cd2:	e67d      	b.n	39d0 <__aeabi_dmul+0x124>
    3cd4:	465a      	mov	r2, fp
    3cd6:	08f6      	lsrs	r6, r6, #3
    3cd8:	0752      	lsls	r2, r2, #29
    3cda:	4316      	orrs	r6, r2
    3cdc:	465a      	mov	r2, fp
    3cde:	2401      	movs	r4, #1
    3ce0:	0255      	lsls	r5, r2, #9
    3ce2:	9a02      	ldr	r2, [sp, #8]
    3ce4:	055b      	lsls	r3, r3, #21
    3ce6:	0b2d      	lsrs	r5, r5, #12
    3ce8:	0d5b      	lsrs	r3, r3, #21
    3cea:	4014      	ands	r4, r2
    3cec:	e642      	b.n	3974 <__aeabi_dmul+0xc8>
    3cee:	4d38      	ldr	r5, [pc, #224]	; (3dd0 <__aeabi_dmul+0x524>)
    3cf0:	1bed      	subs	r5, r5, r7
    3cf2:	2d38      	cmp	r5, #56	; 0x38
    3cf4:	dd0a      	ble.n	3d0c <__aeabi_dmul+0x460>
    3cf6:	2401      	movs	r4, #1
    3cf8:	9b02      	ldr	r3, [sp, #8]
    3cfa:	2500      	movs	r5, #0
    3cfc:	401c      	ands	r4, r3
    3cfe:	2600      	movs	r6, #0
    3d00:	2300      	movs	r3, #0
    3d02:	e637      	b.n	3974 <__aeabi_dmul+0xc8>
    3d04:	9b01      	ldr	r3, [sp, #4]
    3d06:	4657      	mov	r7, sl
    3d08:	9302      	str	r3, [sp, #8]
    3d0a:	e791      	b.n	3c30 <__aeabi_dmul+0x384>
    3d0c:	2d1f      	cmp	r5, #31
    3d0e:	dc25      	bgt.n	3d5c <__aeabi_dmul+0x4b0>
    3d10:	4b30      	ldr	r3, [pc, #192]	; (3dd4 <__aeabi_dmul+0x528>)
    3d12:	1c32      	adds	r2, r6, #0
    3d14:	469c      	mov	ip, r3
    3d16:	4467      	add	r7, ip
    3d18:	40be      	lsls	r6, r7
    3d1a:	465b      	mov	r3, fp
    3d1c:	40bb      	lsls	r3, r7
    3d1e:	1c37      	adds	r7, r6, #0
    3d20:	40ea      	lsrs	r2, r5
    3d22:	1e7e      	subs	r6, r7, #1
    3d24:	41b7      	sbcs	r7, r6
    3d26:	4313      	orrs	r3, r2
    3d28:	433b      	orrs	r3, r7
    3d2a:	1c1e      	adds	r6, r3, #0
    3d2c:	465b      	mov	r3, fp
    3d2e:	40eb      	lsrs	r3, r5
    3d30:	1c1d      	adds	r5, r3, #0
    3d32:	0773      	lsls	r3, r6, #29
    3d34:	d009      	beq.n	3d4a <__aeabi_dmul+0x49e>
    3d36:	230f      	movs	r3, #15
    3d38:	4033      	ands	r3, r6
    3d3a:	2b04      	cmp	r3, #4
    3d3c:	d005      	beq.n	3d4a <__aeabi_dmul+0x49e>
    3d3e:	1d33      	adds	r3, r6, #4
    3d40:	42b3      	cmp	r3, r6
    3d42:	41b6      	sbcs	r6, r6
    3d44:	4276      	negs	r6, r6
    3d46:	19ad      	adds	r5, r5, r6
    3d48:	1c1e      	adds	r6, r3, #0
    3d4a:	022b      	lsls	r3, r5, #8
    3d4c:	d520      	bpl.n	3d90 <__aeabi_dmul+0x4e4>
    3d4e:	2401      	movs	r4, #1
    3d50:	9b02      	ldr	r3, [sp, #8]
    3d52:	2500      	movs	r5, #0
    3d54:	401c      	ands	r4, r3
    3d56:	2600      	movs	r6, #0
    3d58:	2301      	movs	r3, #1
    3d5a:	e60b      	b.n	3974 <__aeabi_dmul+0xc8>
    3d5c:	465a      	mov	r2, fp
    3d5e:	4b1e      	ldr	r3, [pc, #120]	; (3dd8 <__aeabi_dmul+0x52c>)
    3d60:	1bdb      	subs	r3, r3, r7
    3d62:	40da      	lsrs	r2, r3
    3d64:	1c13      	adds	r3, r2, #0
    3d66:	2d20      	cmp	r5, #32
    3d68:	d01c      	beq.n	3da4 <__aeabi_dmul+0x4f8>
    3d6a:	4a1c      	ldr	r2, [pc, #112]	; (3ddc <__aeabi_dmul+0x530>)
    3d6c:	4694      	mov	ip, r2
    3d6e:	465a      	mov	r2, fp
    3d70:	4467      	add	r7, ip
    3d72:	40ba      	lsls	r2, r7
    3d74:	1c17      	adds	r7, r2, #0
    3d76:	433e      	orrs	r6, r7
    3d78:	1e72      	subs	r2, r6, #1
    3d7a:	4196      	sbcs	r6, r2
    3d7c:	431e      	orrs	r6, r3
    3d7e:	2307      	movs	r3, #7
    3d80:	2500      	movs	r5, #0
    3d82:	4033      	ands	r3, r6
    3d84:	d007      	beq.n	3d96 <__aeabi_dmul+0x4ea>
    3d86:	230f      	movs	r3, #15
    3d88:	2500      	movs	r5, #0
    3d8a:	4033      	ands	r3, r6
    3d8c:	2b04      	cmp	r3, #4
    3d8e:	d1d6      	bne.n	3d3e <__aeabi_dmul+0x492>
    3d90:	076b      	lsls	r3, r5, #29
    3d92:	026d      	lsls	r5, r5, #9
    3d94:	0b2d      	lsrs	r5, r5, #12
    3d96:	2401      	movs	r4, #1
    3d98:	08f6      	lsrs	r6, r6, #3
    3d9a:	431e      	orrs	r6, r3
    3d9c:	9b02      	ldr	r3, [sp, #8]
    3d9e:	401c      	ands	r4, r3
    3da0:	2300      	movs	r3, #0
    3da2:	e5e7      	b.n	3974 <__aeabi_dmul+0xc8>
    3da4:	2700      	movs	r7, #0
    3da6:	e7e6      	b.n	3d76 <__aeabi_dmul+0x4ca>
    3da8:	2580      	movs	r5, #128	; 0x80
    3daa:	465b      	mov	r3, fp
    3dac:	2401      	movs	r4, #1
    3dae:	032d      	lsls	r5, r5, #12
    3db0:	431d      	orrs	r5, r3
    3db2:	9b01      	ldr	r3, [sp, #4]
    3db4:	032d      	lsls	r5, r5, #12
    3db6:	4023      	ands	r3, r4
    3db8:	1c1c      	adds	r4, r3, #0
    3dba:	0b2d      	lsrs	r5, r5, #12
    3dbc:	4b03      	ldr	r3, [pc, #12]	; (3dcc <__aeabi_dmul+0x520>)
    3dbe:	e5d9      	b.n	3974 <__aeabi_dmul+0xc8>
    3dc0:	000003ff 	.word	0x000003ff
    3dc4:	feffffff 	.word	0xfeffffff
    3dc8:	000007fe 	.word	0x000007fe
    3dcc:	000007ff 	.word	0x000007ff
    3dd0:	fffffc02 	.word	0xfffffc02
    3dd4:	0000041e 	.word	0x0000041e
    3dd8:	fffffbe2 	.word	0xfffffbe2
    3ddc:	0000043e 	.word	0x0000043e

00003de0 <__aeabi_dsub>:
    3de0:	b5f0      	push	{r4, r5, r6, r7, lr}
    3de2:	464d      	mov	r5, r9
    3de4:	4644      	mov	r4, r8
    3de6:	465f      	mov	r7, fp
    3de8:	4656      	mov	r6, sl
    3dea:	b4f0      	push	{r4, r5, r6, r7}
    3dec:	1c0e      	adds	r6, r1, #0
    3dee:	1c11      	adds	r1, r2, #0
    3df0:	0332      	lsls	r2, r6, #12
    3df2:	0a52      	lsrs	r2, r2, #9
    3df4:	0f47      	lsrs	r7, r0, #29
    3df6:	4317      	orrs	r7, r2
    3df8:	00c5      	lsls	r5, r0, #3
    3dfa:	031a      	lsls	r2, r3, #12
    3dfc:	0058      	lsls	r0, r3, #1
    3dfe:	0fdb      	lsrs	r3, r3, #31
    3e00:	4699      	mov	r9, r3
    3e02:	0a52      	lsrs	r2, r2, #9
    3e04:	0f4b      	lsrs	r3, r1, #29
    3e06:	b083      	sub	sp, #12
    3e08:	431a      	orrs	r2, r3
    3e0a:	00cb      	lsls	r3, r1, #3
    3e0c:	9301      	str	r3, [sp, #4]
    3e0e:	4bcf      	ldr	r3, [pc, #828]	; (414c <__aeabi_dsub+0x36c>)
    3e10:	0074      	lsls	r4, r6, #1
    3e12:	0ff6      	lsrs	r6, r6, #31
    3e14:	0d64      	lsrs	r4, r4, #21
    3e16:	46b0      	mov	r8, r6
    3e18:	0d40      	lsrs	r0, r0, #21
    3e1a:	4298      	cmp	r0, r3
    3e1c:	d100      	bne.n	3e20 <__aeabi_dsub+0x40>
    3e1e:	e0e8      	b.n	3ff2 <__aeabi_dsub+0x212>
    3e20:	2301      	movs	r3, #1
    3e22:	4649      	mov	r1, r9
    3e24:	4059      	eors	r1, r3
    3e26:	1c0b      	adds	r3, r1, #0
    3e28:	429e      	cmp	r6, r3
    3e2a:	d100      	bne.n	3e2e <__aeabi_dsub+0x4e>
    3e2c:	e0b1      	b.n	3f92 <__aeabi_dsub+0x1b2>
    3e2e:	1a26      	subs	r6, r4, r0
    3e30:	2e00      	cmp	r6, #0
    3e32:	dc00      	bgt.n	3e36 <__aeabi_dsub+0x56>
    3e34:	e11c      	b.n	4070 <__aeabi_dsub+0x290>
    3e36:	2800      	cmp	r0, #0
    3e38:	d142      	bne.n	3ec0 <__aeabi_dsub+0xe0>
    3e3a:	1c13      	adds	r3, r2, #0
    3e3c:	9901      	ldr	r1, [sp, #4]
    3e3e:	430b      	orrs	r3, r1
    3e40:	d000      	beq.n	3e44 <__aeabi_dsub+0x64>
    3e42:	e0e6      	b.n	4012 <__aeabi_dsub+0x232>
    3e44:	076b      	lsls	r3, r5, #29
    3e46:	d100      	bne.n	3e4a <__aeabi_dsub+0x6a>
    3e48:	e08e      	b.n	3f68 <__aeabi_dsub+0x188>
    3e4a:	230f      	movs	r3, #15
    3e4c:	402b      	ands	r3, r5
    3e4e:	2b04      	cmp	r3, #4
    3e50:	d100      	bne.n	3e54 <__aeabi_dsub+0x74>
    3e52:	e089      	b.n	3f68 <__aeabi_dsub+0x188>
    3e54:	1d2a      	adds	r2, r5, #4
    3e56:	42aa      	cmp	r2, r5
    3e58:	41ad      	sbcs	r5, r5
    3e5a:	2380      	movs	r3, #128	; 0x80
    3e5c:	2601      	movs	r6, #1
    3e5e:	4641      	mov	r1, r8
    3e60:	426d      	negs	r5, r5
    3e62:	197f      	adds	r7, r7, r5
    3e64:	041b      	lsls	r3, r3, #16
    3e66:	403b      	ands	r3, r7
    3e68:	400e      	ands	r6, r1
    3e6a:	1c15      	adds	r5, r2, #0
    3e6c:	2b00      	cmp	r3, #0
    3e6e:	d100      	bne.n	3e72 <__aeabi_dsub+0x92>
    3e70:	e083      	b.n	3f7a <__aeabi_dsub+0x19a>
    3e72:	4bb6      	ldr	r3, [pc, #728]	; (414c <__aeabi_dsub+0x36c>)
    3e74:	3401      	adds	r4, #1
    3e76:	429c      	cmp	r4, r3
    3e78:	d100      	bne.n	3e7c <__aeabi_dsub+0x9c>
    3e7a:	e116      	b.n	40aa <__aeabi_dsub+0x2ca>
    3e7c:	1c3a      	adds	r2, r7, #0
    3e7e:	4bb4      	ldr	r3, [pc, #720]	; (4150 <__aeabi_dsub+0x370>)
    3e80:	08ed      	lsrs	r5, r5, #3
    3e82:	401a      	ands	r2, r3
    3e84:	0750      	lsls	r0, r2, #29
    3e86:	0564      	lsls	r4, r4, #21
    3e88:	0252      	lsls	r2, r2, #9
    3e8a:	4305      	orrs	r5, r0
    3e8c:	0b12      	lsrs	r2, r2, #12
    3e8e:	0d64      	lsrs	r4, r4, #21
    3e90:	2100      	movs	r1, #0
    3e92:	0312      	lsls	r2, r2, #12
    3e94:	0d0b      	lsrs	r3, r1, #20
    3e96:	051b      	lsls	r3, r3, #20
    3e98:	0564      	lsls	r4, r4, #21
    3e9a:	0b12      	lsrs	r2, r2, #12
    3e9c:	431a      	orrs	r2, r3
    3e9e:	0863      	lsrs	r3, r4, #1
    3ea0:	4cac      	ldr	r4, [pc, #688]	; (4154 <__aeabi_dsub+0x374>)
    3ea2:	07f6      	lsls	r6, r6, #31
    3ea4:	4014      	ands	r4, r2
    3ea6:	431c      	orrs	r4, r3
    3ea8:	0064      	lsls	r4, r4, #1
    3eaa:	0864      	lsrs	r4, r4, #1
    3eac:	4334      	orrs	r4, r6
    3eae:	1c28      	adds	r0, r5, #0
    3eb0:	1c21      	adds	r1, r4, #0
    3eb2:	b003      	add	sp, #12
    3eb4:	bc3c      	pop	{r2, r3, r4, r5}
    3eb6:	4690      	mov	r8, r2
    3eb8:	4699      	mov	r9, r3
    3eba:	46a2      	mov	sl, r4
    3ebc:	46ab      	mov	fp, r5
    3ebe:	bdf0      	pop	{r4, r5, r6, r7, pc}
    3ec0:	4ba2      	ldr	r3, [pc, #648]	; (414c <__aeabi_dsub+0x36c>)
    3ec2:	429c      	cmp	r4, r3
    3ec4:	d0be      	beq.n	3e44 <__aeabi_dsub+0x64>
    3ec6:	2380      	movs	r3, #128	; 0x80
    3ec8:	041b      	lsls	r3, r3, #16
    3eca:	431a      	orrs	r2, r3
    3ecc:	2e38      	cmp	r6, #56	; 0x38
    3ece:	dd00      	ble.n	3ed2 <__aeabi_dsub+0xf2>
    3ed0:	e103      	b.n	40da <__aeabi_dsub+0x2fa>
    3ed2:	2e1f      	cmp	r6, #31
    3ed4:	dd00      	ble.n	3ed8 <__aeabi_dsub+0xf8>
    3ed6:	e13f      	b.n	4158 <__aeabi_dsub+0x378>
    3ed8:	2020      	movs	r0, #32
    3eda:	1b83      	subs	r3, r0, r6
    3edc:	4699      	mov	r9, r3
    3ede:	1c13      	adds	r3, r2, #0
    3ee0:	4649      	mov	r1, r9
    3ee2:	408b      	lsls	r3, r1
    3ee4:	469c      	mov	ip, r3
    3ee6:	9b01      	ldr	r3, [sp, #4]
    3ee8:	4660      	mov	r0, ip
    3eea:	40f3      	lsrs	r3, r6
    3eec:	4303      	orrs	r3, r0
    3eee:	9801      	ldr	r0, [sp, #4]
    3ef0:	40f2      	lsrs	r2, r6
    3ef2:	4088      	lsls	r0, r1
    3ef4:	1c01      	adds	r1, r0, #0
    3ef6:	1e48      	subs	r0, r1, #1
    3ef8:	4181      	sbcs	r1, r0
    3efa:	430b      	orrs	r3, r1
    3efc:	1aeb      	subs	r3, r5, r3
    3efe:	429d      	cmp	r5, r3
    3f00:	4180      	sbcs	r0, r0
    3f02:	1c1d      	adds	r5, r3, #0
    3f04:	1aba      	subs	r2, r7, r2
    3f06:	4240      	negs	r0, r0
    3f08:	1a17      	subs	r7, r2, r0
    3f0a:	023b      	lsls	r3, r7, #8
    3f0c:	d400      	bmi.n	3f10 <__aeabi_dsub+0x130>
    3f0e:	e0a8      	b.n	4062 <__aeabi_dsub+0x282>
    3f10:	027a      	lsls	r2, r7, #9
    3f12:	0a56      	lsrs	r6, r2, #9
    3f14:	2e00      	cmp	r6, #0
    3f16:	d100      	bne.n	3f1a <__aeabi_dsub+0x13a>
    3f18:	e0ca      	b.n	40b0 <__aeabi_dsub+0x2d0>
    3f1a:	1c30      	adds	r0, r6, #0
    3f1c:	f000 fbbe 	bl	469c <__clzsi2>
    3f20:	1c03      	adds	r3, r0, #0
    3f22:	3b08      	subs	r3, #8
    3f24:	2b1f      	cmp	r3, #31
    3f26:	dd00      	ble.n	3f2a <__aeabi_dsub+0x14a>
    3f28:	e0cb      	b.n	40c2 <__aeabi_dsub+0x2e2>
    3f2a:	2228      	movs	r2, #40	; 0x28
    3f2c:	1c29      	adds	r1, r5, #0
    3f2e:	1a12      	subs	r2, r2, r0
    3f30:	40d1      	lsrs	r1, r2
    3f32:	409e      	lsls	r6, r3
    3f34:	1c0a      	adds	r2, r1, #0
    3f36:	409d      	lsls	r5, r3
    3f38:	4332      	orrs	r2, r6
    3f3a:	429c      	cmp	r4, r3
    3f3c:	dd00      	ble.n	3f40 <__aeabi_dsub+0x160>
    3f3e:	e0c8      	b.n	40d2 <__aeabi_dsub+0x2f2>
    3f40:	1b1c      	subs	r4, r3, r4
    3f42:	1c67      	adds	r7, r4, #1
    3f44:	2f1f      	cmp	r7, #31
    3f46:	dd00      	ble.n	3f4a <__aeabi_dsub+0x16a>
    3f48:	e0ed      	b.n	4126 <__aeabi_dsub+0x346>
    3f4a:	231f      	movs	r3, #31
    3f4c:	1c29      	adds	r1, r5, #0
    3f4e:	1b1c      	subs	r4, r3, r4
    3f50:	1c13      	adds	r3, r2, #0
    3f52:	40a5      	lsls	r5, r4
    3f54:	40a3      	lsls	r3, r4
    3f56:	40f9      	lsrs	r1, r7
    3f58:	1e6c      	subs	r4, r5, #1
    3f5a:	41a5      	sbcs	r5, r4
    3f5c:	40fa      	lsrs	r2, r7
    3f5e:	4319      	orrs	r1, r3
    3f60:	430d      	orrs	r5, r1
    3f62:	1c17      	adds	r7, r2, #0
    3f64:	2400      	movs	r4, #0
    3f66:	e76d      	b.n	3e44 <__aeabi_dsub+0x64>
    3f68:	2380      	movs	r3, #128	; 0x80
    3f6a:	2601      	movs	r6, #1
    3f6c:	4642      	mov	r2, r8
    3f6e:	041b      	lsls	r3, r3, #16
    3f70:	403b      	ands	r3, r7
    3f72:	4016      	ands	r6, r2
    3f74:	2b00      	cmp	r3, #0
    3f76:	d000      	beq.n	3f7a <__aeabi_dsub+0x19a>
    3f78:	e77b      	b.n	3e72 <__aeabi_dsub+0x92>
    3f7a:	4b74      	ldr	r3, [pc, #464]	; (414c <__aeabi_dsub+0x36c>)
    3f7c:	08ed      	lsrs	r5, r5, #3
    3f7e:	0778      	lsls	r0, r7, #29
    3f80:	4305      	orrs	r5, r0
    3f82:	08fa      	lsrs	r2, r7, #3
    3f84:	429c      	cmp	r4, r3
    3f86:	d03b      	beq.n	4000 <__aeabi_dsub+0x220>
    3f88:	0312      	lsls	r2, r2, #12
    3f8a:	0564      	lsls	r4, r4, #21
    3f8c:	0b12      	lsrs	r2, r2, #12
    3f8e:	0d64      	lsrs	r4, r4, #21
    3f90:	e77e      	b.n	3e90 <__aeabi_dsub+0xb0>
    3f92:	1a23      	subs	r3, r4, r0
    3f94:	469a      	mov	sl, r3
    3f96:	2b00      	cmp	r3, #0
    3f98:	dc00      	bgt.n	3f9c <__aeabi_dsub+0x1bc>
    3f9a:	e0a5      	b.n	40e8 <__aeabi_dsub+0x308>
    3f9c:	2800      	cmp	r0, #0
    3f9e:	d044      	beq.n	402a <__aeabi_dsub+0x24a>
    3fa0:	486a      	ldr	r0, [pc, #424]	; (414c <__aeabi_dsub+0x36c>)
    3fa2:	4284      	cmp	r4, r0
    3fa4:	d100      	bne.n	3fa8 <__aeabi_dsub+0x1c8>
    3fa6:	e74d      	b.n	3e44 <__aeabi_dsub+0x64>
    3fa8:	2080      	movs	r0, #128	; 0x80
    3faa:	0400      	lsls	r0, r0, #16
    3fac:	4302      	orrs	r2, r0
    3fae:	4653      	mov	r3, sl
    3fb0:	2b38      	cmp	r3, #56	; 0x38
    3fb2:	dc00      	bgt.n	3fb6 <__aeabi_dsub+0x1d6>
    3fb4:	e11c      	b.n	41f0 <__aeabi_dsub+0x410>
    3fb6:	9b01      	ldr	r3, [sp, #4]
    3fb8:	431a      	orrs	r2, r3
    3fba:	1e51      	subs	r1, r2, #1
    3fbc:	418a      	sbcs	r2, r1
    3fbe:	b2d1      	uxtb	r1, r2
    3fc0:	2200      	movs	r2, #0
    3fc2:	1949      	adds	r1, r1, r5
    3fc4:	42a9      	cmp	r1, r5
    3fc6:	4180      	sbcs	r0, r0
    3fc8:	1c0d      	adds	r5, r1, #0
    3fca:	19d2      	adds	r2, r2, r7
    3fcc:	4240      	negs	r0, r0
    3fce:	1817      	adds	r7, r2, r0
    3fd0:	023b      	lsls	r3, r7, #8
    3fd2:	d546      	bpl.n	4062 <__aeabi_dsub+0x282>
    3fd4:	4b5d      	ldr	r3, [pc, #372]	; (414c <__aeabi_dsub+0x36c>)
    3fd6:	3401      	adds	r4, #1
    3fd8:	429c      	cmp	r4, r3
    3fda:	d100      	bne.n	3fde <__aeabi_dsub+0x1fe>
    3fdc:	e169      	b.n	42b2 <__aeabi_dsub+0x4d2>
    3fde:	2001      	movs	r0, #1
    3fe0:	4a5b      	ldr	r2, [pc, #364]	; (4150 <__aeabi_dsub+0x370>)
    3fe2:	086b      	lsrs	r3, r5, #1
    3fe4:	403a      	ands	r2, r7
    3fe6:	4028      	ands	r0, r5
    3fe8:	4318      	orrs	r0, r3
    3fea:	07d5      	lsls	r5, r2, #31
    3fec:	4305      	orrs	r5, r0
    3fee:	0857      	lsrs	r7, r2, #1
    3ff0:	e728      	b.n	3e44 <__aeabi_dsub+0x64>
    3ff2:	1c13      	adds	r3, r2, #0
    3ff4:	9901      	ldr	r1, [sp, #4]
    3ff6:	430b      	orrs	r3, r1
    3ff8:	d100      	bne.n	3ffc <__aeabi_dsub+0x21c>
    3ffa:	e711      	b.n	3e20 <__aeabi_dsub+0x40>
    3ffc:	464b      	mov	r3, r9
    3ffe:	e713      	b.n	3e28 <__aeabi_dsub+0x48>
    4000:	1c2b      	adds	r3, r5, #0
    4002:	4313      	orrs	r3, r2
    4004:	d051      	beq.n	40aa <__aeabi_dsub+0x2ca>
    4006:	2380      	movs	r3, #128	; 0x80
    4008:	031b      	lsls	r3, r3, #12
    400a:	431a      	orrs	r2, r3
    400c:	0312      	lsls	r2, r2, #12
    400e:	0b12      	lsrs	r2, r2, #12
    4010:	e73e      	b.n	3e90 <__aeabi_dsub+0xb0>
    4012:	3e01      	subs	r6, #1
    4014:	2e00      	cmp	r6, #0
    4016:	d000      	beq.n	401a <__aeabi_dsub+0x23a>
    4018:	e080      	b.n	411c <__aeabi_dsub+0x33c>
    401a:	1a69      	subs	r1, r5, r1
    401c:	428d      	cmp	r5, r1
    401e:	419b      	sbcs	r3, r3
    4020:	1aba      	subs	r2, r7, r2
    4022:	425b      	negs	r3, r3
    4024:	1ad7      	subs	r7, r2, r3
    4026:	1c0d      	adds	r5, r1, #0
    4028:	e76f      	b.n	3f0a <__aeabi_dsub+0x12a>
    402a:	1c10      	adds	r0, r2, #0
    402c:	9b01      	ldr	r3, [sp, #4]
    402e:	4318      	orrs	r0, r3
    4030:	d100      	bne.n	4034 <__aeabi_dsub+0x254>
    4032:	e707      	b.n	3e44 <__aeabi_dsub+0x64>
    4034:	2301      	movs	r3, #1
    4036:	425b      	negs	r3, r3
    4038:	469c      	mov	ip, r3
    403a:	44e2      	add	sl, ip
    403c:	4653      	mov	r3, sl
    403e:	2b00      	cmp	r3, #0
    4040:	d000      	beq.n	4044 <__aeabi_dsub+0x264>
    4042:	e102      	b.n	424a <__aeabi_dsub+0x46a>
    4044:	9b01      	ldr	r3, [sp, #4]
    4046:	19d2      	adds	r2, r2, r7
    4048:	1959      	adds	r1, r3, r5
    404a:	42a9      	cmp	r1, r5
    404c:	419b      	sbcs	r3, r3
    404e:	425b      	negs	r3, r3
    4050:	18d7      	adds	r7, r2, r3
    4052:	1c0d      	adds	r5, r1, #0
    4054:	e7bc      	b.n	3fd0 <__aeabi_dsub+0x1f0>
    4056:	4663      	mov	r3, ip
    4058:	4303      	orrs	r3, r0
    405a:	d100      	bne.n	405e <__aeabi_dsub+0x27e>
    405c:	e128      	b.n	42b0 <__aeabi_dsub+0x4d0>
    405e:	1c07      	adds	r7, r0, #0
    4060:	4665      	mov	r5, ip
    4062:	076b      	lsls	r3, r5, #29
    4064:	d000      	beq.n	4068 <__aeabi_dsub+0x288>
    4066:	e6f0      	b.n	3e4a <__aeabi_dsub+0x6a>
    4068:	2601      	movs	r6, #1
    406a:	4643      	mov	r3, r8
    406c:	401e      	ands	r6, r3
    406e:	e784      	b.n	3f7a <__aeabi_dsub+0x19a>
    4070:	2e00      	cmp	r6, #0
    4072:	d000      	beq.n	4076 <__aeabi_dsub+0x296>
    4074:	e081      	b.n	417a <__aeabi_dsub+0x39a>
    4076:	1c60      	adds	r0, r4, #1
    4078:	0540      	lsls	r0, r0, #21
    407a:	0d40      	lsrs	r0, r0, #21
    407c:	2801      	cmp	r0, #1
    407e:	dc00      	bgt.n	4082 <__aeabi_dsub+0x2a2>
    4080:	e107      	b.n	4292 <__aeabi_dsub+0x4b2>
    4082:	9901      	ldr	r1, [sp, #4]
    4084:	1a68      	subs	r0, r5, r1
    4086:	4684      	mov	ip, r0
    4088:	4565      	cmp	r5, ip
    408a:	41b6      	sbcs	r6, r6
    408c:	1ab8      	subs	r0, r7, r2
    408e:	4276      	negs	r6, r6
    4090:	1b86      	subs	r6, r0, r6
    4092:	0230      	lsls	r0, r6, #8
    4094:	d400      	bmi.n	4098 <__aeabi_dsub+0x2b8>
    4096:	e0a1      	b.n	41dc <__aeabi_dsub+0x3fc>
    4098:	468c      	mov	ip, r1
    409a:	1b4d      	subs	r5, r1, r5
    409c:	45ac      	cmp	ip, r5
    409e:	4189      	sbcs	r1, r1
    40a0:	1bd2      	subs	r2, r2, r7
    40a2:	4249      	negs	r1, r1
    40a4:	1a56      	subs	r6, r2, r1
    40a6:	4698      	mov	r8, r3
    40a8:	e734      	b.n	3f14 <__aeabi_dsub+0x134>
    40aa:	2200      	movs	r2, #0
    40ac:	2500      	movs	r5, #0
    40ae:	e6ef      	b.n	3e90 <__aeabi_dsub+0xb0>
    40b0:	1c28      	adds	r0, r5, #0
    40b2:	f000 faf3 	bl	469c <__clzsi2>
    40b6:	3020      	adds	r0, #32
    40b8:	1c03      	adds	r3, r0, #0
    40ba:	3b08      	subs	r3, #8
    40bc:	2b1f      	cmp	r3, #31
    40be:	dc00      	bgt.n	40c2 <__aeabi_dsub+0x2e2>
    40c0:	e733      	b.n	3f2a <__aeabi_dsub+0x14a>
    40c2:	1c02      	adds	r2, r0, #0
    40c4:	3a28      	subs	r2, #40	; 0x28
    40c6:	4095      	lsls	r5, r2
    40c8:	1c2a      	adds	r2, r5, #0
    40ca:	2500      	movs	r5, #0
    40cc:	429c      	cmp	r4, r3
    40ce:	dc00      	bgt.n	40d2 <__aeabi_dsub+0x2f2>
    40d0:	e736      	b.n	3f40 <__aeabi_dsub+0x160>
    40d2:	4f1f      	ldr	r7, [pc, #124]	; (4150 <__aeabi_dsub+0x370>)
    40d4:	1ae4      	subs	r4, r4, r3
    40d6:	4017      	ands	r7, r2
    40d8:	e6b4      	b.n	3e44 <__aeabi_dsub+0x64>
    40da:	9b01      	ldr	r3, [sp, #4]
    40dc:	431a      	orrs	r2, r3
    40de:	1e51      	subs	r1, r2, #1
    40e0:	418a      	sbcs	r2, r1
    40e2:	b2d3      	uxtb	r3, r2
    40e4:	2200      	movs	r2, #0
    40e6:	e709      	b.n	3efc <__aeabi_dsub+0x11c>
    40e8:	2b00      	cmp	r3, #0
    40ea:	d000      	beq.n	40ee <__aeabi_dsub+0x30e>
    40ec:	e101      	b.n	42f2 <__aeabi_dsub+0x512>
    40ee:	1c60      	adds	r0, r4, #1
    40f0:	0543      	lsls	r3, r0, #21
    40f2:	0d5b      	lsrs	r3, r3, #21
    40f4:	2b01      	cmp	r3, #1
    40f6:	dc00      	bgt.n	40fa <__aeabi_dsub+0x31a>
    40f8:	e0b0      	b.n	425c <__aeabi_dsub+0x47c>
    40fa:	4b14      	ldr	r3, [pc, #80]	; (414c <__aeabi_dsub+0x36c>)
    40fc:	4298      	cmp	r0, r3
    40fe:	d100      	bne.n	4102 <__aeabi_dsub+0x322>
    4100:	e11e      	b.n	4340 <__aeabi_dsub+0x560>
    4102:	9b01      	ldr	r3, [sp, #4]
    4104:	19d2      	adds	r2, r2, r7
    4106:	1959      	adds	r1, r3, r5
    4108:	42a9      	cmp	r1, r5
    410a:	419b      	sbcs	r3, r3
    410c:	425b      	negs	r3, r3
    410e:	18d2      	adds	r2, r2, r3
    4110:	0849      	lsrs	r1, r1, #1
    4112:	07d5      	lsls	r5, r2, #31
    4114:	430d      	orrs	r5, r1
    4116:	0857      	lsrs	r7, r2, #1
    4118:	1c04      	adds	r4, r0, #0
    411a:	e693      	b.n	3e44 <__aeabi_dsub+0x64>
    411c:	4b0b      	ldr	r3, [pc, #44]	; (414c <__aeabi_dsub+0x36c>)
    411e:	429c      	cmp	r4, r3
    4120:	d000      	beq.n	4124 <__aeabi_dsub+0x344>
    4122:	e6d3      	b.n	3ecc <__aeabi_dsub+0xec>
    4124:	e68e      	b.n	3e44 <__aeabi_dsub+0x64>
    4126:	1c21      	adds	r1, r4, #0
    4128:	1c13      	adds	r3, r2, #0
    412a:	391f      	subs	r1, #31
    412c:	40cb      	lsrs	r3, r1
    412e:	1c19      	adds	r1, r3, #0
    4130:	2f20      	cmp	r7, #32
    4132:	d100      	bne.n	4136 <__aeabi_dsub+0x356>
    4134:	e08e      	b.n	4254 <__aeabi_dsub+0x474>
    4136:	233f      	movs	r3, #63	; 0x3f
    4138:	1b1c      	subs	r4, r3, r4
    413a:	40a2      	lsls	r2, r4
    413c:	4315      	orrs	r5, r2
    413e:	1e6a      	subs	r2, r5, #1
    4140:	4195      	sbcs	r5, r2
    4142:	2700      	movs	r7, #0
    4144:	430d      	orrs	r5, r1
    4146:	2400      	movs	r4, #0
    4148:	e78b      	b.n	4062 <__aeabi_dsub+0x282>
    414a:	46c0      	nop			; (mov r8, r8)
    414c:	000007ff 	.word	0x000007ff
    4150:	ff7fffff 	.word	0xff7fffff
    4154:	800fffff 	.word	0x800fffff
    4158:	1c33      	adds	r3, r6, #0
    415a:	1c10      	adds	r0, r2, #0
    415c:	3b20      	subs	r3, #32
    415e:	40d8      	lsrs	r0, r3
    4160:	2e20      	cmp	r6, #32
    4162:	d079      	beq.n	4258 <__aeabi_dsub+0x478>
    4164:	2340      	movs	r3, #64	; 0x40
    4166:	1b9b      	subs	r3, r3, r6
    4168:	409a      	lsls	r2, r3
    416a:	1c13      	adds	r3, r2, #0
    416c:	9a01      	ldr	r2, [sp, #4]
    416e:	4313      	orrs	r3, r2
    4170:	1e59      	subs	r1, r3, #1
    4172:	418b      	sbcs	r3, r1
    4174:	2200      	movs	r2, #0
    4176:	4303      	orrs	r3, r0
    4178:	e6c0      	b.n	3efc <__aeabi_dsub+0x11c>
    417a:	2c00      	cmp	r4, #0
    417c:	d053      	beq.n	4226 <__aeabi_dsub+0x446>
    417e:	4cc7      	ldr	r4, [pc, #796]	; (449c <__aeabi_dsub+0x6bc>)
    4180:	42a0      	cmp	r0, r4
    4182:	d100      	bne.n	4186 <__aeabi_dsub+0x3a6>
    4184:	e0b0      	b.n	42e8 <__aeabi_dsub+0x508>
    4186:	2480      	movs	r4, #128	; 0x80
    4188:	4271      	negs	r1, r6
    418a:	4689      	mov	r9, r1
    418c:	0424      	lsls	r4, r4, #16
    418e:	4327      	orrs	r7, r4
    4190:	4649      	mov	r1, r9
    4192:	2938      	cmp	r1, #56	; 0x38
    4194:	dd00      	ble.n	4198 <__aeabi_dsub+0x3b8>
    4196:	e0cd      	b.n	4334 <__aeabi_dsub+0x554>
    4198:	291f      	cmp	r1, #31
    419a:	dd00      	ble.n	419e <__aeabi_dsub+0x3be>
    419c:	e159      	b.n	4452 <__aeabi_dsub+0x672>
    419e:	2420      	movs	r4, #32
    41a0:	1c3e      	adds	r6, r7, #0
    41a2:	1a61      	subs	r1, r4, r1
    41a4:	408e      	lsls	r6, r1
    41a6:	468a      	mov	sl, r1
    41a8:	46b0      	mov	r8, r6
    41aa:	4649      	mov	r1, r9
    41ac:	1c2e      	adds	r6, r5, #0
    41ae:	40ce      	lsrs	r6, r1
    41b0:	4651      	mov	r1, sl
    41b2:	46b4      	mov	ip, r6
    41b4:	408d      	lsls	r5, r1
    41b6:	4664      	mov	r4, ip
    41b8:	4646      	mov	r6, r8
    41ba:	4649      	mov	r1, r9
    41bc:	4326      	orrs	r6, r4
    41be:	1e6c      	subs	r4, r5, #1
    41c0:	41a5      	sbcs	r5, r4
    41c2:	40cf      	lsrs	r7, r1
    41c4:	4335      	orrs	r5, r6
    41c6:	9901      	ldr	r1, [sp, #4]
    41c8:	1bd7      	subs	r7, r2, r7
    41ca:	468c      	mov	ip, r1
    41cc:	1b4d      	subs	r5, r1, r5
    41ce:	45ac      	cmp	ip, r5
    41d0:	4192      	sbcs	r2, r2
    41d2:	4252      	negs	r2, r2
    41d4:	1abf      	subs	r7, r7, r2
    41d6:	1c04      	adds	r4, r0, #0
    41d8:	4698      	mov	r8, r3
    41da:	e696      	b.n	3f0a <__aeabi_dsub+0x12a>
    41dc:	4663      	mov	r3, ip
    41de:	4665      	mov	r5, ip
    41e0:	4333      	orrs	r3, r6
    41e2:	d000      	beq.n	41e6 <__aeabi_dsub+0x406>
    41e4:	e696      	b.n	3f14 <__aeabi_dsub+0x134>
    41e6:	2600      	movs	r6, #0
    41e8:	2700      	movs	r7, #0
    41ea:	2400      	movs	r4, #0
    41ec:	2500      	movs	r5, #0
    41ee:	e6c4      	b.n	3f7a <__aeabi_dsub+0x19a>
    41f0:	2b1f      	cmp	r3, #31
    41f2:	dc61      	bgt.n	42b8 <__aeabi_dsub+0x4d8>
    41f4:	2020      	movs	r0, #32
    41f6:	1ac3      	subs	r3, r0, r3
    41f8:	469b      	mov	fp, r3
    41fa:	1c13      	adds	r3, r2, #0
    41fc:	4659      	mov	r1, fp
    41fe:	408b      	lsls	r3, r1
    4200:	4651      	mov	r1, sl
    4202:	4699      	mov	r9, r3
    4204:	9b01      	ldr	r3, [sp, #4]
    4206:	40cb      	lsrs	r3, r1
    4208:	469c      	mov	ip, r3
    420a:	464b      	mov	r3, r9
    420c:	4660      	mov	r0, ip
    420e:	4303      	orrs	r3, r0
    4210:	469c      	mov	ip, r3
    4212:	465b      	mov	r3, fp
    4214:	9901      	ldr	r1, [sp, #4]
    4216:	4099      	lsls	r1, r3
    4218:	4663      	mov	r3, ip
    421a:	1e48      	subs	r0, r1, #1
    421c:	4181      	sbcs	r1, r0
    421e:	4319      	orrs	r1, r3
    4220:	4653      	mov	r3, sl
    4222:	40da      	lsrs	r2, r3
    4224:	e6cd      	b.n	3fc2 <__aeabi_dsub+0x1e2>
    4226:	1c3c      	adds	r4, r7, #0
    4228:	432c      	orrs	r4, r5
    422a:	d05d      	beq.n	42e8 <__aeabi_dsub+0x508>
    422c:	43f1      	mvns	r1, r6
    422e:	4689      	mov	r9, r1
    4230:	2900      	cmp	r1, #0
    4232:	d155      	bne.n	42e0 <__aeabi_dsub+0x500>
    4234:	9901      	ldr	r1, [sp, #4]
    4236:	1bd2      	subs	r2, r2, r7
    4238:	468c      	mov	ip, r1
    423a:	1b4d      	subs	r5, r1, r5
    423c:	45ac      	cmp	ip, r5
    423e:	4189      	sbcs	r1, r1
    4240:	4249      	negs	r1, r1
    4242:	1a57      	subs	r7, r2, r1
    4244:	1c04      	adds	r4, r0, #0
    4246:	4698      	mov	r8, r3
    4248:	e65f      	b.n	3f0a <__aeabi_dsub+0x12a>
    424a:	4894      	ldr	r0, [pc, #592]	; (449c <__aeabi_dsub+0x6bc>)
    424c:	4284      	cmp	r4, r0
    424e:	d000      	beq.n	4252 <__aeabi_dsub+0x472>
    4250:	e6ad      	b.n	3fae <__aeabi_dsub+0x1ce>
    4252:	e5f7      	b.n	3e44 <__aeabi_dsub+0x64>
    4254:	2200      	movs	r2, #0
    4256:	e771      	b.n	413c <__aeabi_dsub+0x35c>
    4258:	2300      	movs	r3, #0
    425a:	e787      	b.n	416c <__aeabi_dsub+0x38c>
    425c:	1c3b      	adds	r3, r7, #0
    425e:	432b      	orrs	r3, r5
    4260:	2c00      	cmp	r4, #0
    4262:	d000      	beq.n	4266 <__aeabi_dsub+0x486>
    4264:	e0da      	b.n	441c <__aeabi_dsub+0x63c>
    4266:	2b00      	cmp	r3, #0
    4268:	d100      	bne.n	426c <__aeabi_dsub+0x48c>
    426a:	e113      	b.n	4494 <__aeabi_dsub+0x6b4>
    426c:	1c13      	adds	r3, r2, #0
    426e:	9901      	ldr	r1, [sp, #4]
    4270:	430b      	orrs	r3, r1
    4272:	d100      	bne.n	4276 <__aeabi_dsub+0x496>
    4274:	e5e6      	b.n	3e44 <__aeabi_dsub+0x64>
    4276:	1949      	adds	r1, r1, r5
    4278:	42a9      	cmp	r1, r5
    427a:	419b      	sbcs	r3, r3
    427c:	19d2      	adds	r2, r2, r7
    427e:	425b      	negs	r3, r3
    4280:	18d7      	adds	r7, r2, r3
    4282:	023b      	lsls	r3, r7, #8
    4284:	d400      	bmi.n	4288 <__aeabi_dsub+0x4a8>
    4286:	e121      	b.n	44cc <__aeabi_dsub+0x6ec>
    4288:	4b85      	ldr	r3, [pc, #532]	; (44a0 <__aeabi_dsub+0x6c0>)
    428a:	1c0d      	adds	r5, r1, #0
    428c:	401f      	ands	r7, r3
    428e:	1c04      	adds	r4, r0, #0
    4290:	e5d8      	b.n	3e44 <__aeabi_dsub+0x64>
    4292:	1c38      	adds	r0, r7, #0
    4294:	4328      	orrs	r0, r5
    4296:	2c00      	cmp	r4, #0
    4298:	d140      	bne.n	431c <__aeabi_dsub+0x53c>
    429a:	2800      	cmp	r0, #0
    429c:	d000      	beq.n	42a0 <__aeabi_dsub+0x4c0>
    429e:	e083      	b.n	43a8 <__aeabi_dsub+0x5c8>
    42a0:	1c10      	adds	r0, r2, #0
    42a2:	9901      	ldr	r1, [sp, #4]
    42a4:	4308      	orrs	r0, r1
    42a6:	d003      	beq.n	42b0 <__aeabi_dsub+0x4d0>
    42a8:	1c17      	adds	r7, r2, #0
    42aa:	1c0d      	adds	r5, r1, #0
    42ac:	4698      	mov	r8, r3
    42ae:	e5c9      	b.n	3e44 <__aeabi_dsub+0x64>
    42b0:	2600      	movs	r6, #0
    42b2:	2700      	movs	r7, #0
    42b4:	2500      	movs	r5, #0
    42b6:	e660      	b.n	3f7a <__aeabi_dsub+0x19a>
    42b8:	4650      	mov	r0, sl
    42ba:	1c13      	adds	r3, r2, #0
    42bc:	3820      	subs	r0, #32
    42be:	40c3      	lsrs	r3, r0
    42c0:	1c18      	adds	r0, r3, #0
    42c2:	4653      	mov	r3, sl
    42c4:	2b20      	cmp	r3, #32
    42c6:	d100      	bne.n	42ca <__aeabi_dsub+0x4ea>
    42c8:	e0c1      	b.n	444e <__aeabi_dsub+0x66e>
    42ca:	2340      	movs	r3, #64	; 0x40
    42cc:	4651      	mov	r1, sl
    42ce:	1a5b      	subs	r3, r3, r1
    42d0:	409a      	lsls	r2, r3
    42d2:	9901      	ldr	r1, [sp, #4]
    42d4:	4311      	orrs	r1, r2
    42d6:	1e4a      	subs	r2, r1, #1
    42d8:	4191      	sbcs	r1, r2
    42da:	2200      	movs	r2, #0
    42dc:	4301      	orrs	r1, r0
    42de:	e670      	b.n	3fc2 <__aeabi_dsub+0x1e2>
    42e0:	4c6e      	ldr	r4, [pc, #440]	; (449c <__aeabi_dsub+0x6bc>)
    42e2:	42a0      	cmp	r0, r4
    42e4:	d000      	beq.n	42e8 <__aeabi_dsub+0x508>
    42e6:	e753      	b.n	4190 <__aeabi_dsub+0x3b0>
    42e8:	1c17      	adds	r7, r2, #0
    42ea:	9d01      	ldr	r5, [sp, #4]
    42ec:	1c04      	adds	r4, r0, #0
    42ee:	4698      	mov	r8, r3
    42f0:	e5a8      	b.n	3e44 <__aeabi_dsub+0x64>
    42f2:	2c00      	cmp	r4, #0
    42f4:	d128      	bne.n	4348 <__aeabi_dsub+0x568>
    42f6:	1c3c      	adds	r4, r7, #0
    42f8:	432c      	orrs	r4, r5
    42fa:	d100      	bne.n	42fe <__aeabi_dsub+0x51e>
    42fc:	e08a      	b.n	4414 <__aeabi_dsub+0x634>
    42fe:	43db      	mvns	r3, r3
    4300:	469a      	mov	sl, r3
    4302:	2b00      	cmp	r3, #0
    4304:	d000      	beq.n	4308 <__aeabi_dsub+0x528>
    4306:	e082      	b.n	440e <__aeabi_dsub+0x62e>
    4308:	9b01      	ldr	r3, [sp, #4]
    430a:	19d2      	adds	r2, r2, r7
    430c:	469c      	mov	ip, r3
    430e:	4465      	add	r5, ip
    4310:	429d      	cmp	r5, r3
    4312:	4189      	sbcs	r1, r1
    4314:	4249      	negs	r1, r1
    4316:	1857      	adds	r7, r2, r1
    4318:	1c04      	adds	r4, r0, #0
    431a:	e659      	b.n	3fd0 <__aeabi_dsub+0x1f0>
    431c:	2800      	cmp	r0, #0
    431e:	d15b      	bne.n	43d8 <__aeabi_dsub+0x5f8>
    4320:	1c10      	adds	r0, r2, #0
    4322:	9901      	ldr	r1, [sp, #4]
    4324:	4308      	orrs	r0, r1
    4326:	d100      	bne.n	432a <__aeabi_dsub+0x54a>
    4328:	e0a4      	b.n	4474 <__aeabi_dsub+0x694>
    432a:	1c17      	adds	r7, r2, #0
    432c:	1c0d      	adds	r5, r1, #0
    432e:	4698      	mov	r8, r3
    4330:	4c5a      	ldr	r4, [pc, #360]	; (449c <__aeabi_dsub+0x6bc>)
    4332:	e587      	b.n	3e44 <__aeabi_dsub+0x64>
    4334:	433d      	orrs	r5, r7
    4336:	1e6f      	subs	r7, r5, #1
    4338:	41bd      	sbcs	r5, r7
    433a:	2700      	movs	r7, #0
    433c:	b2ed      	uxtb	r5, r5
    433e:	e742      	b.n	41c6 <__aeabi_dsub+0x3e6>
    4340:	1c04      	adds	r4, r0, #0
    4342:	2700      	movs	r7, #0
    4344:	2500      	movs	r5, #0
    4346:	e618      	b.n	3f7a <__aeabi_dsub+0x19a>
    4348:	4c54      	ldr	r4, [pc, #336]	; (449c <__aeabi_dsub+0x6bc>)
    434a:	42a0      	cmp	r0, r4
    434c:	d062      	beq.n	4414 <__aeabi_dsub+0x634>
    434e:	4653      	mov	r3, sl
    4350:	2480      	movs	r4, #128	; 0x80
    4352:	425b      	negs	r3, r3
    4354:	469a      	mov	sl, r3
    4356:	0424      	lsls	r4, r4, #16
    4358:	4327      	orrs	r7, r4
    435a:	4653      	mov	r3, sl
    435c:	2b38      	cmp	r3, #56	; 0x38
    435e:	dd00      	ble.n	4362 <__aeabi_dsub+0x582>
    4360:	e08e      	b.n	4480 <__aeabi_dsub+0x6a0>
    4362:	2b1f      	cmp	r3, #31
    4364:	dd00      	ble.n	4368 <__aeabi_dsub+0x588>
    4366:	e09d      	b.n	44a4 <__aeabi_dsub+0x6c4>
    4368:	2420      	movs	r4, #32
    436a:	1ae3      	subs	r3, r4, r3
    436c:	469b      	mov	fp, r3
    436e:	1c3b      	adds	r3, r7, #0
    4370:	4659      	mov	r1, fp
    4372:	408b      	lsls	r3, r1
    4374:	4651      	mov	r1, sl
    4376:	4699      	mov	r9, r3
    4378:	1c2b      	adds	r3, r5, #0
    437a:	40cb      	lsrs	r3, r1
    437c:	469c      	mov	ip, r3
    437e:	464b      	mov	r3, r9
    4380:	4664      	mov	r4, ip
    4382:	4323      	orrs	r3, r4
    4384:	469c      	mov	ip, r3
    4386:	465b      	mov	r3, fp
    4388:	409d      	lsls	r5, r3
    438a:	4663      	mov	r3, ip
    438c:	1e6c      	subs	r4, r5, #1
    438e:	41a5      	sbcs	r5, r4
    4390:	40cf      	lsrs	r7, r1
    4392:	431d      	orrs	r5, r3
    4394:	9b01      	ldr	r3, [sp, #4]
    4396:	18bf      	adds	r7, r7, r2
    4398:	469c      	mov	ip, r3
    439a:	4465      	add	r5, ip
    439c:	429d      	cmp	r5, r3
    439e:	4192      	sbcs	r2, r2
    43a0:	4252      	negs	r2, r2
    43a2:	18bf      	adds	r7, r7, r2
    43a4:	1c04      	adds	r4, r0, #0
    43a6:	e613      	b.n	3fd0 <__aeabi_dsub+0x1f0>
    43a8:	1c10      	adds	r0, r2, #0
    43aa:	9901      	ldr	r1, [sp, #4]
    43ac:	4308      	orrs	r0, r1
    43ae:	d100      	bne.n	43b2 <__aeabi_dsub+0x5d2>
    43b0:	e548      	b.n	3e44 <__aeabi_dsub+0x64>
    43b2:	1a68      	subs	r0, r5, r1
    43b4:	4684      	mov	ip, r0
    43b6:	4285      	cmp	r5, r0
    43b8:	4180      	sbcs	r0, r0
    43ba:	1abe      	subs	r6, r7, r2
    43bc:	4240      	negs	r0, r0
    43be:	1a30      	subs	r0, r6, r0
    43c0:	0206      	lsls	r6, r0, #8
    43c2:	d400      	bmi.n	43c6 <__aeabi_dsub+0x5e6>
    43c4:	e647      	b.n	4056 <__aeabi_dsub+0x276>
    43c6:	468c      	mov	ip, r1
    43c8:	1b4d      	subs	r5, r1, r5
    43ca:	45ac      	cmp	ip, r5
    43cc:	4189      	sbcs	r1, r1
    43ce:	1bd2      	subs	r2, r2, r7
    43d0:	4249      	negs	r1, r1
    43d2:	1a57      	subs	r7, r2, r1
    43d4:	4698      	mov	r8, r3
    43d6:	e535      	b.n	3e44 <__aeabi_dsub+0x64>
    43d8:	1c10      	adds	r0, r2, #0
    43da:	9901      	ldr	r1, [sp, #4]
    43dc:	4308      	orrs	r0, r1
    43de:	d034      	beq.n	444a <__aeabi_dsub+0x66a>
    43e0:	2480      	movs	r4, #128	; 0x80
    43e2:	0778      	lsls	r0, r7, #29
    43e4:	08ed      	lsrs	r5, r5, #3
    43e6:	08ff      	lsrs	r7, r7, #3
    43e8:	0324      	lsls	r4, r4, #12
    43ea:	4328      	orrs	r0, r5
    43ec:	4227      	tst	r7, r4
    43ee:	d008      	beq.n	4402 <__aeabi_dsub+0x622>
    43f0:	08d6      	lsrs	r6, r2, #3
    43f2:	4226      	tst	r6, r4
    43f4:	d105      	bne.n	4402 <__aeabi_dsub+0x622>
    43f6:	08c9      	lsrs	r1, r1, #3
    43f8:	0752      	lsls	r2, r2, #29
    43fa:	430a      	orrs	r2, r1
    43fc:	1c10      	adds	r0, r2, #0
    43fe:	1c37      	adds	r7, r6, #0
    4400:	4698      	mov	r8, r3
    4402:	00ff      	lsls	r7, r7, #3
    4404:	0f42      	lsrs	r2, r0, #29
    4406:	4317      	orrs	r7, r2
    4408:	00c5      	lsls	r5, r0, #3
    440a:	4c24      	ldr	r4, [pc, #144]	; (449c <__aeabi_dsub+0x6bc>)
    440c:	e51a      	b.n	3e44 <__aeabi_dsub+0x64>
    440e:	4c23      	ldr	r4, [pc, #140]	; (449c <__aeabi_dsub+0x6bc>)
    4410:	42a0      	cmp	r0, r4
    4412:	d1a2      	bne.n	435a <__aeabi_dsub+0x57a>
    4414:	1c17      	adds	r7, r2, #0
    4416:	9d01      	ldr	r5, [sp, #4]
    4418:	1c04      	adds	r4, r0, #0
    441a:	e513      	b.n	3e44 <__aeabi_dsub+0x64>
    441c:	2b00      	cmp	r3, #0
    441e:	d035      	beq.n	448c <__aeabi_dsub+0x6ac>
    4420:	1c13      	adds	r3, r2, #0
    4422:	9901      	ldr	r1, [sp, #4]
    4424:	430b      	orrs	r3, r1
    4426:	d010      	beq.n	444a <__aeabi_dsub+0x66a>
    4428:	2480      	movs	r4, #128	; 0x80
    442a:	0778      	lsls	r0, r7, #29
    442c:	08ed      	lsrs	r5, r5, #3
    442e:	08ff      	lsrs	r7, r7, #3
    4430:	0324      	lsls	r4, r4, #12
    4432:	4328      	orrs	r0, r5
    4434:	4227      	tst	r7, r4
    4436:	d0e4      	beq.n	4402 <__aeabi_dsub+0x622>
    4438:	08d3      	lsrs	r3, r2, #3
    443a:	4223      	tst	r3, r4
    443c:	d1e1      	bne.n	4402 <__aeabi_dsub+0x622>
    443e:	08c9      	lsrs	r1, r1, #3
    4440:	0752      	lsls	r2, r2, #29
    4442:	430a      	orrs	r2, r1
    4444:	1c10      	adds	r0, r2, #0
    4446:	1c1f      	adds	r7, r3, #0
    4448:	e7db      	b.n	4402 <__aeabi_dsub+0x622>
    444a:	4c14      	ldr	r4, [pc, #80]	; (449c <__aeabi_dsub+0x6bc>)
    444c:	e4fa      	b.n	3e44 <__aeabi_dsub+0x64>
    444e:	2200      	movs	r2, #0
    4450:	e73f      	b.n	42d2 <__aeabi_dsub+0x4f2>
    4452:	464c      	mov	r4, r9
    4454:	1c3e      	adds	r6, r7, #0
    4456:	3c20      	subs	r4, #32
    4458:	40e6      	lsrs	r6, r4
    445a:	4649      	mov	r1, r9
    445c:	1c34      	adds	r4, r6, #0
    445e:	2920      	cmp	r1, #32
    4460:	d032      	beq.n	44c8 <__aeabi_dsub+0x6e8>
    4462:	2640      	movs	r6, #64	; 0x40
    4464:	1a76      	subs	r6, r6, r1
    4466:	40b7      	lsls	r7, r6
    4468:	433d      	orrs	r5, r7
    446a:	1e6f      	subs	r7, r5, #1
    446c:	41bd      	sbcs	r5, r7
    446e:	2700      	movs	r7, #0
    4470:	4325      	orrs	r5, r4
    4472:	e6a8      	b.n	41c6 <__aeabi_dsub+0x3e6>
    4474:	2780      	movs	r7, #128	; 0x80
    4476:	2600      	movs	r6, #0
    4478:	03ff      	lsls	r7, r7, #15
    447a:	4c08      	ldr	r4, [pc, #32]	; (449c <__aeabi_dsub+0x6bc>)
    447c:	2500      	movs	r5, #0
    447e:	e57c      	b.n	3f7a <__aeabi_dsub+0x19a>
    4480:	433d      	orrs	r5, r7
    4482:	1e6f      	subs	r7, r5, #1
    4484:	41bd      	sbcs	r5, r7
    4486:	2700      	movs	r7, #0
    4488:	b2ed      	uxtb	r5, r5
    448a:	e783      	b.n	4394 <__aeabi_dsub+0x5b4>
    448c:	1c17      	adds	r7, r2, #0
    448e:	9d01      	ldr	r5, [sp, #4]
    4490:	4c02      	ldr	r4, [pc, #8]	; (449c <__aeabi_dsub+0x6bc>)
    4492:	e4d7      	b.n	3e44 <__aeabi_dsub+0x64>
    4494:	1c17      	adds	r7, r2, #0
    4496:	9d01      	ldr	r5, [sp, #4]
    4498:	e4d4      	b.n	3e44 <__aeabi_dsub+0x64>
    449a:	46c0      	nop			; (mov r8, r8)
    449c:	000007ff 	.word	0x000007ff
    44a0:	ff7fffff 	.word	0xff7fffff
    44a4:	4654      	mov	r4, sl
    44a6:	1c3b      	adds	r3, r7, #0
    44a8:	3c20      	subs	r4, #32
    44aa:	40e3      	lsrs	r3, r4
    44ac:	1c1c      	adds	r4, r3, #0
    44ae:	4653      	mov	r3, sl
    44b0:	2b20      	cmp	r3, #32
    44b2:	d00d      	beq.n	44d0 <__aeabi_dsub+0x6f0>
    44b4:	2340      	movs	r3, #64	; 0x40
    44b6:	4651      	mov	r1, sl
    44b8:	1a5b      	subs	r3, r3, r1
    44ba:	409f      	lsls	r7, r3
    44bc:	433d      	orrs	r5, r7
    44be:	1e6f      	subs	r7, r5, #1
    44c0:	41bd      	sbcs	r5, r7
    44c2:	2700      	movs	r7, #0
    44c4:	4325      	orrs	r5, r4
    44c6:	e765      	b.n	4394 <__aeabi_dsub+0x5b4>
    44c8:	2700      	movs	r7, #0
    44ca:	e7cd      	b.n	4468 <__aeabi_dsub+0x688>
    44cc:	1c0d      	adds	r5, r1, #0
    44ce:	e5c8      	b.n	4062 <__aeabi_dsub+0x282>
    44d0:	2700      	movs	r7, #0
    44d2:	e7f3      	b.n	44bc <__aeabi_dsub+0x6dc>

000044d4 <__aeabi_f2d>:
    44d4:	0042      	lsls	r2, r0, #1
    44d6:	0e12      	lsrs	r2, r2, #24
    44d8:	1c51      	adds	r1, r2, #1
    44da:	b538      	push	{r3, r4, r5, lr}
    44dc:	b2c9      	uxtb	r1, r1
    44de:	0243      	lsls	r3, r0, #9
    44e0:	0a5d      	lsrs	r5, r3, #9
    44e2:	0fc4      	lsrs	r4, r0, #31
    44e4:	2901      	cmp	r1, #1
    44e6:	dd15      	ble.n	4514 <__aeabi_f2d+0x40>
    44e8:	21e0      	movs	r1, #224	; 0xe0
    44ea:	0089      	lsls	r1, r1, #2
    44ec:	468c      	mov	ip, r1
    44ee:	076d      	lsls	r5, r5, #29
    44f0:	0b1b      	lsrs	r3, r3, #12
    44f2:	4462      	add	r2, ip
    44f4:	2100      	movs	r1, #0
    44f6:	1c28      	adds	r0, r5, #0
    44f8:	0d0d      	lsrs	r5, r1, #20
    44fa:	052d      	lsls	r5, r5, #20
    44fc:	432b      	orrs	r3, r5
    44fe:	4d1c      	ldr	r5, [pc, #112]	; (4570 <__aeabi_f2d+0x9c>)
    4500:	0552      	lsls	r2, r2, #21
    4502:	402b      	ands	r3, r5
    4504:	0852      	lsrs	r2, r2, #1
    4506:	4313      	orrs	r3, r2
    4508:	005b      	lsls	r3, r3, #1
    450a:	07e4      	lsls	r4, r4, #31
    450c:	085b      	lsrs	r3, r3, #1
    450e:	4323      	orrs	r3, r4
    4510:	1c19      	adds	r1, r3, #0
    4512:	bd38      	pop	{r3, r4, r5, pc}
    4514:	2a00      	cmp	r2, #0
    4516:	d115      	bne.n	4544 <__aeabi_f2d+0x70>
    4518:	2d00      	cmp	r5, #0
    451a:	d01f      	beq.n	455c <__aeabi_f2d+0x88>
    451c:	1c28      	adds	r0, r5, #0
    451e:	f000 f8bd 	bl	469c <__clzsi2>
    4522:	280a      	cmp	r0, #10
    4524:	dc1d      	bgt.n	4562 <__aeabi_f2d+0x8e>
    4526:	230b      	movs	r3, #11
    4528:	1c2a      	adds	r2, r5, #0
    452a:	1a1b      	subs	r3, r3, r0
    452c:	40da      	lsrs	r2, r3
    452e:	1c13      	adds	r3, r2, #0
    4530:	1c02      	adds	r2, r0, #0
    4532:	3215      	adds	r2, #21
    4534:	4095      	lsls	r5, r2
    4536:	4a0f      	ldr	r2, [pc, #60]	; (4574 <__aeabi_f2d+0xa0>)
    4538:	031b      	lsls	r3, r3, #12
    453a:	1a12      	subs	r2, r2, r0
    453c:	0552      	lsls	r2, r2, #21
    453e:	0b1b      	lsrs	r3, r3, #12
    4540:	0d52      	lsrs	r2, r2, #21
    4542:	e7d7      	b.n	44f4 <__aeabi_f2d+0x20>
    4544:	2d00      	cmp	r5, #0
    4546:	d006      	beq.n	4556 <__aeabi_f2d+0x82>
    4548:	2280      	movs	r2, #128	; 0x80
    454a:	0b1b      	lsrs	r3, r3, #12
    454c:	0312      	lsls	r2, r2, #12
    454e:	4313      	orrs	r3, r2
    4550:	076d      	lsls	r5, r5, #29
    4552:	4a09      	ldr	r2, [pc, #36]	; (4578 <__aeabi_f2d+0xa4>)
    4554:	e7ce      	b.n	44f4 <__aeabi_f2d+0x20>
    4556:	4a08      	ldr	r2, [pc, #32]	; (4578 <__aeabi_f2d+0xa4>)
    4558:	2300      	movs	r3, #0
    455a:	e7cb      	b.n	44f4 <__aeabi_f2d+0x20>
    455c:	2200      	movs	r2, #0
    455e:	2300      	movs	r3, #0
    4560:	e7c8      	b.n	44f4 <__aeabi_f2d+0x20>
    4562:	1c03      	adds	r3, r0, #0
    4564:	3b0b      	subs	r3, #11
    4566:	409d      	lsls	r5, r3
    4568:	1c2b      	adds	r3, r5, #0
    456a:	2500      	movs	r5, #0
    456c:	e7e3      	b.n	4536 <__aeabi_f2d+0x62>
    456e:	46c0      	nop			; (mov r8, r8)
    4570:	800fffff 	.word	0x800fffff
    4574:	00000389 	.word	0x00000389
    4578:	000007ff 	.word	0x000007ff

0000457c <__aeabi_d2f>:
    457c:	b570      	push	{r4, r5, r6, lr}
    457e:	030b      	lsls	r3, r1, #12
    4580:	004d      	lsls	r5, r1, #1
    4582:	0f44      	lsrs	r4, r0, #29
    4584:	0d6d      	lsrs	r5, r5, #21
    4586:	0a5b      	lsrs	r3, r3, #9
    4588:	4323      	orrs	r3, r4
    458a:	1c6c      	adds	r4, r5, #1
    458c:	0564      	lsls	r4, r4, #21
    458e:	0fc9      	lsrs	r1, r1, #31
    4590:	00c2      	lsls	r2, r0, #3
    4592:	0d64      	lsrs	r4, r4, #21
    4594:	2c01      	cmp	r4, #1
    4596:	dd2a      	ble.n	45ee <__aeabi_d2f+0x72>
    4598:	4c3b      	ldr	r4, [pc, #236]	; (4688 <__aeabi_d2f+0x10c>)
    459a:	192c      	adds	r4, r5, r4
    459c:	2cfe      	cmp	r4, #254	; 0xfe
    459e:	dc1a      	bgt.n	45d6 <__aeabi_d2f+0x5a>
    45a0:	2c00      	cmp	r4, #0
    45a2:	dd35      	ble.n	4610 <__aeabi_d2f+0x94>
    45a4:	0180      	lsls	r0, r0, #6
    45a6:	1e45      	subs	r5, r0, #1
    45a8:	41a8      	sbcs	r0, r5
    45aa:	00db      	lsls	r3, r3, #3
    45ac:	4303      	orrs	r3, r0
    45ae:	0f52      	lsrs	r2, r2, #29
    45b0:	4313      	orrs	r3, r2
    45b2:	075a      	lsls	r2, r3, #29
    45b4:	d004      	beq.n	45c0 <__aeabi_d2f+0x44>
    45b6:	220f      	movs	r2, #15
    45b8:	401a      	ands	r2, r3
    45ba:	2a04      	cmp	r2, #4
    45bc:	d000      	beq.n	45c0 <__aeabi_d2f+0x44>
    45be:	3304      	adds	r3, #4
    45c0:	2280      	movs	r2, #128	; 0x80
    45c2:	04d2      	lsls	r2, r2, #19
    45c4:	401a      	ands	r2, r3
    45c6:	d027      	beq.n	4618 <__aeabi_d2f+0x9c>
    45c8:	3401      	adds	r4, #1
    45ca:	2cff      	cmp	r4, #255	; 0xff
    45cc:	d003      	beq.n	45d6 <__aeabi_d2f+0x5a>
    45ce:	019b      	lsls	r3, r3, #6
    45d0:	0a5b      	lsrs	r3, r3, #9
    45d2:	b2e4      	uxtb	r4, r4
    45d4:	e001      	b.n	45da <__aeabi_d2f+0x5e>
    45d6:	24ff      	movs	r4, #255	; 0xff
    45d8:	2300      	movs	r3, #0
    45da:	025b      	lsls	r3, r3, #9
    45dc:	05e4      	lsls	r4, r4, #23
    45de:	0a5b      	lsrs	r3, r3, #9
    45e0:	4323      	orrs	r3, r4
    45e2:	005b      	lsls	r3, r3, #1
    45e4:	07c9      	lsls	r1, r1, #31
    45e6:	085b      	lsrs	r3, r3, #1
    45e8:	430b      	orrs	r3, r1
    45ea:	1c18      	adds	r0, r3, #0
    45ec:	bd70      	pop	{r4, r5, r6, pc}
    45ee:	2d00      	cmp	r5, #0
    45f0:	d106      	bne.n	4600 <__aeabi_d2f+0x84>
    45f2:	4313      	orrs	r3, r2
    45f4:	d10e      	bne.n	4614 <__aeabi_d2f+0x98>
    45f6:	2400      	movs	r4, #0
    45f8:	025b      	lsls	r3, r3, #9
    45fa:	0a5b      	lsrs	r3, r3, #9
    45fc:	b2e4      	uxtb	r4, r4
    45fe:	e7ec      	b.n	45da <__aeabi_d2f+0x5e>
    4600:	431a      	orrs	r2, r3
    4602:	d0e8      	beq.n	45d6 <__aeabi_d2f+0x5a>
    4604:	2080      	movs	r0, #128	; 0x80
    4606:	00db      	lsls	r3, r3, #3
    4608:	0480      	lsls	r0, r0, #18
    460a:	4303      	orrs	r3, r0
    460c:	24ff      	movs	r4, #255	; 0xff
    460e:	e7d0      	b.n	45b2 <__aeabi_d2f+0x36>
    4610:	3417      	adds	r4, #23
    4612:	da0c      	bge.n	462e <__aeabi_d2f+0xb2>
    4614:	2305      	movs	r3, #5
    4616:	2400      	movs	r4, #0
    4618:	08db      	lsrs	r3, r3, #3
    461a:	2cff      	cmp	r4, #255	; 0xff
    461c:	d1ec      	bne.n	45f8 <__aeabi_d2f+0x7c>
    461e:	2b00      	cmp	r3, #0
    4620:	d02d      	beq.n	467e <__aeabi_d2f+0x102>
    4622:	2280      	movs	r2, #128	; 0x80
    4624:	03d2      	lsls	r2, r2, #15
    4626:	4313      	orrs	r3, r2
    4628:	025b      	lsls	r3, r3, #9
    462a:	0a5b      	lsrs	r3, r3, #9
    462c:	e7d5      	b.n	45da <__aeabi_d2f+0x5e>
    462e:	2480      	movs	r4, #128	; 0x80
    4630:	4816      	ldr	r0, [pc, #88]	; (468c <__aeabi_d2f+0x110>)
    4632:	0424      	lsls	r4, r4, #16
    4634:	4323      	orrs	r3, r4
    4636:	1b40      	subs	r0, r0, r5
    4638:	281f      	cmp	r0, #31
    463a:	dc0d      	bgt.n	4658 <__aeabi_d2f+0xdc>
    463c:	4c14      	ldr	r4, [pc, #80]	; (4690 <__aeabi_d2f+0x114>)
    463e:	46a4      	mov	ip, r4
    4640:	4465      	add	r5, ip
    4642:	40ab      	lsls	r3, r5
    4644:	1c1c      	adds	r4, r3, #0
    4646:	1c13      	adds	r3, r2, #0
    4648:	40ab      	lsls	r3, r5
    464a:	1e5d      	subs	r5, r3, #1
    464c:	41ab      	sbcs	r3, r5
    464e:	40c2      	lsrs	r2, r0
    4650:	4323      	orrs	r3, r4
    4652:	4313      	orrs	r3, r2
    4654:	2400      	movs	r4, #0
    4656:	e7ac      	b.n	45b2 <__aeabi_d2f+0x36>
    4658:	1c1e      	adds	r6, r3, #0
    465a:	4c0e      	ldr	r4, [pc, #56]	; (4694 <__aeabi_d2f+0x118>)
    465c:	1b64      	subs	r4, r4, r5
    465e:	40e6      	lsrs	r6, r4
    4660:	1c34      	adds	r4, r6, #0
    4662:	2820      	cmp	r0, #32
    4664:	d00d      	beq.n	4682 <__aeabi_d2f+0x106>
    4666:	480c      	ldr	r0, [pc, #48]	; (4698 <__aeabi_d2f+0x11c>)
    4668:	4684      	mov	ip, r0
    466a:	4465      	add	r5, ip
    466c:	40ab      	lsls	r3, r5
    466e:	1c1d      	adds	r5, r3, #0
    4670:	432a      	orrs	r2, r5
    4672:	1e53      	subs	r3, r2, #1
    4674:	419a      	sbcs	r2, r3
    4676:	1c13      	adds	r3, r2, #0
    4678:	4323      	orrs	r3, r4
    467a:	2400      	movs	r4, #0
    467c:	e799      	b.n	45b2 <__aeabi_d2f+0x36>
    467e:	2300      	movs	r3, #0
    4680:	e7ab      	b.n	45da <__aeabi_d2f+0x5e>
    4682:	2500      	movs	r5, #0
    4684:	e7f4      	b.n	4670 <__aeabi_d2f+0xf4>
    4686:	46c0      	nop			; (mov r8, r8)
    4688:	fffffc80 	.word	0xfffffc80
    468c:	0000039e 	.word	0x0000039e
    4690:	fffffc82 	.word	0xfffffc82
    4694:	0000037e 	.word	0x0000037e
    4698:	fffffca2 	.word	0xfffffca2

0000469c <__clzsi2>:
    469c:	211c      	movs	r1, #28
    469e:	2301      	movs	r3, #1
    46a0:	041b      	lsls	r3, r3, #16
    46a2:	4298      	cmp	r0, r3
    46a4:	d301      	bcc.n	46aa <__clzsi2+0xe>
    46a6:	0c00      	lsrs	r0, r0, #16
    46a8:	3910      	subs	r1, #16
    46aa:	0a1b      	lsrs	r3, r3, #8
    46ac:	4298      	cmp	r0, r3
    46ae:	d301      	bcc.n	46b4 <__clzsi2+0x18>
    46b0:	0a00      	lsrs	r0, r0, #8
    46b2:	3908      	subs	r1, #8
    46b4:	091b      	lsrs	r3, r3, #4
    46b6:	4298      	cmp	r0, r3
    46b8:	d301      	bcc.n	46be <__clzsi2+0x22>
    46ba:	0900      	lsrs	r0, r0, #4
    46bc:	3904      	subs	r1, #4
    46be:	a202      	add	r2, pc, #8	; (adr r2, 46c8 <__clzsi2+0x2c>)
    46c0:	5c10      	ldrb	r0, [r2, r0]
    46c2:	1840      	adds	r0, r0, r1
    46c4:	4770      	bx	lr
    46c6:	46c0      	nop			; (mov r8, r8)
    46c8:	02020304 	.word	0x02020304
    46cc:	01010101 	.word	0x01010101
	...

000046d8 <__libc_init_array>:
    46d8:	4b0e      	ldr	r3, [pc, #56]	; (4714 <__libc_init_array+0x3c>)
    46da:	b570      	push	{r4, r5, r6, lr}
    46dc:	2500      	movs	r5, #0
    46de:	1c1e      	adds	r6, r3, #0
    46e0:	4c0d      	ldr	r4, [pc, #52]	; (4718 <__libc_init_array+0x40>)
    46e2:	1ae4      	subs	r4, r4, r3
    46e4:	10a4      	asrs	r4, r4, #2
    46e6:	42a5      	cmp	r5, r4
    46e8:	d004      	beq.n	46f4 <__libc_init_array+0x1c>
    46ea:	00ab      	lsls	r3, r5, #2
    46ec:	58f3      	ldr	r3, [r6, r3]
    46ee:	4798      	blx	r3
    46f0:	3501      	adds	r5, #1
    46f2:	e7f8      	b.n	46e6 <__libc_init_array+0xe>
    46f4:	f001 f8ba 	bl	586c <_init>
    46f8:	4b08      	ldr	r3, [pc, #32]	; (471c <__libc_init_array+0x44>)
    46fa:	2500      	movs	r5, #0
    46fc:	1c1e      	adds	r6, r3, #0
    46fe:	4c08      	ldr	r4, [pc, #32]	; (4720 <__libc_init_array+0x48>)
    4700:	1ae4      	subs	r4, r4, r3
    4702:	10a4      	asrs	r4, r4, #2
    4704:	42a5      	cmp	r5, r4
    4706:	d004      	beq.n	4712 <__libc_init_array+0x3a>
    4708:	00ab      	lsls	r3, r5, #2
    470a:	58f3      	ldr	r3, [r6, r3]
    470c:	4798      	blx	r3
    470e:	3501      	adds	r5, #1
    4710:	e7f8      	b.n	4704 <__libc_init_array+0x2c>
    4712:	bd70      	pop	{r4, r5, r6, pc}
    4714:	00005878 	.word	0x00005878
    4718:	00005878 	.word	0x00005878
    471c:	00005878 	.word	0x00005878
    4720:	0000587c 	.word	0x0000587c

00004724 <memcpy>:
    4724:	2300      	movs	r3, #0
    4726:	b510      	push	{r4, lr}
    4728:	4293      	cmp	r3, r2
    472a:	d003      	beq.n	4734 <memcpy+0x10>
    472c:	5ccc      	ldrb	r4, [r1, r3]
    472e:	54c4      	strb	r4, [r0, r3]
    4730:	3301      	adds	r3, #1
    4732:	e7f9      	b.n	4728 <memcpy+0x4>
    4734:	bd10      	pop	{r4, pc}

00004736 <memset>:
    4736:	1c03      	adds	r3, r0, #0
    4738:	1882      	adds	r2, r0, r2
    473a:	4293      	cmp	r3, r2
    473c:	d002      	beq.n	4744 <memset+0xe>
    473e:	7019      	strb	r1, [r3, #0]
    4740:	3301      	adds	r3, #1
    4742:	e7fa      	b.n	473a <memset+0x4>
    4744:	4770      	bx	lr
	...

00004748 <iprintf>:
    4748:	b40f      	push	{r0, r1, r2, r3}
    474a:	4b0b      	ldr	r3, [pc, #44]	; (4778 <iprintf+0x30>)
    474c:	b513      	push	{r0, r1, r4, lr}
    474e:	681c      	ldr	r4, [r3, #0]
    4750:	2c00      	cmp	r4, #0
    4752:	d005      	beq.n	4760 <iprintf+0x18>
    4754:	69a3      	ldr	r3, [r4, #24]
    4756:	2b00      	cmp	r3, #0
    4758:	d102      	bne.n	4760 <iprintf+0x18>
    475a:	1c20      	adds	r0, r4, #0
    475c:	f000 f996 	bl	4a8c <__sinit>
    4760:	ab05      	add	r3, sp, #20
    4762:	1c20      	adds	r0, r4, #0
    4764:	68a1      	ldr	r1, [r4, #8]
    4766:	9a04      	ldr	r2, [sp, #16]
    4768:	9301      	str	r3, [sp, #4]
    476a:	f000 faf1 	bl	4d50 <_vfiprintf_r>
    476e:	bc16      	pop	{r1, r2, r4}
    4770:	bc08      	pop	{r3}
    4772:	b004      	add	sp, #16
    4774:	4718      	bx	r3
    4776:	46c0      	nop			; (mov r8, r8)
    4778:	20000068 	.word	0x20000068

0000477c <setbuf>:
    477c:	b508      	push	{r3, lr}
    477e:	424a      	negs	r2, r1
    4780:	414a      	adcs	r2, r1
    4782:	2380      	movs	r3, #128	; 0x80
    4784:	0052      	lsls	r2, r2, #1
    4786:	00db      	lsls	r3, r3, #3
    4788:	f000 f802 	bl	4790 <setvbuf>
    478c:	bd08      	pop	{r3, pc}
	...

00004790 <setvbuf>:
    4790:	b5f7      	push	{r0, r1, r2, r4, r5, r6, r7, lr}
    4792:	1c1e      	adds	r6, r3, #0
    4794:	4b3c      	ldr	r3, [pc, #240]	; (4888 <setvbuf+0xf8>)
    4796:	1c04      	adds	r4, r0, #0
    4798:	681d      	ldr	r5, [r3, #0]
    479a:	1c0f      	adds	r7, r1, #0
    479c:	9201      	str	r2, [sp, #4]
    479e:	2d00      	cmp	r5, #0
    47a0:	d005      	beq.n	47ae <setvbuf+0x1e>
    47a2:	69ab      	ldr	r3, [r5, #24]
    47a4:	2b00      	cmp	r3, #0
    47a6:	d102      	bne.n	47ae <setvbuf+0x1e>
    47a8:	1c28      	adds	r0, r5, #0
    47aa:	f000 f96f 	bl	4a8c <__sinit>
    47ae:	4b37      	ldr	r3, [pc, #220]	; (488c <setvbuf+0xfc>)
    47b0:	429c      	cmp	r4, r3
    47b2:	d101      	bne.n	47b8 <setvbuf+0x28>
    47b4:	686c      	ldr	r4, [r5, #4]
    47b6:	e008      	b.n	47ca <setvbuf+0x3a>
    47b8:	4b35      	ldr	r3, [pc, #212]	; (4890 <setvbuf+0x100>)
    47ba:	429c      	cmp	r4, r3
    47bc:	d101      	bne.n	47c2 <setvbuf+0x32>
    47be:	68ac      	ldr	r4, [r5, #8]
    47c0:	e003      	b.n	47ca <setvbuf+0x3a>
    47c2:	4b34      	ldr	r3, [pc, #208]	; (4894 <setvbuf+0x104>)
    47c4:	429c      	cmp	r4, r3
    47c6:	d100      	bne.n	47ca <setvbuf+0x3a>
    47c8:	68ec      	ldr	r4, [r5, #12]
    47ca:	9b01      	ldr	r3, [sp, #4]
    47cc:	2b02      	cmp	r3, #2
    47ce:	d858      	bhi.n	4882 <setvbuf+0xf2>
    47d0:	2e00      	cmp	r6, #0
    47d2:	db56      	blt.n	4882 <setvbuf+0xf2>
    47d4:	1c28      	adds	r0, r5, #0
    47d6:	1c21      	adds	r1, r4, #0
    47d8:	f000 f8ea 	bl	49b0 <_fflush_r>
    47dc:	2300      	movs	r3, #0
    47de:	6063      	str	r3, [r4, #4]
    47e0:	61a3      	str	r3, [r4, #24]
    47e2:	89a3      	ldrh	r3, [r4, #12]
    47e4:	061b      	lsls	r3, r3, #24
    47e6:	d503      	bpl.n	47f0 <setvbuf+0x60>
    47e8:	1c28      	adds	r0, r5, #0
    47ea:	6921      	ldr	r1, [r4, #16]
    47ec:	f000 f9ea 	bl	4bc4 <_free_r>
    47f0:	2283      	movs	r2, #131	; 0x83
    47f2:	89a3      	ldrh	r3, [r4, #12]
    47f4:	4393      	bics	r3, r2
    47f6:	81a3      	strh	r3, [r4, #12]
    47f8:	9b01      	ldr	r3, [sp, #4]
    47fa:	2b02      	cmp	r3, #2
    47fc:	d013      	beq.n	4826 <setvbuf+0x96>
    47fe:	2f00      	cmp	r7, #0
    4800:	d125      	bne.n	484e <setvbuf+0xbe>
    4802:	2e00      	cmp	r6, #0
    4804:	d101      	bne.n	480a <setvbuf+0x7a>
    4806:	2680      	movs	r6, #128	; 0x80
    4808:	00f6      	lsls	r6, r6, #3
    480a:	1c30      	adds	r0, r6, #0
    480c:	f000 f9d0 	bl	4bb0 <malloc>
    4810:	1e07      	subs	r7, r0, #0
    4812:	d118      	bne.n	4846 <setvbuf+0xb6>
    4814:	2080      	movs	r0, #128	; 0x80
    4816:	00c0      	lsls	r0, r0, #3
    4818:	f000 f9ca 	bl	4bb0 <malloc>
    481c:	1e07      	subs	r7, r0, #0
    481e:	d110      	bne.n	4842 <setvbuf+0xb2>
    4820:	2001      	movs	r0, #1
    4822:	4240      	negs	r0, r0
    4824:	e000      	b.n	4828 <setvbuf+0x98>
    4826:	2000      	movs	r0, #0
    4828:	2202      	movs	r2, #2
    482a:	89a3      	ldrh	r3, [r4, #12]
    482c:	4313      	orrs	r3, r2
    482e:	81a3      	strh	r3, [r4, #12]
    4830:	2300      	movs	r3, #0
    4832:	60a3      	str	r3, [r4, #8]
    4834:	1c23      	adds	r3, r4, #0
    4836:	3347      	adds	r3, #71	; 0x47
    4838:	6023      	str	r3, [r4, #0]
    483a:	6123      	str	r3, [r4, #16]
    483c:	2301      	movs	r3, #1
    483e:	6163      	str	r3, [r4, #20]
    4840:	e021      	b.n	4886 <setvbuf+0xf6>
    4842:	2680      	movs	r6, #128	; 0x80
    4844:	00f6      	lsls	r6, r6, #3
    4846:	2280      	movs	r2, #128	; 0x80
    4848:	89a3      	ldrh	r3, [r4, #12]
    484a:	4313      	orrs	r3, r2
    484c:	81a3      	strh	r3, [r4, #12]
    484e:	9b01      	ldr	r3, [sp, #4]
    4850:	2b01      	cmp	r3, #1
    4852:	d105      	bne.n	4860 <setvbuf+0xd0>
    4854:	89a3      	ldrh	r3, [r4, #12]
    4856:	9a01      	ldr	r2, [sp, #4]
    4858:	431a      	orrs	r2, r3
    485a:	4273      	negs	r3, r6
    485c:	81a2      	strh	r2, [r4, #12]
    485e:	61a3      	str	r3, [r4, #24]
    4860:	4b0d      	ldr	r3, [pc, #52]	; (4898 <setvbuf+0x108>)
    4862:	2000      	movs	r0, #0
    4864:	62ab      	str	r3, [r5, #40]	; 0x28
    4866:	89a2      	ldrh	r2, [r4, #12]
    4868:	6027      	str	r7, [r4, #0]
    486a:	6127      	str	r7, [r4, #16]
    486c:	6166      	str	r6, [r4, #20]
    486e:	0713      	lsls	r3, r2, #28
    4870:	d509      	bpl.n	4886 <setvbuf+0xf6>
    4872:	2303      	movs	r3, #3
    4874:	401a      	ands	r2, r3
    4876:	4253      	negs	r3, r2
    4878:	4153      	adcs	r3, r2
    487a:	425b      	negs	r3, r3
    487c:	401e      	ands	r6, r3
    487e:	60a6      	str	r6, [r4, #8]
    4880:	e001      	b.n	4886 <setvbuf+0xf6>
    4882:	2001      	movs	r0, #1
    4884:	4240      	negs	r0, r0
    4886:	bdfe      	pop	{r1, r2, r3, r4, r5, r6, r7, pc}
    4888:	20000068 	.word	0x20000068
    488c:	000057d8 	.word	0x000057d8
    4890:	000057f8 	.word	0x000057f8
    4894:	00005818 	.word	0x00005818
    4898:	00004a09 	.word	0x00004a09

0000489c <__sflush_r>:
    489c:	b5f7      	push	{r0, r1, r2, r4, r5, r6, r7, lr}
    489e:	898a      	ldrh	r2, [r1, #12]
    48a0:	1c05      	adds	r5, r0, #0
    48a2:	1c0c      	adds	r4, r1, #0
    48a4:	0713      	lsls	r3, r2, #28
    48a6:	d45e      	bmi.n	4966 <__sflush_r+0xca>
    48a8:	684b      	ldr	r3, [r1, #4]
    48aa:	2b00      	cmp	r3, #0
    48ac:	dc02      	bgt.n	48b4 <__sflush_r+0x18>
    48ae:	6c0b      	ldr	r3, [r1, #64]	; 0x40
    48b0:	2b00      	cmp	r3, #0
    48b2:	dd1a      	ble.n	48ea <__sflush_r+0x4e>
    48b4:	6ae7      	ldr	r7, [r4, #44]	; 0x2c
    48b6:	2f00      	cmp	r7, #0
    48b8:	d017      	beq.n	48ea <__sflush_r+0x4e>
    48ba:	2300      	movs	r3, #0
    48bc:	682e      	ldr	r6, [r5, #0]
    48be:	602b      	str	r3, [r5, #0]
    48c0:	2380      	movs	r3, #128	; 0x80
    48c2:	015b      	lsls	r3, r3, #5
    48c4:	401a      	ands	r2, r3
    48c6:	d001      	beq.n	48cc <__sflush_r+0x30>
    48c8:	6d62      	ldr	r2, [r4, #84]	; 0x54
    48ca:	e015      	b.n	48f8 <__sflush_r+0x5c>
    48cc:	1c28      	adds	r0, r5, #0
    48ce:	6a21      	ldr	r1, [r4, #32]
    48d0:	2301      	movs	r3, #1
    48d2:	47b8      	blx	r7
    48d4:	1c02      	adds	r2, r0, #0
    48d6:	1c43      	adds	r3, r0, #1
    48d8:	d10e      	bne.n	48f8 <__sflush_r+0x5c>
    48da:	682b      	ldr	r3, [r5, #0]
    48dc:	2b00      	cmp	r3, #0
    48de:	d00b      	beq.n	48f8 <__sflush_r+0x5c>
    48e0:	2b1d      	cmp	r3, #29
    48e2:	d001      	beq.n	48e8 <__sflush_r+0x4c>
    48e4:	2b16      	cmp	r3, #22
    48e6:	d102      	bne.n	48ee <__sflush_r+0x52>
    48e8:	602e      	str	r6, [r5, #0]
    48ea:	2000      	movs	r0, #0
    48ec:	e05e      	b.n	49ac <__sflush_r+0x110>
    48ee:	2140      	movs	r1, #64	; 0x40
    48f0:	89a3      	ldrh	r3, [r4, #12]
    48f2:	430b      	orrs	r3, r1
    48f4:	81a3      	strh	r3, [r4, #12]
    48f6:	e059      	b.n	49ac <__sflush_r+0x110>
    48f8:	89a3      	ldrh	r3, [r4, #12]
    48fa:	075b      	lsls	r3, r3, #29
    48fc:	d506      	bpl.n	490c <__sflush_r+0x70>
    48fe:	6863      	ldr	r3, [r4, #4]
    4900:	1ad2      	subs	r2, r2, r3
    4902:	6b63      	ldr	r3, [r4, #52]	; 0x34
    4904:	2b00      	cmp	r3, #0
    4906:	d001      	beq.n	490c <__sflush_r+0x70>
    4908:	6c23      	ldr	r3, [r4, #64]	; 0x40
    490a:	1ad2      	subs	r2, r2, r3
    490c:	2300      	movs	r3, #0
    490e:	1c28      	adds	r0, r5, #0
    4910:	6a21      	ldr	r1, [r4, #32]
    4912:	6ae7      	ldr	r7, [r4, #44]	; 0x2c
    4914:	47b8      	blx	r7
    4916:	89a3      	ldrh	r3, [r4, #12]
    4918:	1c42      	adds	r2, r0, #1
    491a:	d106      	bne.n	492a <__sflush_r+0x8e>
    491c:	682a      	ldr	r2, [r5, #0]
    491e:	2a00      	cmp	r2, #0
    4920:	d003      	beq.n	492a <__sflush_r+0x8e>
    4922:	2a1d      	cmp	r2, #29
    4924:	d001      	beq.n	492a <__sflush_r+0x8e>
    4926:	2a16      	cmp	r2, #22
    4928:	d119      	bne.n	495e <__sflush_r+0xc2>
    492a:	2200      	movs	r2, #0
    492c:	6062      	str	r2, [r4, #4]
    492e:	6922      	ldr	r2, [r4, #16]
    4930:	6022      	str	r2, [r4, #0]
    4932:	04db      	lsls	r3, r3, #19
    4934:	d505      	bpl.n	4942 <__sflush_r+0xa6>
    4936:	1c43      	adds	r3, r0, #1
    4938:	d102      	bne.n	4940 <__sflush_r+0xa4>
    493a:	682b      	ldr	r3, [r5, #0]
    493c:	2b00      	cmp	r3, #0
    493e:	d100      	bne.n	4942 <__sflush_r+0xa6>
    4940:	6560      	str	r0, [r4, #84]	; 0x54
    4942:	6b61      	ldr	r1, [r4, #52]	; 0x34
    4944:	602e      	str	r6, [r5, #0]
    4946:	2900      	cmp	r1, #0
    4948:	d0cf      	beq.n	48ea <__sflush_r+0x4e>
    494a:	1c23      	adds	r3, r4, #0
    494c:	3344      	adds	r3, #68	; 0x44
    494e:	4299      	cmp	r1, r3
    4950:	d002      	beq.n	4958 <__sflush_r+0xbc>
    4952:	1c28      	adds	r0, r5, #0
    4954:	f000 f936 	bl	4bc4 <_free_r>
    4958:	2000      	movs	r0, #0
    495a:	6360      	str	r0, [r4, #52]	; 0x34
    495c:	e026      	b.n	49ac <__sflush_r+0x110>
    495e:	2240      	movs	r2, #64	; 0x40
    4960:	4313      	orrs	r3, r2
    4962:	81a3      	strh	r3, [r4, #12]
    4964:	e022      	b.n	49ac <__sflush_r+0x110>
    4966:	690f      	ldr	r7, [r1, #16]
    4968:	2f00      	cmp	r7, #0
    496a:	d0be      	beq.n	48ea <__sflush_r+0x4e>
    496c:	680b      	ldr	r3, [r1, #0]
    496e:	600f      	str	r7, [r1, #0]
    4970:	1bdb      	subs	r3, r3, r7
    4972:	9301      	str	r3, [sp, #4]
    4974:	2300      	movs	r3, #0
    4976:	0792      	lsls	r2, r2, #30
    4978:	d100      	bne.n	497c <__sflush_r+0xe0>
    497a:	694b      	ldr	r3, [r1, #20]
    497c:	60a3      	str	r3, [r4, #8]
    497e:	9b01      	ldr	r3, [sp, #4]
    4980:	2b00      	cmp	r3, #0
    4982:	ddb2      	ble.n	48ea <__sflush_r+0x4e>
    4984:	1c28      	adds	r0, r5, #0
    4986:	6a21      	ldr	r1, [r4, #32]
    4988:	1c3a      	adds	r2, r7, #0
    498a:	9b01      	ldr	r3, [sp, #4]
    498c:	6aa6      	ldr	r6, [r4, #40]	; 0x28
    498e:	47b0      	blx	r6
    4990:	2800      	cmp	r0, #0
    4992:	dc06      	bgt.n	49a2 <__sflush_r+0x106>
    4994:	2240      	movs	r2, #64	; 0x40
    4996:	2001      	movs	r0, #1
    4998:	89a3      	ldrh	r3, [r4, #12]
    499a:	4240      	negs	r0, r0
    499c:	4313      	orrs	r3, r2
    499e:	81a3      	strh	r3, [r4, #12]
    49a0:	e004      	b.n	49ac <__sflush_r+0x110>
    49a2:	9b01      	ldr	r3, [sp, #4]
    49a4:	183f      	adds	r7, r7, r0
    49a6:	1a1b      	subs	r3, r3, r0
    49a8:	9301      	str	r3, [sp, #4]
    49aa:	e7e8      	b.n	497e <__sflush_r+0xe2>
    49ac:	bdfe      	pop	{r1, r2, r3, r4, r5, r6, r7, pc}
	...

000049b0 <_fflush_r>:
    49b0:	b538      	push	{r3, r4, r5, lr}
    49b2:	690b      	ldr	r3, [r1, #16]
    49b4:	1c05      	adds	r5, r0, #0
    49b6:	1c0c      	adds	r4, r1, #0
    49b8:	2b00      	cmp	r3, #0
    49ba:	d101      	bne.n	49c0 <_fflush_r+0x10>
    49bc:	2000      	movs	r0, #0
    49be:	e01c      	b.n	49fa <_fflush_r+0x4a>
    49c0:	2800      	cmp	r0, #0
    49c2:	d004      	beq.n	49ce <_fflush_r+0x1e>
    49c4:	6983      	ldr	r3, [r0, #24]
    49c6:	2b00      	cmp	r3, #0
    49c8:	d101      	bne.n	49ce <_fflush_r+0x1e>
    49ca:	f000 f85f 	bl	4a8c <__sinit>
    49ce:	4b0b      	ldr	r3, [pc, #44]	; (49fc <_fflush_r+0x4c>)
    49d0:	429c      	cmp	r4, r3
    49d2:	d101      	bne.n	49d8 <_fflush_r+0x28>
    49d4:	686c      	ldr	r4, [r5, #4]
    49d6:	e008      	b.n	49ea <_fflush_r+0x3a>
    49d8:	4b09      	ldr	r3, [pc, #36]	; (4a00 <_fflush_r+0x50>)
    49da:	429c      	cmp	r4, r3
    49dc:	d101      	bne.n	49e2 <_fflush_r+0x32>
    49de:	68ac      	ldr	r4, [r5, #8]
    49e0:	e003      	b.n	49ea <_fflush_r+0x3a>
    49e2:	4b08      	ldr	r3, [pc, #32]	; (4a04 <_fflush_r+0x54>)
    49e4:	429c      	cmp	r4, r3
    49e6:	d100      	bne.n	49ea <_fflush_r+0x3a>
    49e8:	68ec      	ldr	r4, [r5, #12]
    49ea:	220c      	movs	r2, #12
    49ec:	5ea3      	ldrsh	r3, [r4, r2]
    49ee:	2b00      	cmp	r3, #0
    49f0:	d0e4      	beq.n	49bc <_fflush_r+0xc>
    49f2:	1c28      	adds	r0, r5, #0
    49f4:	1c21      	adds	r1, r4, #0
    49f6:	f7ff ff51 	bl	489c <__sflush_r>
    49fa:	bd38      	pop	{r3, r4, r5, pc}
    49fc:	000057d8 	.word	0x000057d8
    4a00:	000057f8 	.word	0x000057f8
    4a04:	00005818 	.word	0x00005818

00004a08 <_cleanup_r>:
    4a08:	b508      	push	{r3, lr}
    4a0a:	4902      	ldr	r1, [pc, #8]	; (4a14 <_cleanup_r+0xc>)
    4a0c:	f000 f8ae 	bl	4b6c <_fwalk_reent>
    4a10:	bd08      	pop	{r3, pc}
    4a12:	46c0      	nop			; (mov r8, r8)
    4a14:	000049b1 	.word	0x000049b1

00004a18 <std.isra.0>:
    4a18:	2300      	movs	r3, #0
    4a1a:	b510      	push	{r4, lr}
    4a1c:	1c04      	adds	r4, r0, #0
    4a1e:	6003      	str	r3, [r0, #0]
    4a20:	6043      	str	r3, [r0, #4]
    4a22:	6083      	str	r3, [r0, #8]
    4a24:	8181      	strh	r1, [r0, #12]
    4a26:	6643      	str	r3, [r0, #100]	; 0x64
    4a28:	81c2      	strh	r2, [r0, #14]
    4a2a:	6103      	str	r3, [r0, #16]
    4a2c:	6143      	str	r3, [r0, #20]
    4a2e:	6183      	str	r3, [r0, #24]
    4a30:	1c19      	adds	r1, r3, #0
    4a32:	2208      	movs	r2, #8
    4a34:	305c      	adds	r0, #92	; 0x5c
    4a36:	f7ff fe7e 	bl	4736 <memset>
    4a3a:	4b05      	ldr	r3, [pc, #20]	; (4a50 <std.isra.0+0x38>)
    4a3c:	6224      	str	r4, [r4, #32]
    4a3e:	6263      	str	r3, [r4, #36]	; 0x24
    4a40:	4b04      	ldr	r3, [pc, #16]	; (4a54 <std.isra.0+0x3c>)
    4a42:	62a3      	str	r3, [r4, #40]	; 0x28
    4a44:	4b04      	ldr	r3, [pc, #16]	; (4a58 <std.isra.0+0x40>)
    4a46:	62e3      	str	r3, [r4, #44]	; 0x2c
    4a48:	4b04      	ldr	r3, [pc, #16]	; (4a5c <std.isra.0+0x44>)
    4a4a:	6323      	str	r3, [r4, #48]	; 0x30
    4a4c:	bd10      	pop	{r4, pc}
    4a4e:	46c0      	nop			; (mov r8, r8)
    4a50:	000052a1 	.word	0x000052a1
    4a54:	000052c9 	.word	0x000052c9
    4a58:	00005301 	.word	0x00005301
    4a5c:	0000532d 	.word	0x0000532d

00004a60 <__sfmoreglue>:
    4a60:	b570      	push	{r4, r5, r6, lr}
    4a62:	2568      	movs	r5, #104	; 0x68
    4a64:	1e4b      	subs	r3, r1, #1
    4a66:	435d      	muls	r5, r3
    4a68:	1c0e      	adds	r6, r1, #0
    4a6a:	1c29      	adds	r1, r5, #0
    4a6c:	3174      	adds	r1, #116	; 0x74
    4a6e:	f000 f8ef 	bl	4c50 <_malloc_r>
    4a72:	1e04      	subs	r4, r0, #0
    4a74:	d008      	beq.n	4a88 <__sfmoreglue+0x28>
    4a76:	2100      	movs	r1, #0
    4a78:	1c2a      	adds	r2, r5, #0
    4a7a:	6001      	str	r1, [r0, #0]
    4a7c:	6046      	str	r6, [r0, #4]
    4a7e:	300c      	adds	r0, #12
    4a80:	60a0      	str	r0, [r4, #8]
    4a82:	3268      	adds	r2, #104	; 0x68
    4a84:	f7ff fe57 	bl	4736 <memset>
    4a88:	1c20      	adds	r0, r4, #0
    4a8a:	bd70      	pop	{r4, r5, r6, pc}

00004a8c <__sinit>:
    4a8c:	6983      	ldr	r3, [r0, #24]
    4a8e:	b513      	push	{r0, r1, r4, lr}
    4a90:	2b00      	cmp	r3, #0
    4a92:	d128      	bne.n	4ae6 <__sinit+0x5a>
    4a94:	6483      	str	r3, [r0, #72]	; 0x48
    4a96:	64c3      	str	r3, [r0, #76]	; 0x4c
    4a98:	6503      	str	r3, [r0, #80]	; 0x50
    4a9a:	4b13      	ldr	r3, [pc, #76]	; (4ae8 <__sinit+0x5c>)
    4a9c:	4a13      	ldr	r2, [pc, #76]	; (4aec <__sinit+0x60>)
    4a9e:	681b      	ldr	r3, [r3, #0]
    4aa0:	6282      	str	r2, [r0, #40]	; 0x28
    4aa2:	9301      	str	r3, [sp, #4]
    4aa4:	4298      	cmp	r0, r3
    4aa6:	d101      	bne.n	4aac <__sinit+0x20>
    4aa8:	2301      	movs	r3, #1
    4aaa:	6183      	str	r3, [r0, #24]
    4aac:	1c04      	adds	r4, r0, #0
    4aae:	f000 f81f 	bl	4af0 <__sfp>
    4ab2:	6060      	str	r0, [r4, #4]
    4ab4:	1c20      	adds	r0, r4, #0
    4ab6:	f000 f81b 	bl	4af0 <__sfp>
    4aba:	60a0      	str	r0, [r4, #8]
    4abc:	1c20      	adds	r0, r4, #0
    4abe:	f000 f817 	bl	4af0 <__sfp>
    4ac2:	2104      	movs	r1, #4
    4ac4:	60e0      	str	r0, [r4, #12]
    4ac6:	2200      	movs	r2, #0
    4ac8:	6860      	ldr	r0, [r4, #4]
    4aca:	f7ff ffa5 	bl	4a18 <std.isra.0>
    4ace:	68a0      	ldr	r0, [r4, #8]
    4ad0:	2109      	movs	r1, #9
    4ad2:	2201      	movs	r2, #1
    4ad4:	f7ff ffa0 	bl	4a18 <std.isra.0>
    4ad8:	68e0      	ldr	r0, [r4, #12]
    4ada:	2112      	movs	r1, #18
    4adc:	2202      	movs	r2, #2
    4ade:	f7ff ff9b 	bl	4a18 <std.isra.0>
    4ae2:	2301      	movs	r3, #1
    4ae4:	61a3      	str	r3, [r4, #24]
    4ae6:	bd13      	pop	{r0, r1, r4, pc}
    4ae8:	000057d4 	.word	0x000057d4
    4aec:	00004a09 	.word	0x00004a09

00004af0 <__sfp>:
    4af0:	b5f8      	push	{r3, r4, r5, r6, r7, lr}
    4af2:	4b1d      	ldr	r3, [pc, #116]	; (4b68 <__sfp+0x78>)
    4af4:	1c06      	adds	r6, r0, #0
    4af6:	681d      	ldr	r5, [r3, #0]
    4af8:	69ab      	ldr	r3, [r5, #24]
    4afa:	2b00      	cmp	r3, #0
    4afc:	d102      	bne.n	4b04 <__sfp+0x14>
    4afe:	1c28      	adds	r0, r5, #0
    4b00:	f7ff ffc4 	bl	4a8c <__sinit>
    4b04:	3548      	adds	r5, #72	; 0x48
    4b06:	68ac      	ldr	r4, [r5, #8]
    4b08:	686b      	ldr	r3, [r5, #4]
    4b0a:	3b01      	subs	r3, #1
    4b0c:	d405      	bmi.n	4b1a <__sfp+0x2a>
    4b0e:	220c      	movs	r2, #12
    4b10:	5ea7      	ldrsh	r7, [r4, r2]
    4b12:	2f00      	cmp	r7, #0
    4b14:	d010      	beq.n	4b38 <__sfp+0x48>
    4b16:	3468      	adds	r4, #104	; 0x68
    4b18:	e7f7      	b.n	4b0a <__sfp+0x1a>
    4b1a:	682b      	ldr	r3, [r5, #0]
    4b1c:	2b00      	cmp	r3, #0
    4b1e:	d106      	bne.n	4b2e <__sfp+0x3e>
    4b20:	1c30      	adds	r0, r6, #0
    4b22:	2104      	movs	r1, #4
    4b24:	f7ff ff9c 	bl	4a60 <__sfmoreglue>
    4b28:	6028      	str	r0, [r5, #0]
    4b2a:	2800      	cmp	r0, #0
    4b2c:	d001      	beq.n	4b32 <__sfp+0x42>
    4b2e:	682d      	ldr	r5, [r5, #0]
    4b30:	e7e9      	b.n	4b06 <__sfp+0x16>
    4b32:	230c      	movs	r3, #12
    4b34:	6033      	str	r3, [r6, #0]
    4b36:	e016      	b.n	4b66 <__sfp+0x76>
    4b38:	2301      	movs	r3, #1
    4b3a:	1c20      	adds	r0, r4, #0
    4b3c:	425b      	negs	r3, r3
    4b3e:	81e3      	strh	r3, [r4, #14]
    4b40:	3302      	adds	r3, #2
    4b42:	81a3      	strh	r3, [r4, #12]
    4b44:	6667      	str	r7, [r4, #100]	; 0x64
    4b46:	6027      	str	r7, [r4, #0]
    4b48:	60a7      	str	r7, [r4, #8]
    4b4a:	6067      	str	r7, [r4, #4]
    4b4c:	6127      	str	r7, [r4, #16]
    4b4e:	6167      	str	r7, [r4, #20]
    4b50:	61a7      	str	r7, [r4, #24]
    4b52:	305c      	adds	r0, #92	; 0x5c
    4b54:	1c39      	adds	r1, r7, #0
    4b56:	2208      	movs	r2, #8
    4b58:	f7ff fded 	bl	4736 <memset>
    4b5c:	1c20      	adds	r0, r4, #0
    4b5e:	6367      	str	r7, [r4, #52]	; 0x34
    4b60:	63a7      	str	r7, [r4, #56]	; 0x38
    4b62:	64a7      	str	r7, [r4, #72]	; 0x48
    4b64:	64e7      	str	r7, [r4, #76]	; 0x4c
    4b66:	bdf8      	pop	{r3, r4, r5, r6, r7, pc}
    4b68:	000057d4 	.word	0x000057d4

00004b6c <_fwalk_reent>:
    4b6c:	b5f7      	push	{r0, r1, r2, r4, r5, r6, r7, lr}
    4b6e:	1c04      	adds	r4, r0, #0
    4b70:	1c07      	adds	r7, r0, #0
    4b72:	2600      	movs	r6, #0
    4b74:	9101      	str	r1, [sp, #4]
    4b76:	3448      	adds	r4, #72	; 0x48
    4b78:	2c00      	cmp	r4, #0
    4b7a:	d016      	beq.n	4baa <_fwalk_reent+0x3e>
    4b7c:	6863      	ldr	r3, [r4, #4]
    4b7e:	68a5      	ldr	r5, [r4, #8]
    4b80:	9300      	str	r3, [sp, #0]
    4b82:	9b00      	ldr	r3, [sp, #0]
    4b84:	3b01      	subs	r3, #1
    4b86:	9300      	str	r3, [sp, #0]
    4b88:	d40d      	bmi.n	4ba6 <_fwalk_reent+0x3a>
    4b8a:	89ab      	ldrh	r3, [r5, #12]
    4b8c:	2b01      	cmp	r3, #1
    4b8e:	d908      	bls.n	4ba2 <_fwalk_reent+0x36>
    4b90:	220e      	movs	r2, #14
    4b92:	5eab      	ldrsh	r3, [r5, r2]
    4b94:	3301      	adds	r3, #1
    4b96:	d004      	beq.n	4ba2 <_fwalk_reent+0x36>
    4b98:	1c38      	adds	r0, r7, #0
    4b9a:	1c29      	adds	r1, r5, #0
    4b9c:	9b01      	ldr	r3, [sp, #4]
    4b9e:	4798      	blx	r3
    4ba0:	4306      	orrs	r6, r0
    4ba2:	3568      	adds	r5, #104	; 0x68
    4ba4:	e7ed      	b.n	4b82 <_fwalk_reent+0x16>
    4ba6:	6824      	ldr	r4, [r4, #0]
    4ba8:	e7e6      	b.n	4b78 <_fwalk_reent+0xc>
    4baa:	1c30      	adds	r0, r6, #0
    4bac:	bdfe      	pop	{r1, r2, r3, r4, r5, r6, r7, pc}
	...

00004bb0 <malloc>:
    4bb0:	b508      	push	{r3, lr}
    4bb2:	4b03      	ldr	r3, [pc, #12]	; (4bc0 <malloc+0x10>)
    4bb4:	1c01      	adds	r1, r0, #0
    4bb6:	6818      	ldr	r0, [r3, #0]
    4bb8:	f000 f84a 	bl	4c50 <_malloc_r>
    4bbc:	bd08      	pop	{r3, pc}
    4bbe:	46c0      	nop			; (mov r8, r8)
    4bc0:	20000068 	.word	0x20000068

00004bc4 <_free_r>:
    4bc4:	b530      	push	{r4, r5, lr}
    4bc6:	2900      	cmp	r1, #0
    4bc8:	d03e      	beq.n	4c48 <_free_r+0x84>
    4bca:	3904      	subs	r1, #4
    4bcc:	680b      	ldr	r3, [r1, #0]
    4bce:	2b00      	cmp	r3, #0
    4bd0:	da00      	bge.n	4bd4 <_free_r+0x10>
    4bd2:	18c9      	adds	r1, r1, r3
    4bd4:	4a1d      	ldr	r2, [pc, #116]	; (4c4c <_free_r+0x88>)
    4bd6:	6813      	ldr	r3, [r2, #0]
    4bd8:	1c14      	adds	r4, r2, #0
    4bda:	2b00      	cmp	r3, #0
    4bdc:	d102      	bne.n	4be4 <_free_r+0x20>
    4bde:	604b      	str	r3, [r1, #4]
    4be0:	6011      	str	r1, [r2, #0]
    4be2:	e031      	b.n	4c48 <_free_r+0x84>
    4be4:	4299      	cmp	r1, r3
    4be6:	d20d      	bcs.n	4c04 <_free_r+0x40>
    4be8:	6808      	ldr	r0, [r1, #0]
    4bea:	180a      	adds	r2, r1, r0
    4bec:	429a      	cmp	r2, r3
    4bee:	d103      	bne.n	4bf8 <_free_r+0x34>
    4bf0:	6813      	ldr	r3, [r2, #0]
    4bf2:	18c3      	adds	r3, r0, r3
    4bf4:	600b      	str	r3, [r1, #0]
    4bf6:	6853      	ldr	r3, [r2, #4]
    4bf8:	604b      	str	r3, [r1, #4]
    4bfa:	6021      	str	r1, [r4, #0]
    4bfc:	e024      	b.n	4c48 <_free_r+0x84>
    4bfe:	428a      	cmp	r2, r1
    4c00:	d803      	bhi.n	4c0a <_free_r+0x46>
    4c02:	1c13      	adds	r3, r2, #0
    4c04:	685a      	ldr	r2, [r3, #4]
    4c06:	2a00      	cmp	r2, #0
    4c08:	d1f9      	bne.n	4bfe <_free_r+0x3a>
    4c0a:	681d      	ldr	r5, [r3, #0]
    4c0c:	195c      	adds	r4, r3, r5
    4c0e:	428c      	cmp	r4, r1
    4c10:	d10b      	bne.n	4c2a <_free_r+0x66>
    4c12:	6809      	ldr	r1, [r1, #0]
    4c14:	1869      	adds	r1, r5, r1
    4c16:	1858      	adds	r0, r3, r1
    4c18:	6019      	str	r1, [r3, #0]
    4c1a:	4290      	cmp	r0, r2
    4c1c:	d114      	bne.n	4c48 <_free_r+0x84>
    4c1e:	6810      	ldr	r0, [r2, #0]
    4c20:	6852      	ldr	r2, [r2, #4]
    4c22:	1809      	adds	r1, r1, r0
    4c24:	6019      	str	r1, [r3, #0]
    4c26:	605a      	str	r2, [r3, #4]
    4c28:	e00e      	b.n	4c48 <_free_r+0x84>
    4c2a:	428c      	cmp	r4, r1
    4c2c:	d902      	bls.n	4c34 <_free_r+0x70>
    4c2e:	230c      	movs	r3, #12
    4c30:	6003      	str	r3, [r0, #0]
    4c32:	e009      	b.n	4c48 <_free_r+0x84>
    4c34:	6808      	ldr	r0, [r1, #0]
    4c36:	180c      	adds	r4, r1, r0
    4c38:	4294      	cmp	r4, r2
    4c3a:	d103      	bne.n	4c44 <_free_r+0x80>
    4c3c:	6814      	ldr	r4, [r2, #0]
    4c3e:	6852      	ldr	r2, [r2, #4]
    4c40:	1900      	adds	r0, r0, r4
    4c42:	6008      	str	r0, [r1, #0]
    4c44:	604a      	str	r2, [r1, #4]
    4c46:	6059      	str	r1, [r3, #4]
    4c48:	bd30      	pop	{r4, r5, pc}
    4c4a:	46c0      	nop			; (mov r8, r8)
    4c4c:	20000188 	.word	0x20000188

00004c50 <_malloc_r>:
    4c50:	2303      	movs	r3, #3
    4c52:	b570      	push	{r4, r5, r6, lr}
    4c54:	1ccc      	adds	r4, r1, #3
    4c56:	439c      	bics	r4, r3
    4c58:	3408      	adds	r4, #8
    4c5a:	1c05      	adds	r5, r0, #0
    4c5c:	2c0c      	cmp	r4, #12
    4c5e:	d201      	bcs.n	4c64 <_malloc_r+0x14>
    4c60:	240c      	movs	r4, #12
    4c62:	e005      	b.n	4c70 <_malloc_r+0x20>
    4c64:	2c00      	cmp	r4, #0
    4c66:	da03      	bge.n	4c70 <_malloc_r+0x20>
    4c68:	230c      	movs	r3, #12
    4c6a:	2000      	movs	r0, #0
    4c6c:	602b      	str	r3, [r5, #0]
    4c6e:	e042      	b.n	4cf6 <_malloc_r+0xa6>
    4c70:	428c      	cmp	r4, r1
    4c72:	d3f9      	bcc.n	4c68 <_malloc_r+0x18>
    4c74:	4a20      	ldr	r2, [pc, #128]	; (4cf8 <_malloc_r+0xa8>)
    4c76:	6813      	ldr	r3, [r2, #0]
    4c78:	1c10      	adds	r0, r2, #0
    4c7a:	1c19      	adds	r1, r3, #0
    4c7c:	2900      	cmp	r1, #0
    4c7e:	d013      	beq.n	4ca8 <_malloc_r+0x58>
    4c80:	680a      	ldr	r2, [r1, #0]
    4c82:	1b12      	subs	r2, r2, r4
    4c84:	d40d      	bmi.n	4ca2 <_malloc_r+0x52>
    4c86:	2a0b      	cmp	r2, #11
    4c88:	d902      	bls.n	4c90 <_malloc_r+0x40>
    4c8a:	600a      	str	r2, [r1, #0]
    4c8c:	188b      	adds	r3, r1, r2
    4c8e:	e01f      	b.n	4cd0 <_malloc_r+0x80>
    4c90:	428b      	cmp	r3, r1
    4c92:	d102      	bne.n	4c9a <_malloc_r+0x4a>
    4c94:	685a      	ldr	r2, [r3, #4]
    4c96:	6002      	str	r2, [r0, #0]
    4c98:	e01b      	b.n	4cd2 <_malloc_r+0x82>
    4c9a:	684a      	ldr	r2, [r1, #4]
    4c9c:	605a      	str	r2, [r3, #4]
    4c9e:	1c0b      	adds	r3, r1, #0
    4ca0:	e017      	b.n	4cd2 <_malloc_r+0x82>
    4ca2:	1c0b      	adds	r3, r1, #0
    4ca4:	6849      	ldr	r1, [r1, #4]
    4ca6:	e7e9      	b.n	4c7c <_malloc_r+0x2c>
    4ca8:	4e14      	ldr	r6, [pc, #80]	; (4cfc <_malloc_r+0xac>)
    4caa:	6833      	ldr	r3, [r6, #0]
    4cac:	2b00      	cmp	r3, #0
    4cae:	d103      	bne.n	4cb8 <_malloc_r+0x68>
    4cb0:	1c28      	adds	r0, r5, #0
    4cb2:	f000 fae3 	bl	527c <_sbrk_r>
    4cb6:	6030      	str	r0, [r6, #0]
    4cb8:	1c28      	adds	r0, r5, #0
    4cba:	1c21      	adds	r1, r4, #0
    4cbc:	f000 fade 	bl	527c <_sbrk_r>
    4cc0:	1c03      	adds	r3, r0, #0
    4cc2:	1c42      	adds	r2, r0, #1
    4cc4:	d0d0      	beq.n	4c68 <_malloc_r+0x18>
    4cc6:	2203      	movs	r2, #3
    4cc8:	1cc6      	adds	r6, r0, #3
    4cca:	4396      	bics	r6, r2
    4ccc:	4286      	cmp	r6, r0
    4cce:	d10a      	bne.n	4ce6 <_malloc_r+0x96>
    4cd0:	601c      	str	r4, [r3, #0]
    4cd2:	1c18      	adds	r0, r3, #0
    4cd4:	2107      	movs	r1, #7
    4cd6:	300b      	adds	r0, #11
    4cd8:	1d1a      	adds	r2, r3, #4
    4cda:	4388      	bics	r0, r1
    4cdc:	1a82      	subs	r2, r0, r2
    4cde:	d00a      	beq.n	4cf6 <_malloc_r+0xa6>
    4ce0:	4251      	negs	r1, r2
    4ce2:	5099      	str	r1, [r3, r2]
    4ce4:	e007      	b.n	4cf6 <_malloc_r+0xa6>
    4ce6:	1a31      	subs	r1, r6, r0
    4ce8:	1c28      	adds	r0, r5, #0
    4cea:	f000 fac7 	bl	527c <_sbrk_r>
    4cee:	1c43      	adds	r3, r0, #1
    4cf0:	d0ba      	beq.n	4c68 <_malloc_r+0x18>
    4cf2:	1c33      	adds	r3, r6, #0
    4cf4:	e7ec      	b.n	4cd0 <_malloc_r+0x80>
    4cf6:	bd70      	pop	{r4, r5, r6, pc}
    4cf8:	20000188 	.word	0x20000188
    4cfc:	20000184 	.word	0x20000184

00004d00 <__sfputc_r>:
    4d00:	6893      	ldr	r3, [r2, #8]
    4d02:	b510      	push	{r4, lr}
    4d04:	3b01      	subs	r3, #1
    4d06:	6093      	str	r3, [r2, #8]
    4d08:	2b00      	cmp	r3, #0
    4d0a:	da05      	bge.n	4d18 <__sfputc_r+0x18>
    4d0c:	6994      	ldr	r4, [r2, #24]
    4d0e:	42a3      	cmp	r3, r4
    4d10:	db08      	blt.n	4d24 <__sfputc_r+0x24>
    4d12:	b2cb      	uxtb	r3, r1
    4d14:	2b0a      	cmp	r3, #10
    4d16:	d005      	beq.n	4d24 <__sfputc_r+0x24>
    4d18:	6813      	ldr	r3, [r2, #0]
    4d1a:	1c58      	adds	r0, r3, #1
    4d1c:	6010      	str	r0, [r2, #0]
    4d1e:	7019      	strb	r1, [r3, #0]
    4d20:	b2c8      	uxtb	r0, r1
    4d22:	e001      	b.n	4d28 <__sfputc_r+0x28>
    4d24:	f000 fb08 	bl	5338 <__swbuf_r>
    4d28:	bd10      	pop	{r4, pc}

00004d2a <__sfputs_r>:
    4d2a:	b5f8      	push	{r3, r4, r5, r6, r7, lr}
    4d2c:	1c06      	adds	r6, r0, #0
    4d2e:	1c0f      	adds	r7, r1, #0
    4d30:	1c14      	adds	r4, r2, #0
    4d32:	18d5      	adds	r5, r2, r3
    4d34:	42ac      	cmp	r4, r5
    4d36:	d008      	beq.n	4d4a <__sfputs_r+0x20>
    4d38:	7821      	ldrb	r1, [r4, #0]
    4d3a:	1c30      	adds	r0, r6, #0
    4d3c:	1c3a      	adds	r2, r7, #0
    4d3e:	f7ff ffdf 	bl	4d00 <__sfputc_r>
    4d42:	3401      	adds	r4, #1
    4d44:	1c43      	adds	r3, r0, #1
    4d46:	d1f5      	bne.n	4d34 <__sfputs_r+0xa>
    4d48:	e000      	b.n	4d4c <__sfputs_r+0x22>
    4d4a:	2000      	movs	r0, #0
    4d4c:	bdf8      	pop	{r3, r4, r5, r6, r7, pc}
	...

00004d50 <_vfiprintf_r>:
    4d50:	b5f0      	push	{r4, r5, r6, r7, lr}
    4d52:	b09f      	sub	sp, #124	; 0x7c
    4d54:	1c06      	adds	r6, r0, #0
    4d56:	1c0f      	adds	r7, r1, #0
    4d58:	9202      	str	r2, [sp, #8]
    4d5a:	9305      	str	r3, [sp, #20]
    4d5c:	2800      	cmp	r0, #0
    4d5e:	d004      	beq.n	4d6a <_vfiprintf_r+0x1a>
    4d60:	6983      	ldr	r3, [r0, #24]
    4d62:	2b00      	cmp	r3, #0
    4d64:	d101      	bne.n	4d6a <_vfiprintf_r+0x1a>
    4d66:	f7ff fe91 	bl	4a8c <__sinit>
    4d6a:	4b79      	ldr	r3, [pc, #484]	; (4f50 <_vfiprintf_r+0x200>)
    4d6c:	429f      	cmp	r7, r3
    4d6e:	d101      	bne.n	4d74 <_vfiprintf_r+0x24>
    4d70:	6877      	ldr	r7, [r6, #4]
    4d72:	e008      	b.n	4d86 <_vfiprintf_r+0x36>
    4d74:	4b77      	ldr	r3, [pc, #476]	; (4f54 <_vfiprintf_r+0x204>)
    4d76:	429f      	cmp	r7, r3
    4d78:	d101      	bne.n	4d7e <_vfiprintf_r+0x2e>
    4d7a:	68b7      	ldr	r7, [r6, #8]
    4d7c:	e003      	b.n	4d86 <_vfiprintf_r+0x36>
    4d7e:	4b76      	ldr	r3, [pc, #472]	; (4f58 <_vfiprintf_r+0x208>)
    4d80:	429f      	cmp	r7, r3
    4d82:	d100      	bne.n	4d86 <_vfiprintf_r+0x36>
    4d84:	68f7      	ldr	r7, [r6, #12]
    4d86:	89bb      	ldrh	r3, [r7, #12]
    4d88:	071b      	lsls	r3, r3, #28
    4d8a:	d50a      	bpl.n	4da2 <_vfiprintf_r+0x52>
    4d8c:	693b      	ldr	r3, [r7, #16]
    4d8e:	2b00      	cmp	r3, #0
    4d90:	d007      	beq.n	4da2 <_vfiprintf_r+0x52>
    4d92:	2300      	movs	r3, #0
    4d94:	ad06      	add	r5, sp, #24
    4d96:	616b      	str	r3, [r5, #20]
    4d98:	3320      	adds	r3, #32
    4d9a:	766b      	strb	r3, [r5, #25]
    4d9c:	3310      	adds	r3, #16
    4d9e:	76ab      	strb	r3, [r5, #26]
    4da0:	e03d      	b.n	4e1e <_vfiprintf_r+0xce>
    4da2:	1c30      	adds	r0, r6, #0
    4da4:	1c39      	adds	r1, r7, #0
    4da6:	f000 fb33 	bl	5410 <__swsetup_r>
    4daa:	2800      	cmp	r0, #0
    4dac:	d0f1      	beq.n	4d92 <_vfiprintf_r+0x42>
    4dae:	2001      	movs	r0, #1
    4db0:	4240      	negs	r0, r0
    4db2:	e0ca      	b.n	4f4a <_vfiprintf_r+0x1fa>
    4db4:	9a05      	ldr	r2, [sp, #20]
    4db6:	1d11      	adds	r1, r2, #4
    4db8:	6812      	ldr	r2, [r2, #0]
    4dba:	9105      	str	r1, [sp, #20]
    4dbc:	2a00      	cmp	r2, #0
    4dbe:	db7e      	blt.n	4ebe <_vfiprintf_r+0x16e>
    4dc0:	9209      	str	r2, [sp, #36]	; 0x24
    4dc2:	3401      	adds	r4, #1
    4dc4:	7823      	ldrb	r3, [r4, #0]
    4dc6:	2b2e      	cmp	r3, #46	; 0x2e
    4dc8:	d100      	bne.n	4dcc <_vfiprintf_r+0x7c>
    4dca:	e089      	b.n	4ee0 <_vfiprintf_r+0x190>
    4dcc:	7821      	ldrb	r1, [r4, #0]
    4dce:	4863      	ldr	r0, [pc, #396]	; (4f5c <_vfiprintf_r+0x20c>)
    4dd0:	2203      	movs	r2, #3
    4dd2:	f000 fc0f 	bl	55f4 <memchr>
    4dd6:	2800      	cmp	r0, #0
    4dd8:	d008      	beq.n	4dec <_vfiprintf_r+0x9c>
    4dda:	4b60      	ldr	r3, [pc, #384]	; (4f5c <_vfiprintf_r+0x20c>)
    4ddc:	3401      	adds	r4, #1
    4dde:	1ac0      	subs	r0, r0, r3
    4de0:	2340      	movs	r3, #64	; 0x40
    4de2:	4083      	lsls	r3, r0
    4de4:	1c18      	adds	r0, r3, #0
    4de6:	682b      	ldr	r3, [r5, #0]
    4de8:	4318      	orrs	r0, r3
    4dea:	6028      	str	r0, [r5, #0]
    4dec:	7821      	ldrb	r1, [r4, #0]
    4dee:	1c63      	adds	r3, r4, #1
    4df0:	485b      	ldr	r0, [pc, #364]	; (4f60 <_vfiprintf_r+0x210>)
    4df2:	2206      	movs	r2, #6
    4df4:	9302      	str	r3, [sp, #8]
    4df6:	7629      	strb	r1, [r5, #24]
    4df8:	f000 fbfc 	bl	55f4 <memchr>
    4dfc:	2800      	cmp	r0, #0
    4dfe:	d100      	bne.n	4e02 <_vfiprintf_r+0xb2>
    4e00:	e091      	b.n	4f26 <_vfiprintf_r+0x1d6>
    4e02:	4b58      	ldr	r3, [pc, #352]	; (4f64 <_vfiprintf_r+0x214>)
    4e04:	2b00      	cmp	r3, #0
    4e06:	d000      	beq.n	4e0a <_vfiprintf_r+0xba>
    4e08:	e084      	b.n	4f14 <_vfiprintf_r+0x1c4>
    4e0a:	2207      	movs	r2, #7
    4e0c:	9b05      	ldr	r3, [sp, #20]
    4e0e:	3307      	adds	r3, #7
    4e10:	4393      	bics	r3, r2
    4e12:	3308      	adds	r3, #8
    4e14:	9305      	str	r3, [sp, #20]
    4e16:	696b      	ldr	r3, [r5, #20]
    4e18:	9a03      	ldr	r2, [sp, #12]
    4e1a:	189b      	adds	r3, r3, r2
    4e1c:	616b      	str	r3, [r5, #20]
    4e1e:	9c02      	ldr	r4, [sp, #8]
    4e20:	7823      	ldrb	r3, [r4, #0]
    4e22:	2b00      	cmp	r3, #0
    4e24:	d104      	bne.n	4e30 <_vfiprintf_r+0xe0>
    4e26:	9b02      	ldr	r3, [sp, #8]
    4e28:	1ae3      	subs	r3, r4, r3
    4e2a:	9304      	str	r3, [sp, #16]
    4e2c:	d011      	beq.n	4e52 <_vfiprintf_r+0x102>
    4e2e:	e003      	b.n	4e38 <_vfiprintf_r+0xe8>
    4e30:	2b25      	cmp	r3, #37	; 0x25
    4e32:	d0f8      	beq.n	4e26 <_vfiprintf_r+0xd6>
    4e34:	3401      	adds	r4, #1
    4e36:	e7f3      	b.n	4e20 <_vfiprintf_r+0xd0>
    4e38:	9b04      	ldr	r3, [sp, #16]
    4e3a:	1c30      	adds	r0, r6, #0
    4e3c:	1c39      	adds	r1, r7, #0
    4e3e:	9a02      	ldr	r2, [sp, #8]
    4e40:	f7ff ff73 	bl	4d2a <__sfputs_r>
    4e44:	1c43      	adds	r3, r0, #1
    4e46:	d07b      	beq.n	4f40 <_vfiprintf_r+0x1f0>
    4e48:	696a      	ldr	r2, [r5, #20]
    4e4a:	9b04      	ldr	r3, [sp, #16]
    4e4c:	4694      	mov	ip, r2
    4e4e:	4463      	add	r3, ip
    4e50:	616b      	str	r3, [r5, #20]
    4e52:	7823      	ldrb	r3, [r4, #0]
    4e54:	2b00      	cmp	r3, #0
    4e56:	d073      	beq.n	4f40 <_vfiprintf_r+0x1f0>
    4e58:	2201      	movs	r2, #1
    4e5a:	2300      	movs	r3, #0
    4e5c:	4252      	negs	r2, r2
    4e5e:	606a      	str	r2, [r5, #4]
    4e60:	a902      	add	r1, sp, #8
    4e62:	3254      	adds	r2, #84	; 0x54
    4e64:	1852      	adds	r2, r2, r1
    4e66:	3401      	adds	r4, #1
    4e68:	602b      	str	r3, [r5, #0]
    4e6a:	60eb      	str	r3, [r5, #12]
    4e6c:	60ab      	str	r3, [r5, #8]
    4e6e:	7013      	strb	r3, [r2, #0]
    4e70:	65ab      	str	r3, [r5, #88]	; 0x58
    4e72:	7821      	ldrb	r1, [r4, #0]
    4e74:	483c      	ldr	r0, [pc, #240]	; (4f68 <_vfiprintf_r+0x218>)
    4e76:	2205      	movs	r2, #5
    4e78:	f000 fbbc 	bl	55f4 <memchr>
    4e7c:	2800      	cmp	r0, #0
    4e7e:	d009      	beq.n	4e94 <_vfiprintf_r+0x144>
    4e80:	4b39      	ldr	r3, [pc, #228]	; (4f68 <_vfiprintf_r+0x218>)
    4e82:	3401      	adds	r4, #1
    4e84:	1ac0      	subs	r0, r0, r3
    4e86:	2301      	movs	r3, #1
    4e88:	4083      	lsls	r3, r0
    4e8a:	1c18      	adds	r0, r3, #0
    4e8c:	682b      	ldr	r3, [r5, #0]
    4e8e:	4318      	orrs	r0, r3
    4e90:	6028      	str	r0, [r5, #0]
    4e92:	e7ee      	b.n	4e72 <_vfiprintf_r+0x122>
    4e94:	682b      	ldr	r3, [r5, #0]
    4e96:	06da      	lsls	r2, r3, #27
    4e98:	d504      	bpl.n	4ea4 <_vfiprintf_r+0x154>
    4e9a:	2253      	movs	r2, #83	; 0x53
    4e9c:	2120      	movs	r1, #32
    4e9e:	a802      	add	r0, sp, #8
    4ea0:	1812      	adds	r2, r2, r0
    4ea2:	7011      	strb	r1, [r2, #0]
    4ea4:	071a      	lsls	r2, r3, #28
    4ea6:	d504      	bpl.n	4eb2 <_vfiprintf_r+0x162>
    4ea8:	2253      	movs	r2, #83	; 0x53
    4eaa:	212b      	movs	r1, #43	; 0x2b
    4eac:	a802      	add	r0, sp, #8
    4eae:	1812      	adds	r2, r2, r0
    4eb0:	7011      	strb	r1, [r2, #0]
    4eb2:	7822      	ldrb	r2, [r4, #0]
    4eb4:	2a2a      	cmp	r2, #42	; 0x2a
    4eb6:	d100      	bne.n	4eba <_vfiprintf_r+0x16a>
    4eb8:	e77c      	b.n	4db4 <_vfiprintf_r+0x64>
    4eba:	9b09      	ldr	r3, [sp, #36]	; 0x24
    4ebc:	e005      	b.n	4eca <_vfiprintf_r+0x17a>
    4ebe:	4252      	negs	r2, r2
    4ec0:	60ea      	str	r2, [r5, #12]
    4ec2:	2202      	movs	r2, #2
    4ec4:	4313      	orrs	r3, r2
    4ec6:	602b      	str	r3, [r5, #0]
    4ec8:	e77b      	b.n	4dc2 <_vfiprintf_r+0x72>
    4eca:	7822      	ldrb	r2, [r4, #0]
    4ecc:	3a30      	subs	r2, #48	; 0x30
    4ece:	2a09      	cmp	r2, #9
    4ed0:	d804      	bhi.n	4edc <_vfiprintf_r+0x18c>
    4ed2:	210a      	movs	r1, #10
    4ed4:	434b      	muls	r3, r1
    4ed6:	3401      	adds	r4, #1
    4ed8:	189b      	adds	r3, r3, r2
    4eda:	e7f6      	b.n	4eca <_vfiprintf_r+0x17a>
    4edc:	9309      	str	r3, [sp, #36]	; 0x24
    4ede:	e771      	b.n	4dc4 <_vfiprintf_r+0x74>
    4ee0:	7863      	ldrb	r3, [r4, #1]
    4ee2:	2b2a      	cmp	r3, #42	; 0x2a
    4ee4:	d109      	bne.n	4efa <_vfiprintf_r+0x1aa>
    4ee6:	9b05      	ldr	r3, [sp, #20]
    4ee8:	3402      	adds	r4, #2
    4eea:	1d1a      	adds	r2, r3, #4
    4eec:	681b      	ldr	r3, [r3, #0]
    4eee:	9205      	str	r2, [sp, #20]
    4ef0:	2b00      	cmp	r3, #0
    4ef2:	da0d      	bge.n	4f10 <_vfiprintf_r+0x1c0>
    4ef4:	2301      	movs	r3, #1
    4ef6:	425b      	negs	r3, r3
    4ef8:	e00a      	b.n	4f10 <_vfiprintf_r+0x1c0>
    4efa:	2300      	movs	r3, #0
    4efc:	3401      	adds	r4, #1
    4efe:	7822      	ldrb	r2, [r4, #0]
    4f00:	3a30      	subs	r2, #48	; 0x30
    4f02:	2a09      	cmp	r2, #9
    4f04:	d804      	bhi.n	4f10 <_vfiprintf_r+0x1c0>
    4f06:	210a      	movs	r1, #10
    4f08:	434b      	muls	r3, r1
    4f0a:	3401      	adds	r4, #1
    4f0c:	189b      	adds	r3, r3, r2
    4f0e:	e7f6      	b.n	4efe <_vfiprintf_r+0x1ae>
    4f10:	9307      	str	r3, [sp, #28]
    4f12:	e75b      	b.n	4dcc <_vfiprintf_r+0x7c>
    4f14:	ab05      	add	r3, sp, #20
    4f16:	9300      	str	r3, [sp, #0]
    4f18:	1c30      	adds	r0, r6, #0
    4f1a:	1c29      	adds	r1, r5, #0
    4f1c:	1c3a      	adds	r2, r7, #0
    4f1e:	4b13      	ldr	r3, [pc, #76]	; (4f6c <_vfiprintf_r+0x21c>)
    4f20:	e000      	b.n	4f24 <_vfiprintf_r+0x1d4>
    4f22:	bf00      	nop
    4f24:	e007      	b.n	4f36 <_vfiprintf_r+0x1e6>
    4f26:	ab05      	add	r3, sp, #20
    4f28:	9300      	str	r3, [sp, #0]
    4f2a:	1c30      	adds	r0, r6, #0
    4f2c:	1c29      	adds	r1, r5, #0
    4f2e:	1c3a      	adds	r2, r7, #0
    4f30:	4b0e      	ldr	r3, [pc, #56]	; (4f6c <_vfiprintf_r+0x21c>)
    4f32:	f000 f88b 	bl	504c <_printf_i>
    4f36:	9003      	str	r0, [sp, #12]
    4f38:	9b03      	ldr	r3, [sp, #12]
    4f3a:	3301      	adds	r3, #1
    4f3c:	d000      	beq.n	4f40 <_vfiprintf_r+0x1f0>
    4f3e:	e76a      	b.n	4e16 <_vfiprintf_r+0xc6>
    4f40:	89bb      	ldrh	r3, [r7, #12]
    4f42:	065b      	lsls	r3, r3, #25
    4f44:	d500      	bpl.n	4f48 <_vfiprintf_r+0x1f8>
    4f46:	e732      	b.n	4dae <_vfiprintf_r+0x5e>
    4f48:	980b      	ldr	r0, [sp, #44]	; 0x2c
    4f4a:	b01f      	add	sp, #124	; 0x7c
    4f4c:	bdf0      	pop	{r4, r5, r6, r7, pc}
    4f4e:	46c0      	nop			; (mov r8, r8)
    4f50:	000057d8 	.word	0x000057d8
    4f54:	000057f8 	.word	0x000057f8
    4f58:	00005818 	.word	0x00005818
    4f5c:	0000583e 	.word	0x0000583e
    4f60:	00005842 	.word	0x00005842
    4f64:	00000000 	.word	0x00000000
    4f68:	00005838 	.word	0x00005838
    4f6c:	00004d2b 	.word	0x00004d2b

00004f70 <_printf_common>:
    4f70:	b5f7      	push	{r0, r1, r2, r4, r5, r6, r7, lr}
    4f72:	1c17      	adds	r7, r2, #0
    4f74:	9301      	str	r3, [sp, #4]
    4f76:	690a      	ldr	r2, [r1, #16]
    4f78:	688b      	ldr	r3, [r1, #8]
    4f7a:	9000      	str	r0, [sp, #0]
    4f7c:	1c0c      	adds	r4, r1, #0
    4f7e:	4293      	cmp	r3, r2
    4f80:	da00      	bge.n	4f84 <_printf_common+0x14>
    4f82:	1c13      	adds	r3, r2, #0
    4f84:	1c22      	adds	r2, r4, #0
    4f86:	603b      	str	r3, [r7, #0]
    4f88:	3243      	adds	r2, #67	; 0x43
    4f8a:	7812      	ldrb	r2, [r2, #0]
    4f8c:	2a00      	cmp	r2, #0
    4f8e:	d001      	beq.n	4f94 <_printf_common+0x24>
    4f90:	3301      	adds	r3, #1
    4f92:	603b      	str	r3, [r7, #0]
    4f94:	6823      	ldr	r3, [r4, #0]
    4f96:	069b      	lsls	r3, r3, #26
    4f98:	d502      	bpl.n	4fa0 <_printf_common+0x30>
    4f9a:	683b      	ldr	r3, [r7, #0]
    4f9c:	3302      	adds	r3, #2
    4f9e:	603b      	str	r3, [r7, #0]
    4fa0:	2506      	movs	r5, #6
    4fa2:	6823      	ldr	r3, [r4, #0]
    4fa4:	401d      	ands	r5, r3
    4fa6:	d01e      	beq.n	4fe6 <_printf_common+0x76>
    4fa8:	1c23      	adds	r3, r4, #0
    4faa:	3343      	adds	r3, #67	; 0x43
    4fac:	781b      	ldrb	r3, [r3, #0]
    4fae:	1e5a      	subs	r2, r3, #1
    4fb0:	4193      	sbcs	r3, r2
    4fb2:	6822      	ldr	r2, [r4, #0]
    4fb4:	0692      	lsls	r2, r2, #26
    4fb6:	d51c      	bpl.n	4ff2 <_printf_common+0x82>
    4fb8:	2030      	movs	r0, #48	; 0x30
    4fba:	18e1      	adds	r1, r4, r3
    4fbc:	3140      	adds	r1, #64	; 0x40
    4fbe:	70c8      	strb	r0, [r1, #3]
    4fc0:	1c21      	adds	r1, r4, #0
    4fc2:	1c5a      	adds	r2, r3, #1
    4fc4:	3145      	adds	r1, #69	; 0x45
    4fc6:	7809      	ldrb	r1, [r1, #0]
    4fc8:	18a2      	adds	r2, r4, r2
    4fca:	3240      	adds	r2, #64	; 0x40
    4fcc:	3302      	adds	r3, #2
    4fce:	70d1      	strb	r1, [r2, #3]
    4fd0:	e00f      	b.n	4ff2 <_printf_common+0x82>
    4fd2:	1c22      	adds	r2, r4, #0
    4fd4:	2301      	movs	r3, #1
    4fd6:	9800      	ldr	r0, [sp, #0]
    4fd8:	9901      	ldr	r1, [sp, #4]
    4fda:	3219      	adds	r2, #25
    4fdc:	9e08      	ldr	r6, [sp, #32]
    4fde:	47b0      	blx	r6
    4fe0:	1c43      	adds	r3, r0, #1
    4fe2:	d00e      	beq.n	5002 <_printf_common+0x92>
    4fe4:	3501      	adds	r5, #1
    4fe6:	68e3      	ldr	r3, [r4, #12]
    4fe8:	683a      	ldr	r2, [r7, #0]
    4fea:	1a9b      	subs	r3, r3, r2
    4fec:	429d      	cmp	r5, r3
    4fee:	dbf0      	blt.n	4fd2 <_printf_common+0x62>
    4ff0:	e7da      	b.n	4fa8 <_printf_common+0x38>
    4ff2:	1c22      	adds	r2, r4, #0
    4ff4:	9800      	ldr	r0, [sp, #0]
    4ff6:	9901      	ldr	r1, [sp, #4]
    4ff8:	3243      	adds	r2, #67	; 0x43
    4ffa:	9d08      	ldr	r5, [sp, #32]
    4ffc:	47a8      	blx	r5
    4ffe:	1c43      	adds	r3, r0, #1
    5000:	d102      	bne.n	5008 <_printf_common+0x98>
    5002:	2001      	movs	r0, #1
    5004:	4240      	negs	r0, r0
    5006:	e020      	b.n	504a <_printf_common+0xda>
    5008:	2306      	movs	r3, #6
    500a:	6820      	ldr	r0, [r4, #0]
    500c:	68e1      	ldr	r1, [r4, #12]
    500e:	683a      	ldr	r2, [r7, #0]
    5010:	4003      	ands	r3, r0
    5012:	2500      	movs	r5, #0
    5014:	2b04      	cmp	r3, #4
    5016:	d103      	bne.n	5020 <_printf_common+0xb0>
    5018:	1a8d      	subs	r5, r1, r2
    501a:	43eb      	mvns	r3, r5
    501c:	17db      	asrs	r3, r3, #31
    501e:	401d      	ands	r5, r3
    5020:	68a3      	ldr	r3, [r4, #8]
    5022:	6922      	ldr	r2, [r4, #16]
    5024:	4293      	cmp	r3, r2
    5026:	dd01      	ble.n	502c <_printf_common+0xbc>
    5028:	1a9b      	subs	r3, r3, r2
    502a:	18ed      	adds	r5, r5, r3
    502c:	2700      	movs	r7, #0
    502e:	42af      	cmp	r7, r5
    5030:	da0a      	bge.n	5048 <_printf_common+0xd8>
    5032:	1c22      	adds	r2, r4, #0
    5034:	2301      	movs	r3, #1
    5036:	9800      	ldr	r0, [sp, #0]
    5038:	9901      	ldr	r1, [sp, #4]
    503a:	321a      	adds	r2, #26
    503c:	9e08      	ldr	r6, [sp, #32]
    503e:	47b0      	blx	r6
    5040:	1c43      	adds	r3, r0, #1
    5042:	d0de      	beq.n	5002 <_printf_common+0x92>
    5044:	3701      	adds	r7, #1
    5046:	e7f2      	b.n	502e <_printf_common+0xbe>
    5048:	2000      	movs	r0, #0
    504a:	bdfe      	pop	{r1, r2, r3, r4, r5, r6, r7, pc}

0000504c <_printf_i>:
    504c:	b5f0      	push	{r4, r5, r6, r7, lr}
    504e:	b08b      	sub	sp, #44	; 0x2c
    5050:	9206      	str	r2, [sp, #24]
    5052:	1c0a      	adds	r2, r1, #0
    5054:	3243      	adds	r2, #67	; 0x43
    5056:	9307      	str	r3, [sp, #28]
    5058:	9005      	str	r0, [sp, #20]
    505a:	9204      	str	r2, [sp, #16]
    505c:	7e0a      	ldrb	r2, [r1, #24]
    505e:	1c0c      	adds	r4, r1, #0
    5060:	9b10      	ldr	r3, [sp, #64]	; 0x40
    5062:	2a6e      	cmp	r2, #110	; 0x6e
    5064:	d100      	bne.n	5068 <_printf_i+0x1c>
    5066:	e0a8      	b.n	51ba <_printf_i+0x16e>
    5068:	d811      	bhi.n	508e <_printf_i+0x42>
    506a:	2a63      	cmp	r2, #99	; 0x63
    506c:	d022      	beq.n	50b4 <_printf_i+0x68>
    506e:	d809      	bhi.n	5084 <_printf_i+0x38>
    5070:	2a00      	cmp	r2, #0
    5072:	d100      	bne.n	5076 <_printf_i+0x2a>
    5074:	e0b2      	b.n	51dc <_printf_i+0x190>
    5076:	2a58      	cmp	r2, #88	; 0x58
    5078:	d000      	beq.n	507c <_printf_i+0x30>
    507a:	e0c2      	b.n	5202 <_printf_i+0x1b6>
    507c:	3145      	adds	r1, #69	; 0x45
    507e:	700a      	strb	r2, [r1, #0]
    5080:	4a7c      	ldr	r2, [pc, #496]	; (5274 <_printf_i+0x228>)
    5082:	e04f      	b.n	5124 <_printf_i+0xd8>
    5084:	2a64      	cmp	r2, #100	; 0x64
    5086:	d01d      	beq.n	50c4 <_printf_i+0x78>
    5088:	2a69      	cmp	r2, #105	; 0x69
    508a:	d01b      	beq.n	50c4 <_printf_i+0x78>
    508c:	e0b9      	b.n	5202 <_printf_i+0x1b6>
    508e:	2a73      	cmp	r2, #115	; 0x73
    5090:	d100      	bne.n	5094 <_printf_i+0x48>
    5092:	e0a7      	b.n	51e4 <_printf_i+0x198>
    5094:	d809      	bhi.n	50aa <_printf_i+0x5e>
    5096:	2a6f      	cmp	r2, #111	; 0x6f
    5098:	d029      	beq.n	50ee <_printf_i+0xa2>
    509a:	2a70      	cmp	r2, #112	; 0x70
    509c:	d000      	beq.n	50a0 <_printf_i+0x54>
    509e:	e0b0      	b.n	5202 <_printf_i+0x1b6>
    50a0:	2220      	movs	r2, #32
    50a2:	6809      	ldr	r1, [r1, #0]
    50a4:	430a      	orrs	r2, r1
    50a6:	6022      	str	r2, [r4, #0]
    50a8:	e037      	b.n	511a <_printf_i+0xce>
    50aa:	2a75      	cmp	r2, #117	; 0x75
    50ac:	d01f      	beq.n	50ee <_printf_i+0xa2>
    50ae:	2a78      	cmp	r2, #120	; 0x78
    50b0:	d033      	beq.n	511a <_printf_i+0xce>
    50b2:	e0a6      	b.n	5202 <_printf_i+0x1b6>
    50b4:	1c0e      	adds	r6, r1, #0
    50b6:	681a      	ldr	r2, [r3, #0]
    50b8:	3642      	adds	r6, #66	; 0x42
    50ba:	1d11      	adds	r1, r2, #4
    50bc:	6019      	str	r1, [r3, #0]
    50be:	6813      	ldr	r3, [r2, #0]
    50c0:	7033      	strb	r3, [r6, #0]
    50c2:	e0a1      	b.n	5208 <_printf_i+0x1bc>
    50c4:	6821      	ldr	r1, [r4, #0]
    50c6:	681a      	ldr	r2, [r3, #0]
    50c8:	0608      	lsls	r0, r1, #24
    50ca:	d406      	bmi.n	50da <_printf_i+0x8e>
    50cc:	0649      	lsls	r1, r1, #25
    50ce:	d504      	bpl.n	50da <_printf_i+0x8e>
    50d0:	1d11      	adds	r1, r2, #4
    50d2:	6019      	str	r1, [r3, #0]
    50d4:	2300      	movs	r3, #0
    50d6:	5ed5      	ldrsh	r5, [r2, r3]
    50d8:	e002      	b.n	50e0 <_printf_i+0x94>
    50da:	1d11      	adds	r1, r2, #4
    50dc:	6019      	str	r1, [r3, #0]
    50de:	6815      	ldr	r5, [r2, #0]
    50e0:	2d00      	cmp	r5, #0
    50e2:	da3b      	bge.n	515c <_printf_i+0x110>
    50e4:	232d      	movs	r3, #45	; 0x2d
    50e6:	9a04      	ldr	r2, [sp, #16]
    50e8:	426d      	negs	r5, r5
    50ea:	7013      	strb	r3, [r2, #0]
    50ec:	e036      	b.n	515c <_printf_i+0x110>
    50ee:	6821      	ldr	r1, [r4, #0]
    50f0:	681a      	ldr	r2, [r3, #0]
    50f2:	0608      	lsls	r0, r1, #24
    50f4:	d406      	bmi.n	5104 <_printf_i+0xb8>
    50f6:	0649      	lsls	r1, r1, #25
    50f8:	d504      	bpl.n	5104 <_printf_i+0xb8>
    50fa:	6815      	ldr	r5, [r2, #0]
    50fc:	1d11      	adds	r1, r2, #4
    50fe:	6019      	str	r1, [r3, #0]
    5100:	b2ad      	uxth	r5, r5
    5102:	e002      	b.n	510a <_printf_i+0xbe>
    5104:	1d11      	adds	r1, r2, #4
    5106:	6019      	str	r1, [r3, #0]
    5108:	6815      	ldr	r5, [r2, #0]
    510a:	4b5a      	ldr	r3, [pc, #360]	; (5274 <_printf_i+0x228>)
    510c:	7e22      	ldrb	r2, [r4, #24]
    510e:	9303      	str	r3, [sp, #12]
    5110:	270a      	movs	r7, #10
    5112:	2a6f      	cmp	r2, #111	; 0x6f
    5114:	d11d      	bne.n	5152 <_printf_i+0x106>
    5116:	2708      	movs	r7, #8
    5118:	e01b      	b.n	5152 <_printf_i+0x106>
    511a:	1c22      	adds	r2, r4, #0
    511c:	2178      	movs	r1, #120	; 0x78
    511e:	3245      	adds	r2, #69	; 0x45
    5120:	7011      	strb	r1, [r2, #0]
    5122:	4a55      	ldr	r2, [pc, #340]	; (5278 <_printf_i+0x22c>)
    5124:	6819      	ldr	r1, [r3, #0]
    5126:	9203      	str	r2, [sp, #12]
    5128:	1d08      	adds	r0, r1, #4
    512a:	6822      	ldr	r2, [r4, #0]
    512c:	6018      	str	r0, [r3, #0]
    512e:	680d      	ldr	r5, [r1, #0]
    5130:	0610      	lsls	r0, r2, #24
    5132:	d402      	bmi.n	513a <_printf_i+0xee>
    5134:	0650      	lsls	r0, r2, #25
    5136:	d500      	bpl.n	513a <_printf_i+0xee>
    5138:	b2ad      	uxth	r5, r5
    513a:	07d3      	lsls	r3, r2, #31
    513c:	d502      	bpl.n	5144 <_printf_i+0xf8>
    513e:	2320      	movs	r3, #32
    5140:	431a      	orrs	r2, r3
    5142:	6022      	str	r2, [r4, #0]
    5144:	2710      	movs	r7, #16
    5146:	2d00      	cmp	r5, #0
    5148:	d103      	bne.n	5152 <_printf_i+0x106>
    514a:	2320      	movs	r3, #32
    514c:	6822      	ldr	r2, [r4, #0]
    514e:	439a      	bics	r2, r3
    5150:	6022      	str	r2, [r4, #0]
    5152:	1c23      	adds	r3, r4, #0
    5154:	2200      	movs	r2, #0
    5156:	3343      	adds	r3, #67	; 0x43
    5158:	701a      	strb	r2, [r3, #0]
    515a:	e002      	b.n	5162 <_printf_i+0x116>
    515c:	270a      	movs	r7, #10
    515e:	4b45      	ldr	r3, [pc, #276]	; (5274 <_printf_i+0x228>)
    5160:	9303      	str	r3, [sp, #12]
    5162:	6863      	ldr	r3, [r4, #4]
    5164:	60a3      	str	r3, [r4, #8]
    5166:	2b00      	cmp	r3, #0
    5168:	db03      	blt.n	5172 <_printf_i+0x126>
    516a:	2204      	movs	r2, #4
    516c:	6821      	ldr	r1, [r4, #0]
    516e:	4391      	bics	r1, r2
    5170:	6021      	str	r1, [r4, #0]
    5172:	2d00      	cmp	r5, #0
    5174:	d102      	bne.n	517c <_printf_i+0x130>
    5176:	9e04      	ldr	r6, [sp, #16]
    5178:	2b00      	cmp	r3, #0
    517a:	d00e      	beq.n	519a <_printf_i+0x14e>
    517c:	9e04      	ldr	r6, [sp, #16]
    517e:	1c28      	adds	r0, r5, #0
    5180:	1c39      	adds	r1, r7, #0
    5182:	f7fe fb15 	bl	37b0 <__aeabi_uidivmod>
    5186:	9b03      	ldr	r3, [sp, #12]
    5188:	3e01      	subs	r6, #1
    518a:	5c5b      	ldrb	r3, [r3, r1]
    518c:	1c28      	adds	r0, r5, #0
    518e:	7033      	strb	r3, [r6, #0]
    5190:	1c39      	adds	r1, r7, #0
    5192:	f7fe fa87 	bl	36a4 <__aeabi_uidiv>
    5196:	1e05      	subs	r5, r0, #0
    5198:	d1f1      	bne.n	517e <_printf_i+0x132>
    519a:	2f08      	cmp	r7, #8
    519c:	d109      	bne.n	51b2 <_printf_i+0x166>
    519e:	6823      	ldr	r3, [r4, #0]
    51a0:	07db      	lsls	r3, r3, #31
    51a2:	d506      	bpl.n	51b2 <_printf_i+0x166>
    51a4:	6863      	ldr	r3, [r4, #4]
    51a6:	6922      	ldr	r2, [r4, #16]
    51a8:	4293      	cmp	r3, r2
    51aa:	dc02      	bgt.n	51b2 <_printf_i+0x166>
    51ac:	2330      	movs	r3, #48	; 0x30
    51ae:	3e01      	subs	r6, #1
    51b0:	7033      	strb	r3, [r6, #0]
    51b2:	9b04      	ldr	r3, [sp, #16]
    51b4:	1b9b      	subs	r3, r3, r6
    51b6:	6123      	str	r3, [r4, #16]
    51b8:	e02b      	b.n	5212 <_printf_i+0x1c6>
    51ba:	6809      	ldr	r1, [r1, #0]
    51bc:	681a      	ldr	r2, [r3, #0]
    51be:	0608      	lsls	r0, r1, #24
    51c0:	d407      	bmi.n	51d2 <_printf_i+0x186>
    51c2:	0649      	lsls	r1, r1, #25
    51c4:	d505      	bpl.n	51d2 <_printf_i+0x186>
    51c6:	1d11      	adds	r1, r2, #4
    51c8:	6019      	str	r1, [r3, #0]
    51ca:	6813      	ldr	r3, [r2, #0]
    51cc:	8aa2      	ldrh	r2, [r4, #20]
    51ce:	801a      	strh	r2, [r3, #0]
    51d0:	e004      	b.n	51dc <_printf_i+0x190>
    51d2:	1d11      	adds	r1, r2, #4
    51d4:	6019      	str	r1, [r3, #0]
    51d6:	6813      	ldr	r3, [r2, #0]
    51d8:	6962      	ldr	r2, [r4, #20]
    51da:	601a      	str	r2, [r3, #0]
    51dc:	2300      	movs	r3, #0
    51de:	9e04      	ldr	r6, [sp, #16]
    51e0:	6123      	str	r3, [r4, #16]
    51e2:	e016      	b.n	5212 <_printf_i+0x1c6>
    51e4:	681a      	ldr	r2, [r3, #0]
    51e6:	1d11      	adds	r1, r2, #4
    51e8:	6019      	str	r1, [r3, #0]
    51ea:	6816      	ldr	r6, [r2, #0]
    51ec:	2100      	movs	r1, #0
    51ee:	1c30      	adds	r0, r6, #0
    51f0:	6862      	ldr	r2, [r4, #4]
    51f2:	f000 f9ff 	bl	55f4 <memchr>
    51f6:	2800      	cmp	r0, #0
    51f8:	d001      	beq.n	51fe <_printf_i+0x1b2>
    51fa:	1b80      	subs	r0, r0, r6
    51fc:	6060      	str	r0, [r4, #4]
    51fe:	6863      	ldr	r3, [r4, #4]
    5200:	e003      	b.n	520a <_printf_i+0x1be>
    5202:	1c26      	adds	r6, r4, #0
    5204:	3642      	adds	r6, #66	; 0x42
    5206:	7032      	strb	r2, [r6, #0]
    5208:	2301      	movs	r3, #1
    520a:	6123      	str	r3, [r4, #16]
    520c:	2300      	movs	r3, #0
    520e:	9a04      	ldr	r2, [sp, #16]
    5210:	7013      	strb	r3, [r2, #0]
    5212:	9b07      	ldr	r3, [sp, #28]
    5214:	9805      	ldr	r0, [sp, #20]
    5216:	9300      	str	r3, [sp, #0]
    5218:	1c21      	adds	r1, r4, #0
    521a:	9b06      	ldr	r3, [sp, #24]
    521c:	aa09      	add	r2, sp, #36	; 0x24
    521e:	f7ff fea7 	bl	4f70 <_printf_common>
    5222:	1c43      	adds	r3, r0, #1
    5224:	d102      	bne.n	522c <_printf_i+0x1e0>
    5226:	2001      	movs	r0, #1
    5228:	4240      	negs	r0, r0
    522a:	e021      	b.n	5270 <_printf_i+0x224>
    522c:	6923      	ldr	r3, [r4, #16]
    522e:	9805      	ldr	r0, [sp, #20]
    5230:	9906      	ldr	r1, [sp, #24]
    5232:	1c32      	adds	r2, r6, #0
    5234:	9d07      	ldr	r5, [sp, #28]
    5236:	47a8      	blx	r5
    5238:	1c43      	adds	r3, r0, #1
    523a:	d0f4      	beq.n	5226 <_printf_i+0x1da>
    523c:	6823      	ldr	r3, [r4, #0]
    523e:	079b      	lsls	r3, r3, #30
    5240:	d405      	bmi.n	524e <_printf_i+0x202>
    5242:	9b09      	ldr	r3, [sp, #36]	; 0x24
    5244:	68e0      	ldr	r0, [r4, #12]
    5246:	4298      	cmp	r0, r3
    5248:	da12      	bge.n	5270 <_printf_i+0x224>
    524a:	1c18      	adds	r0, r3, #0
    524c:	e010      	b.n	5270 <_printf_i+0x224>
    524e:	2500      	movs	r5, #0
    5250:	68e3      	ldr	r3, [r4, #12]
    5252:	9a09      	ldr	r2, [sp, #36]	; 0x24
    5254:	1a9b      	subs	r3, r3, r2
    5256:	429d      	cmp	r5, r3
    5258:	daf3      	bge.n	5242 <_printf_i+0x1f6>
    525a:	1c22      	adds	r2, r4, #0
    525c:	2301      	movs	r3, #1
    525e:	9805      	ldr	r0, [sp, #20]
    5260:	9906      	ldr	r1, [sp, #24]
    5262:	3219      	adds	r2, #25
    5264:	9e07      	ldr	r6, [sp, #28]
    5266:	47b0      	blx	r6
    5268:	1c43      	adds	r3, r0, #1
    526a:	d0dc      	beq.n	5226 <_printf_i+0x1da>
    526c:	3501      	adds	r5, #1
    526e:	e7ef      	b.n	5250 <_printf_i+0x204>
    5270:	b00b      	add	sp, #44	; 0x2c
    5272:	bdf0      	pop	{r4, r5, r6, r7, pc}
    5274:	00005849 	.word	0x00005849
    5278:	0000585a 	.word	0x0000585a

0000527c <_sbrk_r>:
    527c:	b538      	push	{r3, r4, r5, lr}
    527e:	2300      	movs	r3, #0
    5280:	4c06      	ldr	r4, [pc, #24]	; (529c <_sbrk_r+0x20>)
    5282:	1c05      	adds	r5, r0, #0
    5284:	1c08      	adds	r0, r1, #0
    5286:	6023      	str	r3, [r4, #0]
    5288:	f7fd feee 	bl	3068 <_sbrk>
    528c:	1c43      	adds	r3, r0, #1
    528e:	d103      	bne.n	5298 <_sbrk_r+0x1c>
    5290:	6823      	ldr	r3, [r4, #0]
    5292:	2b00      	cmp	r3, #0
    5294:	d000      	beq.n	5298 <_sbrk_r+0x1c>
    5296:	602b      	str	r3, [r5, #0]
    5298:	bd38      	pop	{r3, r4, r5, pc}
    529a:	46c0      	nop			; (mov r8, r8)
    529c:	200001ec 	.word	0x200001ec

000052a0 <__sread>:
    52a0:	b538      	push	{r3, r4, r5, lr}
    52a2:	1c0c      	adds	r4, r1, #0
    52a4:	250e      	movs	r5, #14
    52a6:	5f49      	ldrsh	r1, [r1, r5]
    52a8:	f000 f9b0 	bl	560c <_read_r>
    52ac:	2800      	cmp	r0, #0
    52ae:	db03      	blt.n	52b8 <__sread+0x18>
    52b0:	6d63      	ldr	r3, [r4, #84]	; 0x54
    52b2:	181b      	adds	r3, r3, r0
    52b4:	6563      	str	r3, [r4, #84]	; 0x54
    52b6:	e003      	b.n	52c0 <__sread+0x20>
    52b8:	89a2      	ldrh	r2, [r4, #12]
    52ba:	4b02      	ldr	r3, [pc, #8]	; (52c4 <__sread+0x24>)
    52bc:	4013      	ands	r3, r2
    52be:	81a3      	strh	r3, [r4, #12]
    52c0:	bd38      	pop	{r3, r4, r5, pc}
    52c2:	46c0      	nop			; (mov r8, r8)
    52c4:	ffffefff 	.word	0xffffefff

000052c8 <__swrite>:
    52c8:	b5f8      	push	{r3, r4, r5, r6, r7, lr}
    52ca:	1c1e      	adds	r6, r3, #0
    52cc:	898b      	ldrh	r3, [r1, #12]
    52ce:	1c05      	adds	r5, r0, #0
    52d0:	1c0c      	adds	r4, r1, #0
    52d2:	1c17      	adds	r7, r2, #0
    52d4:	05db      	lsls	r3, r3, #23
    52d6:	d505      	bpl.n	52e4 <__swrite+0x1c>
    52d8:	230e      	movs	r3, #14
    52da:	5ec9      	ldrsh	r1, [r1, r3]
    52dc:	2200      	movs	r2, #0
    52de:	2302      	movs	r3, #2
    52e0:	f000 f91c 	bl	551c <_lseek_r>
    52e4:	89a2      	ldrh	r2, [r4, #12]
    52e6:	4b05      	ldr	r3, [pc, #20]	; (52fc <__swrite+0x34>)
    52e8:	1c28      	adds	r0, r5, #0
    52ea:	4013      	ands	r3, r2
    52ec:	81a3      	strh	r3, [r4, #12]
    52ee:	1c3a      	adds	r2, r7, #0
    52f0:	230e      	movs	r3, #14
    52f2:	5ee1      	ldrsh	r1, [r4, r3]
    52f4:	1c33      	adds	r3, r6, #0
    52f6:	f000 f877 	bl	53e8 <_write_r>
    52fa:	bdf8      	pop	{r3, r4, r5, r6, r7, pc}
    52fc:	ffffefff 	.word	0xffffefff

00005300 <__sseek>:
    5300:	b538      	push	{r3, r4, r5, lr}
    5302:	1c0c      	adds	r4, r1, #0
    5304:	250e      	movs	r5, #14
    5306:	5f49      	ldrsh	r1, [r1, r5]
    5308:	f000 f908 	bl	551c <_lseek_r>
    530c:	89a3      	ldrh	r3, [r4, #12]
    530e:	1c42      	adds	r2, r0, #1
    5310:	d103      	bne.n	531a <__sseek+0x1a>
    5312:	4a05      	ldr	r2, [pc, #20]	; (5328 <__sseek+0x28>)
    5314:	4013      	ands	r3, r2
    5316:	81a3      	strh	r3, [r4, #12]
    5318:	e004      	b.n	5324 <__sseek+0x24>
    531a:	2280      	movs	r2, #128	; 0x80
    531c:	0152      	lsls	r2, r2, #5
    531e:	4313      	orrs	r3, r2
    5320:	81a3      	strh	r3, [r4, #12]
    5322:	6560      	str	r0, [r4, #84]	; 0x54
    5324:	bd38      	pop	{r3, r4, r5, pc}
    5326:	46c0      	nop			; (mov r8, r8)
    5328:	ffffefff 	.word	0xffffefff

0000532c <__sclose>:
    532c:	b508      	push	{r3, lr}
    532e:	230e      	movs	r3, #14
    5330:	5ec9      	ldrsh	r1, [r1, r3]
    5332:	f000 f8e1 	bl	54f8 <_close_r>
    5336:	bd08      	pop	{r3, pc}

00005338 <__swbuf_r>:
    5338:	b570      	push	{r4, r5, r6, lr}
    533a:	1c05      	adds	r5, r0, #0
    533c:	1c0e      	adds	r6, r1, #0
    533e:	1c14      	adds	r4, r2, #0
    5340:	2800      	cmp	r0, #0
    5342:	d004      	beq.n	534e <__swbuf_r+0x16>
    5344:	6983      	ldr	r3, [r0, #24]
    5346:	2b00      	cmp	r3, #0
    5348:	d101      	bne.n	534e <__swbuf_r+0x16>
    534a:	f7ff fb9f 	bl	4a8c <__sinit>
    534e:	4b23      	ldr	r3, [pc, #140]	; (53dc <__swbuf_r+0xa4>)
    5350:	429c      	cmp	r4, r3
    5352:	d101      	bne.n	5358 <__swbuf_r+0x20>
    5354:	686c      	ldr	r4, [r5, #4]
    5356:	e008      	b.n	536a <__swbuf_r+0x32>
    5358:	4b21      	ldr	r3, [pc, #132]	; (53e0 <__swbuf_r+0xa8>)
    535a:	429c      	cmp	r4, r3
    535c:	d101      	bne.n	5362 <__swbuf_r+0x2a>
    535e:	68ac      	ldr	r4, [r5, #8]
    5360:	e003      	b.n	536a <__swbuf_r+0x32>
    5362:	4b20      	ldr	r3, [pc, #128]	; (53e4 <__swbuf_r+0xac>)
    5364:	429c      	cmp	r4, r3
    5366:	d100      	bne.n	536a <__swbuf_r+0x32>
    5368:	68ec      	ldr	r4, [r5, #12]
    536a:	69a3      	ldr	r3, [r4, #24]
    536c:	60a3      	str	r3, [r4, #8]
    536e:	89a3      	ldrh	r3, [r4, #12]
    5370:	071b      	lsls	r3, r3, #28
    5372:	d50a      	bpl.n	538a <__swbuf_r+0x52>
    5374:	6923      	ldr	r3, [r4, #16]
    5376:	2b00      	cmp	r3, #0
    5378:	d007      	beq.n	538a <__swbuf_r+0x52>
    537a:	6823      	ldr	r3, [r4, #0]
    537c:	6922      	ldr	r2, [r4, #16]
    537e:	b2f6      	uxtb	r6, r6
    5380:	1a98      	subs	r0, r3, r2
    5382:	6963      	ldr	r3, [r4, #20]
    5384:	4298      	cmp	r0, r3
    5386:	db0f      	blt.n	53a8 <__swbuf_r+0x70>
    5388:	e008      	b.n	539c <__swbuf_r+0x64>
    538a:	1c28      	adds	r0, r5, #0
    538c:	1c21      	adds	r1, r4, #0
    538e:	f000 f83f 	bl	5410 <__swsetup_r>
    5392:	2800      	cmp	r0, #0
    5394:	d0f1      	beq.n	537a <__swbuf_r+0x42>
    5396:	2001      	movs	r0, #1
    5398:	4240      	negs	r0, r0
    539a:	e01d      	b.n	53d8 <__swbuf_r+0xa0>
    539c:	1c28      	adds	r0, r5, #0
    539e:	1c21      	adds	r1, r4, #0
    53a0:	f7ff fb06 	bl	49b0 <_fflush_r>
    53a4:	2800      	cmp	r0, #0
    53a6:	d1f6      	bne.n	5396 <__swbuf_r+0x5e>
    53a8:	68a3      	ldr	r3, [r4, #8]
    53aa:	3001      	adds	r0, #1
    53ac:	3b01      	subs	r3, #1
    53ae:	60a3      	str	r3, [r4, #8]
    53b0:	6823      	ldr	r3, [r4, #0]
    53b2:	1c5a      	adds	r2, r3, #1
    53b4:	6022      	str	r2, [r4, #0]
    53b6:	701e      	strb	r6, [r3, #0]
    53b8:	6963      	ldr	r3, [r4, #20]
    53ba:	4298      	cmp	r0, r3
    53bc:	d005      	beq.n	53ca <__swbuf_r+0x92>
    53be:	89a3      	ldrh	r3, [r4, #12]
    53c0:	1c30      	adds	r0, r6, #0
    53c2:	07db      	lsls	r3, r3, #31
    53c4:	d508      	bpl.n	53d8 <__swbuf_r+0xa0>
    53c6:	2e0a      	cmp	r6, #10
    53c8:	d106      	bne.n	53d8 <__swbuf_r+0xa0>
    53ca:	1c28      	adds	r0, r5, #0
    53cc:	1c21      	adds	r1, r4, #0
    53ce:	f7ff faef 	bl	49b0 <_fflush_r>
    53d2:	2800      	cmp	r0, #0
    53d4:	d1df      	bne.n	5396 <__swbuf_r+0x5e>
    53d6:	1c30      	adds	r0, r6, #0
    53d8:	bd70      	pop	{r4, r5, r6, pc}
    53da:	46c0      	nop			; (mov r8, r8)
    53dc:	000057d8 	.word	0x000057d8
    53e0:	000057f8 	.word	0x000057f8
    53e4:	00005818 	.word	0x00005818

000053e8 <_write_r>:
    53e8:	b538      	push	{r3, r4, r5, lr}
    53ea:	1c05      	adds	r5, r0, #0
    53ec:	2000      	movs	r0, #0
    53ee:	4c07      	ldr	r4, [pc, #28]	; (540c <_write_r+0x24>)
    53f0:	6020      	str	r0, [r4, #0]
    53f2:	1c08      	adds	r0, r1, #0
    53f4:	1c11      	adds	r1, r2, #0
    53f6:	1c1a      	adds	r2, r3, #0
    53f8:	f7fc fdc6 	bl	1f88 <_write>
    53fc:	1c43      	adds	r3, r0, #1
    53fe:	d103      	bne.n	5408 <_write_r+0x20>
    5400:	6823      	ldr	r3, [r4, #0]
    5402:	2b00      	cmp	r3, #0
    5404:	d000      	beq.n	5408 <_write_r+0x20>
    5406:	602b      	str	r3, [r5, #0]
    5408:	bd38      	pop	{r3, r4, r5, pc}
    540a:	46c0      	nop			; (mov r8, r8)
    540c:	200001ec 	.word	0x200001ec

00005410 <__swsetup_r>:
    5410:	4b35      	ldr	r3, [pc, #212]	; (54e8 <__swsetup_r+0xd8>)
    5412:	b570      	push	{r4, r5, r6, lr}
    5414:	681d      	ldr	r5, [r3, #0]
    5416:	1c06      	adds	r6, r0, #0
    5418:	1c0c      	adds	r4, r1, #0
    541a:	2d00      	cmp	r5, #0
    541c:	d005      	beq.n	542a <__swsetup_r+0x1a>
    541e:	69ab      	ldr	r3, [r5, #24]
    5420:	2b00      	cmp	r3, #0
    5422:	d102      	bne.n	542a <__swsetup_r+0x1a>
    5424:	1c28      	adds	r0, r5, #0
    5426:	f7ff fb31 	bl	4a8c <__sinit>
    542a:	4b30      	ldr	r3, [pc, #192]	; (54ec <__swsetup_r+0xdc>)
    542c:	429c      	cmp	r4, r3
    542e:	d101      	bne.n	5434 <__swsetup_r+0x24>
    5430:	686c      	ldr	r4, [r5, #4]
    5432:	e008      	b.n	5446 <__swsetup_r+0x36>
    5434:	4b2e      	ldr	r3, [pc, #184]	; (54f0 <__swsetup_r+0xe0>)
    5436:	429c      	cmp	r4, r3
    5438:	d101      	bne.n	543e <__swsetup_r+0x2e>
    543a:	68ac      	ldr	r4, [r5, #8]
    543c:	e003      	b.n	5446 <__swsetup_r+0x36>
    543e:	4b2d      	ldr	r3, [pc, #180]	; (54f4 <__swsetup_r+0xe4>)
    5440:	429c      	cmp	r4, r3
    5442:	d100      	bne.n	5446 <__swsetup_r+0x36>
    5444:	68ec      	ldr	r4, [r5, #12]
    5446:	89a3      	ldrh	r3, [r4, #12]
    5448:	b29a      	uxth	r2, r3
    544a:	0711      	lsls	r1, r2, #28
    544c:	d423      	bmi.n	5496 <__swsetup_r+0x86>
    544e:	06d1      	lsls	r1, r2, #27
    5450:	d407      	bmi.n	5462 <__swsetup_r+0x52>
    5452:	2209      	movs	r2, #9
    5454:	2001      	movs	r0, #1
    5456:	6032      	str	r2, [r6, #0]
    5458:	3237      	adds	r2, #55	; 0x37
    545a:	4313      	orrs	r3, r2
    545c:	81a3      	strh	r3, [r4, #12]
    545e:	4240      	negs	r0, r0
    5460:	e040      	b.n	54e4 <__swsetup_r+0xd4>
    5462:	0753      	lsls	r3, r2, #29
    5464:	d513      	bpl.n	548e <__swsetup_r+0x7e>
    5466:	6b61      	ldr	r1, [r4, #52]	; 0x34
    5468:	2900      	cmp	r1, #0
    546a:	d008      	beq.n	547e <__swsetup_r+0x6e>
    546c:	1c23      	adds	r3, r4, #0
    546e:	3344      	adds	r3, #68	; 0x44
    5470:	4299      	cmp	r1, r3
    5472:	d002      	beq.n	547a <__swsetup_r+0x6a>
    5474:	1c30      	adds	r0, r6, #0
    5476:	f7ff fba5 	bl	4bc4 <_free_r>
    547a:	2300      	movs	r3, #0
    547c:	6363      	str	r3, [r4, #52]	; 0x34
    547e:	2224      	movs	r2, #36	; 0x24
    5480:	89a3      	ldrh	r3, [r4, #12]
    5482:	4393      	bics	r3, r2
    5484:	81a3      	strh	r3, [r4, #12]
    5486:	2300      	movs	r3, #0
    5488:	6063      	str	r3, [r4, #4]
    548a:	6923      	ldr	r3, [r4, #16]
    548c:	6023      	str	r3, [r4, #0]
    548e:	2208      	movs	r2, #8
    5490:	89a3      	ldrh	r3, [r4, #12]
    5492:	4313      	orrs	r3, r2
    5494:	81a3      	strh	r3, [r4, #12]
    5496:	6923      	ldr	r3, [r4, #16]
    5498:	2b00      	cmp	r3, #0
    549a:	d10b      	bne.n	54b4 <__swsetup_r+0xa4>
    549c:	23a0      	movs	r3, #160	; 0xa0
    549e:	89a2      	ldrh	r2, [r4, #12]
    54a0:	009b      	lsls	r3, r3, #2
    54a2:	4013      	ands	r3, r2
    54a4:	2280      	movs	r2, #128	; 0x80
    54a6:	0092      	lsls	r2, r2, #2
    54a8:	4293      	cmp	r3, r2
    54aa:	d003      	beq.n	54b4 <__swsetup_r+0xa4>
    54ac:	1c30      	adds	r0, r6, #0
    54ae:	1c21      	adds	r1, r4, #0
    54b0:	f000 f848 	bl	5544 <__smakebuf_r>
    54b4:	2301      	movs	r3, #1
    54b6:	89a2      	ldrh	r2, [r4, #12]
    54b8:	4013      	ands	r3, r2
    54ba:	d005      	beq.n	54c8 <__swsetup_r+0xb8>
    54bc:	2300      	movs	r3, #0
    54be:	60a3      	str	r3, [r4, #8]
    54c0:	6963      	ldr	r3, [r4, #20]
    54c2:	425b      	negs	r3, r3
    54c4:	61a3      	str	r3, [r4, #24]
    54c6:	e003      	b.n	54d0 <__swsetup_r+0xc0>
    54c8:	0791      	lsls	r1, r2, #30
    54ca:	d400      	bmi.n	54ce <__swsetup_r+0xbe>
    54cc:	6963      	ldr	r3, [r4, #20]
    54ce:	60a3      	str	r3, [r4, #8]
    54d0:	2000      	movs	r0, #0
    54d2:	6923      	ldr	r3, [r4, #16]
    54d4:	4283      	cmp	r3, r0
    54d6:	d105      	bne.n	54e4 <__swsetup_r+0xd4>
    54d8:	0613      	lsls	r3, r2, #24
    54da:	d503      	bpl.n	54e4 <__swsetup_r+0xd4>
    54dc:	2340      	movs	r3, #64	; 0x40
    54de:	431a      	orrs	r2, r3
    54e0:	81a2      	strh	r2, [r4, #12]
    54e2:	3801      	subs	r0, #1
    54e4:	bd70      	pop	{r4, r5, r6, pc}
    54e6:	46c0      	nop			; (mov r8, r8)
    54e8:	20000068 	.word	0x20000068
    54ec:	000057d8 	.word	0x000057d8
    54f0:	000057f8 	.word	0x000057f8
    54f4:	00005818 	.word	0x00005818

000054f8 <_close_r>:
    54f8:	b538      	push	{r3, r4, r5, lr}
    54fa:	2300      	movs	r3, #0
    54fc:	4c06      	ldr	r4, [pc, #24]	; (5518 <_close_r+0x20>)
    54fe:	1c05      	adds	r5, r0, #0
    5500:	1c08      	adds	r0, r1, #0
    5502:	6023      	str	r3, [r4, #0]
    5504:	f7fd fdce 	bl	30a4 <_close>
    5508:	1c43      	adds	r3, r0, #1
    550a:	d103      	bne.n	5514 <_close_r+0x1c>
    550c:	6823      	ldr	r3, [r4, #0]
    550e:	2b00      	cmp	r3, #0
    5510:	d000      	beq.n	5514 <_close_r+0x1c>
    5512:	602b      	str	r3, [r5, #0]
    5514:	bd38      	pop	{r3, r4, r5, pc}
    5516:	46c0      	nop			; (mov r8, r8)
    5518:	200001ec 	.word	0x200001ec

0000551c <_lseek_r>:
    551c:	b538      	push	{r3, r4, r5, lr}
    551e:	1c05      	adds	r5, r0, #0
    5520:	2000      	movs	r0, #0
    5522:	4c07      	ldr	r4, [pc, #28]	; (5540 <_lseek_r+0x24>)
    5524:	6020      	str	r0, [r4, #0]
    5526:	1c08      	adds	r0, r1, #0
    5528:	1c11      	adds	r1, r2, #0
    552a:	1c1a      	adds	r2, r3, #0
    552c:	f7fd fddc 	bl	30e8 <_lseek>
    5530:	1c43      	adds	r3, r0, #1
    5532:	d103      	bne.n	553c <_lseek_r+0x20>
    5534:	6823      	ldr	r3, [r4, #0]
    5536:	2b00      	cmp	r3, #0
    5538:	d000      	beq.n	553c <_lseek_r+0x20>
    553a:	602b      	str	r3, [r5, #0]
    553c:	bd38      	pop	{r3, r4, r5, pc}
    553e:	46c0      	nop			; (mov r8, r8)
    5540:	200001ec 	.word	0x200001ec

00005544 <__smakebuf_r>:
    5544:	b5f0      	push	{r4, r5, r6, r7, lr}
    5546:	898b      	ldrh	r3, [r1, #12]
    5548:	b091      	sub	sp, #68	; 0x44
    554a:	079b      	lsls	r3, r3, #30
    554c:	d506      	bpl.n	555c <__smakebuf_r+0x18>
    554e:	1c0b      	adds	r3, r1, #0
    5550:	3347      	adds	r3, #71	; 0x47
    5552:	600b      	str	r3, [r1, #0]
    5554:	610b      	str	r3, [r1, #16]
    5556:	2301      	movs	r3, #1
    5558:	614b      	str	r3, [r1, #20]
    555a:	e045      	b.n	55e8 <__smakebuf_r+0xa4>
    555c:	1c0c      	adds	r4, r1, #0
    555e:	230e      	movs	r3, #14
    5560:	5ec9      	ldrsh	r1, [r1, r3]
    5562:	1c06      	adds	r6, r0, #0
    5564:	2900      	cmp	r1, #0
    5566:	da04      	bge.n	5572 <__smakebuf_r+0x2e>
    5568:	2380      	movs	r3, #128	; 0x80
    556a:	89a5      	ldrh	r5, [r4, #12]
    556c:	401d      	ands	r5, r3
    556e:	d110      	bne.n	5592 <__smakebuf_r+0x4e>
    5570:	e00c      	b.n	558c <__smakebuf_r+0x48>
    5572:	aa01      	add	r2, sp, #4
    5574:	f000 f85e 	bl	5634 <_fstat_r>
    5578:	2800      	cmp	r0, #0
    557a:	dbf5      	blt.n	5568 <__smakebuf_r+0x24>
    557c:	23f0      	movs	r3, #240	; 0xf0
    557e:	9d02      	ldr	r5, [sp, #8]
    5580:	021b      	lsls	r3, r3, #8
    5582:	401d      	ands	r5, r3
    5584:	4b19      	ldr	r3, [pc, #100]	; (55ec <__smakebuf_r+0xa8>)
    5586:	18ed      	adds	r5, r5, r3
    5588:	426b      	negs	r3, r5
    558a:	415d      	adcs	r5, r3
    558c:	2780      	movs	r7, #128	; 0x80
    558e:	00ff      	lsls	r7, r7, #3
    5590:	e001      	b.n	5596 <__smakebuf_r+0x52>
    5592:	2500      	movs	r5, #0
    5594:	2740      	movs	r7, #64	; 0x40
    5596:	1c30      	adds	r0, r6, #0
    5598:	1c39      	adds	r1, r7, #0
    559a:	f7ff fb59 	bl	4c50 <_malloc_r>
    559e:	2800      	cmp	r0, #0
    55a0:	d10c      	bne.n	55bc <__smakebuf_r+0x78>
    55a2:	89a3      	ldrh	r3, [r4, #12]
    55a4:	059a      	lsls	r2, r3, #22
    55a6:	d41f      	bmi.n	55e8 <__smakebuf_r+0xa4>
    55a8:	2202      	movs	r2, #2
    55aa:	4313      	orrs	r3, r2
    55ac:	81a3      	strh	r3, [r4, #12]
    55ae:	1c23      	adds	r3, r4, #0
    55b0:	3347      	adds	r3, #71	; 0x47
    55b2:	6023      	str	r3, [r4, #0]
    55b4:	6123      	str	r3, [r4, #16]
    55b6:	2301      	movs	r3, #1
    55b8:	6163      	str	r3, [r4, #20]
    55ba:	e015      	b.n	55e8 <__smakebuf_r+0xa4>
    55bc:	2280      	movs	r2, #128	; 0x80
    55be:	4b0c      	ldr	r3, [pc, #48]	; (55f0 <__smakebuf_r+0xac>)
    55c0:	62b3      	str	r3, [r6, #40]	; 0x28
    55c2:	89a3      	ldrh	r3, [r4, #12]
    55c4:	6020      	str	r0, [r4, #0]
    55c6:	4313      	orrs	r3, r2
    55c8:	81a3      	strh	r3, [r4, #12]
    55ca:	6120      	str	r0, [r4, #16]
    55cc:	6167      	str	r7, [r4, #20]
    55ce:	2d00      	cmp	r5, #0
    55d0:	d00a      	beq.n	55e8 <__smakebuf_r+0xa4>
    55d2:	230e      	movs	r3, #14
    55d4:	5ee1      	ldrsh	r1, [r4, r3]
    55d6:	1c30      	adds	r0, r6, #0
    55d8:	f000 f83e 	bl	5658 <_isatty_r>
    55dc:	2800      	cmp	r0, #0
    55de:	d003      	beq.n	55e8 <__smakebuf_r+0xa4>
    55e0:	2201      	movs	r2, #1
    55e2:	89a3      	ldrh	r3, [r4, #12]
    55e4:	4313      	orrs	r3, r2
    55e6:	81a3      	strh	r3, [r4, #12]
    55e8:	b011      	add	sp, #68	; 0x44
    55ea:	bdf0      	pop	{r4, r5, r6, r7, pc}
    55ec:	ffffe000 	.word	0xffffe000
    55f0:	00004a09 	.word	0x00004a09

000055f4 <memchr>:
    55f4:	b2c9      	uxtb	r1, r1
    55f6:	1882      	adds	r2, r0, r2
    55f8:	4290      	cmp	r0, r2
    55fa:	d004      	beq.n	5606 <memchr+0x12>
    55fc:	7803      	ldrb	r3, [r0, #0]
    55fe:	428b      	cmp	r3, r1
    5600:	d002      	beq.n	5608 <memchr+0x14>
    5602:	3001      	adds	r0, #1
    5604:	e7f8      	b.n	55f8 <memchr+0x4>
    5606:	2000      	movs	r0, #0
    5608:	4770      	bx	lr
	...

0000560c <_read_r>:
    560c:	b538      	push	{r3, r4, r5, lr}
    560e:	1c05      	adds	r5, r0, #0
    5610:	2000      	movs	r0, #0
    5612:	4c07      	ldr	r4, [pc, #28]	; (5630 <_read_r+0x24>)
    5614:	6020      	str	r0, [r4, #0]
    5616:	1c08      	adds	r0, r1, #0
    5618:	1c11      	adds	r1, r2, #0
    561a:	1c1a      	adds	r2, r3, #0
    561c:	f7fc fc88 	bl	1f30 <_read>
    5620:	1c43      	adds	r3, r0, #1
    5622:	d103      	bne.n	562c <_read_r+0x20>
    5624:	6823      	ldr	r3, [r4, #0]
    5626:	2b00      	cmp	r3, #0
    5628:	d000      	beq.n	562c <_read_r+0x20>
    562a:	602b      	str	r3, [r5, #0]
    562c:	bd38      	pop	{r3, r4, r5, pc}
    562e:	46c0      	nop			; (mov r8, r8)
    5630:	200001ec 	.word	0x200001ec

00005634 <_fstat_r>:
    5634:	b538      	push	{r3, r4, r5, lr}
    5636:	2300      	movs	r3, #0
    5638:	4c06      	ldr	r4, [pc, #24]	; (5654 <_fstat_r+0x20>)
    563a:	1c05      	adds	r5, r0, #0
    563c:	1c08      	adds	r0, r1, #0
    563e:	1c11      	adds	r1, r2, #0
    5640:	6023      	str	r3, [r4, #0]
    5642:	f7fd fd39 	bl	30b8 <_fstat>
    5646:	1c43      	adds	r3, r0, #1
    5648:	d103      	bne.n	5652 <_fstat_r+0x1e>
    564a:	6823      	ldr	r3, [r4, #0]
    564c:	2b00      	cmp	r3, #0
    564e:	d000      	beq.n	5652 <_fstat_r+0x1e>
    5650:	602b      	str	r3, [r5, #0]
    5652:	bd38      	pop	{r3, r4, r5, pc}
    5654:	200001ec 	.word	0x200001ec

00005658 <_isatty_r>:
    5658:	b538      	push	{r3, r4, r5, lr}
    565a:	2300      	movs	r3, #0
    565c:	4c06      	ldr	r4, [pc, #24]	; (5678 <_isatty_r+0x20>)
    565e:	1c05      	adds	r5, r0, #0
    5660:	1c08      	adds	r0, r1, #0
    5662:	6023      	str	r3, [r4, #0]
    5664:	f7fd fd36 	bl	30d4 <_isatty>
    5668:	1c43      	adds	r3, r0, #1
    566a:	d103      	bne.n	5674 <_isatty_r+0x1c>
    566c:	6823      	ldr	r3, [r4, #0]
    566e:	2b00      	cmp	r3, #0
    5670:	d000      	beq.n	5674 <_isatty_r+0x1c>
    5672:	602b      	str	r3, [r5, #0]
    5674:	bd38      	pop	{r3, r4, r5, pc}
    5676:	46c0      	nop			; (mov r8, r8)
    5678:	200001ec 	.word	0x200001ec
    567c:	42000800 	.word	0x42000800
    5680:	42000c00 	.word	0x42000c00
    5684:	42001000 	.word	0x42001000
    5688:	42001400 	.word	0x42001400
    568c:	42001800 	.word	0x42001800
    5690:	42001c00 	.word	0x42001c00
    5694:	0c0b0a09 	.word	0x0c0b0a09
    5698:	00000e0d 	.word	0x00000e0d
    569c:	000026b6 	.word	0x000026b6
    56a0:	00002732 	.word	0x00002732
    56a4:	00002732 	.word	0x00002732
    56a8:	000026d8 	.word	0x000026d8
    56ac:	000026d2 	.word	0x000026d2
    56b0:	000026de 	.word	0x000026de
    56b4:	000026bc 	.word	0x000026bc
    56b8:	000026e4 	.word	0x000026e4
    56bc:	00002718 	.word	0x00002718
    56c0:	0000280c 	.word	0x0000280c
    56c4:	0000285c 	.word	0x0000285c
    56c8:	0000285c 	.word	0x0000285c
    56cc:	00002858 	.word	0x00002858
    56d0:	000027fe 	.word	0x000027fe
    56d4:	0000281e 	.word	0x0000281e
    56d8:	000027ee 	.word	0x000027ee
    56dc:	00002830 	.word	0x00002830
    56e0:	00002842 	.word	0x00002842
    56e4:	20433249 	.word	0x20433249
    56e8:	7473616d 	.word	0x7473616d
    56ec:	69207265 	.word	0x69207265
    56f0:	2074696e 	.word	0x2074696e
    56f4:	74617473 	.word	0x74617473
    56f8:	203a7375 	.word	0x203a7375
    56fc:	0a0d6425 	.word	0x0a0d6425
    5700:	00000000 	.word	0x00000000
    5704:	20433249 	.word	0x20433249
    5708:	7473616d 	.word	0x7473616d
    570c:	69207265 	.word	0x69207265
    5710:	2074696e 	.word	0x2074696e
    5714:	6f727265 	.word	0x6f727265
    5718:	74732072 	.word	0x74732072
    571c:	73757461 	.word	0x73757461
    5720:	6425203a 	.word	0x6425203a
    5724:	00000a0d 	.word	0x00000a0d
    5728:	46202d2d 	.word	0x46202d2d
    572c:	72656572 	.word	0x72656572
    5730:	20736f74 	.word	0x20736f74
    5734:	6d617845 	.word	0x6d617845
    5738:	20656c70 	.word	0x20656c70
    573c:	0d0a2d2d 	.word	0x0d0a2d2d
    5740:	00000000 	.word	0x00000000
    5744:	25202d2d 	.word	0x25202d2d
    5748:	000d0a73 	.word	0x000d0a73
    574c:	444d4153 	.word	0x444d4153
    5750:	585f3132 	.word	0x585f3132
    5754:	49414c50 	.word	0x49414c50
    5758:	5f44454e 	.word	0x5f44454e
    575c:	004f5250 	.word	0x004f5250
    5760:	43202d2d 	.word	0x43202d2d
    5764:	69706d6f 	.word	0x69706d6f
    5768:	3a64656c 	.word	0x3a64656c
    576c:	20732520 	.word	0x20732520
    5770:	2d207325 	.word	0x2d207325
    5774:	000d0a2d 	.word	0x000d0a2d
    5778:	206e614a 	.word	0x206e614a
    577c:	32203232 	.word	0x32203232
    5780:	00363130 	.word	0x00363130
    5784:	313a3431 	.word	0x313a3431
    5788:	30343a34 	.word	0x30343a34
    578c:	00000000 	.word	0x00000000
    5790:	00003a98 	.word	0x00003a98
    5794:	00003a76 	.word	0x00003a76
    5798:	00003a76 	.word	0x00003a76
    579c:	00003a6a 	.word	0x00003a6a
    57a0:	0000395e 	.word	0x0000395e
    57a4:	0000395e 	.word	0x0000395e
    57a8:	00003a5e 	.word	0x00003a5e
    57ac:	00003a6a 	.word	0x00003a6a
    57b0:	0000395e 	.word	0x0000395e
    57b4:	00003a5e 	.word	0x00003a5e
    57b8:	0000395e 	.word	0x0000395e
    57bc:	00003a6a 	.word	0x00003a6a
    57c0:	00003962 	.word	0x00003962
    57c4:	00003962 	.word	0x00003962
    57c8:	00003962 	.word	0x00003962
    57cc:	00003c78 	.word	0x00003c78
    57d0:	00000043 	.word	0x00000043

000057d4 <_global_impure_ptr>:
    57d4:	20000008                                ... 

000057d8 <__sf_fake_stdin>:
	...

000057f8 <__sf_fake_stdout>:
	...

00005818 <__sf_fake_stderr>:
	...
    5838:	2b302d23 6c680020 6665004c 47464567     #-0+ .hlL.efgEFG
    5848:	32313000 36353433 41393837 45444342     .0123456789ABCDE
    5858:	31300046 35343332 39383736 64636261     F.0123456789abcd
    5868:	00006665                                ef..

0000586c <_init>:
    586c:	b5f8      	push	{r3, r4, r5, r6, r7, lr}
    586e:	46c0      	nop			; (mov r8, r8)
    5870:	bcf8      	pop	{r3, r4, r5, r6, r7}
    5872:	bc08      	pop	{r3}
    5874:	469e      	mov	lr, r3
    5876:	4770      	bx	lr

00005878 <__init_array_start>:
    5878:	000000d9 	.word	0x000000d9

0000587c <_fini>:
    587c:	b5f8      	push	{r3, r4, r5, r6, r7, lr}
    587e:	46c0      	nop			; (mov r8, r8)
    5880:	bcf8      	pop	{r3, r4, r5, r6, r7}
    5882:	bc08      	pop	{r3}
    5884:	469e      	mov	lr, r3
    5886:	4770      	bx	lr

00005888 <__fini_array_start>:
    5888:	000000b1 	.word	0x000000b1
