
CubesatFreeRTOS.elf:     file format elf32-littlearm

Sections:
Idx Name          Size      VMA       LMA       File off  Algn
  0 .text         0000785c  00000000  00000000  00008000  2**3
                  CONTENTS, ALLOC, LOAD, READONLY, CODE
  1 .relocate     00000078  20000000  0000785c  00010000  2**2
                  CONTENTS, ALLOC, LOAD, DATA
  2 .bss          00000184  20000078  000078d4  00010078  2**2
                  ALLOC
  3 .stack        00002004  200001fc  00007a58  00010078  2**0
                  ALLOC
  4 .ARM.attributes 00000028  00000000  00000000  00010078  2**0
                  CONTENTS, READONLY
  5 .comment      0000005b  00000000  00000000  000100a0  2**0
                  CONTENTS, READONLY
  6 .debug_info   000230e3  00000000  00000000  000100fb  2**0
                  CONTENTS, READONLY, DEBUGGING
  7 .debug_abbrev 00002f41  00000000  00000000  000331de  2**0
                  CONTENTS, READONLY, DEBUGGING
  8 .debug_loc    00002fe6  00000000  00000000  0003611f  2**0
                  CONTENTS, READONLY, DEBUGGING
  9 .debug_aranges 00000958  00000000  00000000  00039105  2**0
                  CONTENTS, READONLY, DEBUGGING
 10 .debug_ranges 000007e8  00000000  00000000  00039a5d  2**0
                  CONTENTS, READONLY, DEBUGGING
 11 .debug_macro  00007be2  00000000  00000000  0003a245  2**0
                  CONTENTS, READONLY, DEBUGGING
 12 .debug_line   0000e250  00000000  00000000  00041e27  2**0
                  CONTENTS, READONLY, DEBUGGING
 13 .debug_str    0008c895  00000000  00000000  00050077  2**0
                  CONTENTS, READONLY, DEBUGGING
 14 .debug_frame  00002954  00000000  00000000  000dc90c  2**2
                  CONTENTS, READONLY, DEBUGGING

Disassembly of section .text:

00000000 <_sfixed>:
	MLX90614_read(&temp_buf, TA_ADDR);
	printf("%02x, %02x\r\n", temp_buf[0], temp_buf[1]);
	return calcTemperature((temp_buf[1] << 8) | temp_buf[0]);
}

float calcTemperature(int16_t rawTemp) {
       0:	20002200 	.word	0x20002200
       4:	00002e45 	.word	0x00002e45
       8:	00002ec9 	.word	0x00002ec9
	float t = rawTemp;
       c:	00002ec9 	.word	0x00002ec9
	...
	printf("%f\r\n", t);
      2c:	00001e5d 	.word	0x00001e5d
	...
	return (t * 0.02 - 273.15) * 9.0 / 5.0 + 32;
      38:	00001e79 	.word	0x00001e79
      3c:	00001ebd 	.word	0x00001ebd
      40:	00002ec9 	.word	0x00002ec9
      44:	00002ec9 	.word	0x00002ec9
      48:	00002ec9 	.word	0x00002ec9
      4c:	00002ec9 	.word	0x00002ec9
      50:	00002ec9 	.word	0x00002ec9
      54:	00002ec9 	.word	0x00002ec9
      58:	00002ec9 	.word	0x00002ec9
      5c:	00002ec9 	.word	0x00002ec9
      60:	00002ec9 	.word	0x00002ec9
      64:	000011b9 	.word	0x000011b9
      68:	000011cd 	.word	0x000011cd
      6c:	000011e1 	.word	0x000011e1
      70:	000011f5 	.word	0x000011f5
      74:	00001209 	.word	0x00001209
      78:	0000121d 	.word	0x0000121d
      7c:	00002ec9 	.word	0x00002ec9
      80:	00002ec9 	.word	0x00002ec9
      84:	00002ec9 	.word	0x00002ec9
      88:	00002ec9 	.word	0x00002ec9
      8c:	00002ec9 	.word	0x00002ec9
      90:	00002ec9 	.word	0x00002ec9
      94:	00002ec9 	.word	0x00002ec9
      98:	00002ec9 	.word	0x00002ec9
      9c:	00002ec9 	.word	0x00002ec9
      a0:	00002ec9 	.word	0x00002ec9
      a4:	00002ec9 	.word	0x00002ec9
      a8:	00002ec9 	.word	0x00002ec9
}
      ac:	00002ec9 	.word	0x00002ec9

000000b0 <__do_global_dtors_aux>:
      b0:	b510      	push	{r4, lr}
      b2:	4c06      	ldr	r4, [pc, #24]	; (cc <__do_global_dtors_aux+0x1c>)
      b4:	7823      	ldrb	r3, [r4, #0]
      b6:	2b00      	cmp	r3, #0
      b8:	d107      	bne.n	ca <__do_global_dtors_aux+0x1a>
      ba:	4b05      	ldr	r3, [pc, #20]	; (d0 <__do_global_dtors_aux+0x20>)
      bc:	2b00      	cmp	r3, #0
      be:	d002      	beq.n	c6 <__do_global_dtors_aux+0x16>
      c0:	4804      	ldr	r0, [pc, #16]	; (d4 <__do_global_dtors_aux+0x24>)
      c2:	e000      	b.n	c6 <__do_global_dtors_aux+0x16>
      c4:	bf00      	nop
      c6:	2301      	movs	r3, #1
      c8:	7023      	strb	r3, [r4, #0]
      ca:	bd10      	pop	{r4, pc}
      cc:	20000078 	.word	0x20000078
      d0:	00000000 	.word	0x00000000
      d4:	0000785c 	.word	0x0000785c

000000d8 <frame_dummy>:
      d8:	b508      	push	{r3, lr}
      da:	4b08      	ldr	r3, [pc, #32]	; (fc <frame_dummy+0x24>)
      dc:	2b00      	cmp	r3, #0
      de:	d003      	beq.n	e8 <frame_dummy+0x10>
      e0:	4807      	ldr	r0, [pc, #28]	; (100 <frame_dummy+0x28>)
      e2:	4908      	ldr	r1, [pc, #32]	; (104 <frame_dummy+0x2c>)
      e4:	e000      	b.n	e8 <frame_dummy+0x10>
      e6:	bf00      	nop
      e8:	4807      	ldr	r0, [pc, #28]	; (108 <frame_dummy+0x30>)
      ea:	6803      	ldr	r3, [r0, #0]
      ec:	2b00      	cmp	r3, #0
      ee:	d100      	bne.n	f2 <frame_dummy+0x1a>
      f0:	bd08      	pop	{r3, pc}
      f2:	4b06      	ldr	r3, [pc, #24]	; (10c <frame_dummy+0x34>)
      f4:	2b00      	cmp	r3, #0
      f6:	d0fb      	beq.n	f0 <frame_dummy+0x18>
      f8:	4798      	blx	r3
      fa:	e7f9      	b.n	f0 <frame_dummy+0x18>
      fc:	00000000 	.word	0x00000000
     100:	0000785c 	.word	0x0000785c
     104:	2000007c 	.word	0x2000007c
     108:	0000785c 	.word	0x0000785c
     10c:	00000000 	.word	0x00000000

00000110 <cpu_irq_enter_critical>:
 */
volatile bool g_interrupt_enabled = true;
#endif

void cpu_irq_enter_critical(void)
{
     110:	b580      	push	{r7, lr}
     112:	b082      	sub	sp, #8
     114:	af00      	add	r7, sp, #0
	if (cpu_irq_critical_section_counter == 0) {
     116:	4b0f      	ldr	r3, [pc, #60]	; (154 <cpu_irq_enter_critical+0x44>)
     118:	681b      	ldr	r3, [r3, #0]
     11a:	2b00      	cmp	r3, #0
     11c:	d112      	bne.n	144 <cpu_irq_enter_critical+0x34>
 */
__attribute__( ( always_inline ) ) __STATIC_INLINE uint32_t __get_PRIMASK(void)
{
  uint32_t result;

  __ASM volatile ("MRS %0, primask" : "=r" (result) );
     11e:	f3ef 8310 	mrs	r3, PRIMASK
     122:	607b      	str	r3, [r7, #4]
  return(result);
     124:	687b      	ldr	r3, [r7, #4]
		if (cpu_irq_is_enabled()) {
     126:	2b00      	cmp	r3, #0
     128:	d109      	bne.n	13e <cpu_irq_enter_critical+0x2e>
  This function disables IRQ interrupts by setting the I-bit in the CPSR.
  Can only be executed in Privileged modes.
 */
__attribute__( ( always_inline ) ) __STATIC_INLINE void __disable_irq(void)
{
  __ASM volatile ("cpsid i");
     12a:	b672      	cpsid	i
    This function ensures the apparent order of the explicit memory operations before
    and after the instruction, without ensuring their completion.
 */
__attribute__( ( always_inline ) ) __STATIC_INLINE void __DMB(void)
{
  __ASM volatile ("dmb");
     12c:	f3bf 8f5f 	dmb	sy
			cpu_irq_disable();
     130:	4b09      	ldr	r3, [pc, #36]	; (158 <cpu_irq_enter_critical+0x48>)
     132:	2200      	movs	r2, #0
     134:	701a      	strb	r2, [r3, #0]
			cpu_irq_prev_interrupt_state = true;
     136:	4b09      	ldr	r3, [pc, #36]	; (15c <cpu_irq_enter_critical+0x4c>)
     138:	2201      	movs	r2, #1
     13a:	701a      	strb	r2, [r3, #0]
     13c:	e002      	b.n	144 <cpu_irq_enter_critical+0x34>
		} else {
			/* Make sure the to save the prev state as false */
			cpu_irq_prev_interrupt_state = false;
     13e:	4b07      	ldr	r3, [pc, #28]	; (15c <cpu_irq_enter_critical+0x4c>)
     140:	2200      	movs	r2, #0
     142:	701a      	strb	r2, [r3, #0]
		}

	}

	cpu_irq_critical_section_counter++;
     144:	4b03      	ldr	r3, [pc, #12]	; (154 <cpu_irq_enter_critical+0x44>)
     146:	681b      	ldr	r3, [r3, #0]
     148:	1c5a      	adds	r2, r3, #1
     14a:	4b02      	ldr	r3, [pc, #8]	; (154 <cpu_irq_enter_critical+0x44>)
     14c:	601a      	str	r2, [r3, #0]
}
     14e:	46bd      	mov	sp, r7
     150:	b002      	add	sp, #8
     152:	bd80      	pop	{r7, pc}
     154:	20000094 	.word	0x20000094
     158:	20000000 	.word	0x20000000
     15c:	20000098 	.word	0x20000098

00000160 <cpu_irq_leave_critical>:

void cpu_irq_leave_critical(void)
{
     160:	b580      	push	{r7, lr}
     162:	af00      	add	r7, sp, #0
	/* Check if the user is trying to leave a critical section when not in a critical section */
	Assert(cpu_irq_critical_section_counter > 0);

	cpu_irq_critical_section_counter--;
     164:	4b0a      	ldr	r3, [pc, #40]	; (190 <cpu_irq_leave_critical+0x30>)
     166:	681b      	ldr	r3, [r3, #0]
     168:	1e5a      	subs	r2, r3, #1
     16a:	4b09      	ldr	r3, [pc, #36]	; (190 <cpu_irq_leave_critical+0x30>)
     16c:	601a      	str	r2, [r3, #0]

	/* Only enable global interrupts when the counter reaches 0 and the state of the global interrupt flag
	   was enabled when entering critical state */
	if ((cpu_irq_critical_section_counter == 0) && (cpu_irq_prev_interrupt_state)) {
     16e:	4b08      	ldr	r3, [pc, #32]	; (190 <cpu_irq_leave_critical+0x30>)
     170:	681b      	ldr	r3, [r3, #0]
     172:	2b00      	cmp	r3, #0
     174:	d10a      	bne.n	18c <cpu_irq_leave_critical+0x2c>
     176:	4b07      	ldr	r3, [pc, #28]	; (194 <cpu_irq_leave_critical+0x34>)
     178:	781b      	ldrb	r3, [r3, #0]
     17a:	b2db      	uxtb	r3, r3
     17c:	2b00      	cmp	r3, #0
     17e:	d005      	beq.n	18c <cpu_irq_leave_critical+0x2c>
		cpu_irq_enable();
     180:	4b05      	ldr	r3, [pc, #20]	; (198 <cpu_irq_leave_critical+0x38>)
     182:	2201      	movs	r2, #1
     184:	701a      	strb	r2, [r3, #0]
     186:	f3bf 8f5f 	dmb	sy
  This function enables IRQ interrupts by clearing the I-bit in the CPSR.
  Can only be executed in Privileged modes.
 */
__attribute__( ( always_inline ) ) __STATIC_INLINE void __enable_irq(void)
{
  __ASM volatile ("cpsie i");
     18a:	b662      	cpsie	i
	}
}
     18c:	46bd      	mov	sp, r7
     18e:	bd80      	pop	{r7, pc}
     190:	20000094 	.word	0x20000094
     194:	20000098 	.word	0x20000098
     198:	20000000 	.word	0x20000000

0000019c <system_gclk_chan_get_config_defaults>:
 *
 * \param[out] config  Configuration structure to initialize to default values
 */
static inline void system_gclk_chan_get_config_defaults(
		struct system_gclk_chan_config *const config)
{
     19c:	b580      	push	{r7, lr}
     19e:	b082      	sub	sp, #8
     1a0:	af00      	add	r7, sp, #0
     1a2:	6078      	str	r0, [r7, #4]
	/* Sanity check arguments */
	Assert(config);

	/* Default configuration values */
	config->source_generator = GCLK_GENERATOR_0;
     1a4:	687b      	ldr	r3, [r7, #4]
     1a6:	2200      	movs	r2, #0
     1a8:	701a      	strb	r2, [r3, #0]
}
     1aa:	46bd      	mov	sp, r7
     1ac:	b002      	add	sp, #8
     1ae:	bd80      	pop	{r7, pc}

000001b0 <system_apb_clock_set_mask>:
 * \retval STATUS_OK               The clock mask was set successfully
 */
static inline enum status_code system_apb_clock_set_mask(
		const enum system_clock_apb_bus bus,
		const uint32_t mask)
{
     1b0:	b580      	push	{r7, lr}
     1b2:	b082      	sub	sp, #8
     1b4:	af00      	add	r7, sp, #0
     1b6:	1c02      	adds	r2, r0, #0
     1b8:	6039      	str	r1, [r7, #0]
     1ba:	1dfb      	adds	r3, r7, #7
     1bc:	701a      	strb	r2, [r3, #0]
	switch (bus) {
     1be:	1dfb      	adds	r3, r7, #7
     1c0:	781b      	ldrb	r3, [r3, #0]
     1c2:	2b01      	cmp	r3, #1
     1c4:	d00a      	beq.n	1dc <system_apb_clock_set_mask+0x2c>
     1c6:	2b02      	cmp	r3, #2
     1c8:	d00f      	beq.n	1ea <system_apb_clock_set_mask+0x3a>
     1ca:	2b00      	cmp	r3, #0
     1cc:	d114      	bne.n	1f8 <system_apb_clock_set_mask+0x48>
		case SYSTEM_CLOCK_APB_APBA:
			PM->APBAMASK.reg |= mask;
     1ce:	4b0e      	ldr	r3, [pc, #56]	; (208 <system_apb_clock_set_mask+0x58>)
     1d0:	4a0d      	ldr	r2, [pc, #52]	; (208 <system_apb_clock_set_mask+0x58>)
     1d2:	6991      	ldr	r1, [r2, #24]
     1d4:	683a      	ldr	r2, [r7, #0]
     1d6:	430a      	orrs	r2, r1
     1d8:	619a      	str	r2, [r3, #24]
			break;
     1da:	e00f      	b.n	1fc <system_apb_clock_set_mask+0x4c>

		case SYSTEM_CLOCK_APB_APBB:
			PM->APBBMASK.reg |= mask;
     1dc:	4b0a      	ldr	r3, [pc, #40]	; (208 <system_apb_clock_set_mask+0x58>)
     1de:	4a0a      	ldr	r2, [pc, #40]	; (208 <system_apb_clock_set_mask+0x58>)
     1e0:	69d1      	ldr	r1, [r2, #28]
     1e2:	683a      	ldr	r2, [r7, #0]
     1e4:	430a      	orrs	r2, r1
     1e6:	61da      	str	r2, [r3, #28]
			break;
     1e8:	e008      	b.n	1fc <system_apb_clock_set_mask+0x4c>

		case SYSTEM_CLOCK_APB_APBC:
			PM->APBCMASK.reg |= mask;
     1ea:	4b07      	ldr	r3, [pc, #28]	; (208 <system_apb_clock_set_mask+0x58>)
     1ec:	4a06      	ldr	r2, [pc, #24]	; (208 <system_apb_clock_set_mask+0x58>)
     1ee:	6a11      	ldr	r1, [r2, #32]
     1f0:	683a      	ldr	r2, [r7, #0]
     1f2:	430a      	orrs	r2, r1
     1f4:	621a      	str	r2, [r3, #32]
			break;
     1f6:	e001      	b.n	1fc <system_apb_clock_set_mask+0x4c>

		default:
			Assert(false);
			return STATUS_ERR_INVALID_ARG;
     1f8:	2317      	movs	r3, #23
     1fa:	e000      	b.n	1fe <system_apb_clock_set_mask+0x4e>

	}

	return STATUS_OK;
     1fc:	2300      	movs	r3, #0
}
     1fe:	1c18      	adds	r0, r3, #0
     200:	46bd      	mov	sp, r7
     202:	b002      	add	sp, #8
     204:	bd80      	pop	{r7, pc}
     206:	46c0      	nop			; (mov r8, r8)
     208:	40000400 	.word	0x40000400

0000020c <system_pinmux_get_config_defaults>:
 *
 * \param[out] config  Configuration structure to initialize to default values
 */
static inline void system_pinmux_get_config_defaults(
		struct system_pinmux_config *const config)
{
     20c:	b580      	push	{r7, lr}
     20e:	b082      	sub	sp, #8
     210:	af00      	add	r7, sp, #0
     212:	6078      	str	r0, [r7, #4]
	/* Sanity check arguments */
	Assert(config);

	/* Default configuration values */
	config->mux_position = SYSTEM_PINMUX_GPIO;
     214:	687b      	ldr	r3, [r7, #4]
     216:	2280      	movs	r2, #128	; 0x80
     218:	701a      	strb	r2, [r3, #0]
	config->direction    = SYSTEM_PINMUX_PIN_DIR_INPUT;
     21a:	687b      	ldr	r3, [r7, #4]
     21c:	2200      	movs	r2, #0
     21e:	705a      	strb	r2, [r3, #1]
	config->input_pull   = SYSTEM_PINMUX_PIN_PULL_UP;
     220:	687b      	ldr	r3, [r7, #4]
     222:	2201      	movs	r2, #1
     224:	709a      	strb	r2, [r3, #2]
	config->powersave    = false;
     226:	687b      	ldr	r3, [r7, #4]
     228:	2200      	movs	r2, #0
     22a:	70da      	strb	r2, [r3, #3]
}
     22c:	46bd      	mov	sp, r7
     22e:	b002      	add	sp, #8
     230:	bd80      	pop	{r7, pc}
     232:	46c0      	nop			; (mov r8, r8)

00000234 <system_is_debugger_present>:
 * \retval true  Debugger is connected to the system
 * \retval false Debugger is not connected to the system
 *
 */
static inline bool system_is_debugger_present(void)
{
     234:	b580      	push	{r7, lr}
     236:	af00      	add	r7, sp, #0
	return DSU->STATUSB.reg & DSU_STATUSB_DBGPRES;
     238:	4b05      	ldr	r3, [pc, #20]	; (250 <system_is_debugger_present+0x1c>)
     23a:	789b      	ldrb	r3, [r3, #2]
     23c:	b2db      	uxtb	r3, r3
     23e:	1c1a      	adds	r2, r3, #0
     240:	2302      	movs	r3, #2
     242:	4013      	ands	r3, r2
     244:	1e5a      	subs	r2, r3, #1
     246:	4193      	sbcs	r3, r2
     248:	b2db      	uxtb	r3, r3
}
     24a:	1c18      	adds	r0, r3, #0
     24c:	46bd      	mov	sp, r7
     24e:	bd80      	pop	{r7, pc}
     250:	41002000 	.word	0x41002000

00000254 <i2c_master_is_syncing>:
 * \retval true   Module is busy synchronizing
 * \retval false  Module is not synchronizing
 */
static inline bool i2c_master_is_syncing (
		const struct i2c_master_module *const module)
{
     254:	b580      	push	{r7, lr}
     256:	b084      	sub	sp, #16
     258:	af00      	add	r7, sp, #0
     25a:	6078      	str	r0, [r7, #4]
	/* Sanity check. */
	Assert(module);
	Assert(module->hw);

	SercomI2cm *const i2c_hw = &(module->hw->I2CM);
     25c:	687b      	ldr	r3, [r7, #4]
     25e:	681b      	ldr	r3, [r3, #0]
     260:	60fb      	str	r3, [r7, #12]

#if defined(FEATURE_SERCOM_SYNCBUSY_SCHEME_VERSION_1)
	return (i2c_hw->STATUS.reg & SERCOM_I2CM_STATUS_SYNCBUSY);
#elif defined(FEATURE_SERCOM_SYNCBUSY_SCHEME_VERSION_2)
	return (i2c_hw->SYNCBUSY.reg & SERCOM_I2CM_SYNCBUSY_MASK);
     262:	68fb      	ldr	r3, [r7, #12]
     264:	69db      	ldr	r3, [r3, #28]
     266:	2207      	movs	r2, #7
     268:	4013      	ands	r3, r2
     26a:	1e5a      	subs	r2, r3, #1
     26c:	4193      	sbcs	r3, r2
     26e:	b2db      	uxtb	r3, r3
#else
#  error Unknown SERCOM SYNCBUSY scheme!
#endif
}
     270:	1c18      	adds	r0, r3, #0
     272:	46bd      	mov	sp, r7
     274:	b004      	add	sp, #16
     276:	bd80      	pop	{r7, pc}

00000278 <_i2c_master_wait_for_sync>:
 *
 * \param[in]  module  Pointer to software module structure
 */
static void _i2c_master_wait_for_sync(
		const struct i2c_master_module *const module)
{
     278:	b580      	push	{r7, lr}
     27a:	b082      	sub	sp, #8
     27c:	af00      	add	r7, sp, #0
     27e:	6078      	str	r0, [r7, #4]
	/* Sanity check. */
	Assert(module);

	while (i2c_master_is_syncing(module)) {
     280:	46c0      	nop			; (mov r8, r8)
     282:	687b      	ldr	r3, [r7, #4]
     284:	1c18      	adds	r0, r3, #0
     286:	4b03      	ldr	r3, [pc, #12]	; (294 <_i2c_master_wait_for_sync+0x1c>)
     288:	4798      	blx	r3
     28a:	1e03      	subs	r3, r0, #0
     28c:	d1f9      	bne.n	282 <_i2c_master_wait_for_sync+0xa>
		/* Wait for I2C module to sync. */
	}
}
     28e:	46bd      	mov	sp, r7
     290:	b002      	add	sp, #8
     292:	bd80      	pop	{r7, pc}
     294:	00000255 	.word	0x00000255

00000298 <_i2c_master_set_config>:
 *                                          with set GCLK frequency
 */
static enum status_code _i2c_master_set_config(
		struct i2c_master_module *const module,
		const struct i2c_master_config *const config)
{
     298:	b590      	push	{r4, r7, lr}
     29a:	b08d      	sub	sp, #52	; 0x34
     29c:	af00      	add	r7, sp, #0
     29e:	6078      	str	r0, [r7, #4]
     2a0:	6039      	str	r1, [r7, #0]

	/* Temporary variables. */
	uint32_t tmp_ctrla;
	int32_t tmp_baud;
	int32_t tmp_baud_hs;
	enum status_code tmp_status_code = STATUS_OK;
     2a2:	2327      	movs	r3, #39	; 0x27
     2a4:	18fb      	adds	r3, r7, r3
     2a6:	2200      	movs	r2, #0
     2a8:	701a      	strb	r2, [r3, #0]

	SercomI2cm *const i2c_module = &(module->hw->I2CM);
     2aa:	687b      	ldr	r3, [r7, #4]
     2ac:	681b      	ldr	r3, [r3, #0]
     2ae:	61bb      	str	r3, [r7, #24]
	Sercom *const sercom_hw = module->hw;
     2b0:	687b      	ldr	r3, [r7, #4]
     2b2:	681b      	ldr	r3, [r3, #0]
     2b4:	617b      	str	r3, [r7, #20]

	uint8_t sercom_index = _sercom_get_sercom_inst_index(sercom_hw);
     2b6:	2313      	movs	r3, #19
     2b8:	18fc      	adds	r4, r7, r3
     2ba:	697b      	ldr	r3, [r7, #20]
     2bc:	1c18      	adds	r0, r3, #0
     2be:	4b85      	ldr	r3, [pc, #532]	; (4d4 <_i2c_master_set_config+0x23c>)
     2c0:	4798      	blx	r3
     2c2:	1c03      	adds	r3, r0, #0
     2c4:	7023      	strb	r3, [r4, #0]

	/* Pin configuration */
	struct system_pinmux_config pin_conf;
	system_pinmux_get_config_defaults(&pin_conf);
     2c6:	2308      	movs	r3, #8
     2c8:	18fb      	adds	r3, r7, r3
     2ca:	1c18      	adds	r0, r3, #0
     2cc:	4b82      	ldr	r3, [pc, #520]	; (4d8 <_i2c_master_set_config+0x240>)
     2ce:	4798      	blx	r3

	uint32_t pad0 = config->pinmux_pad0;
     2d0:	683b      	ldr	r3, [r7, #0]
     2d2:	69db      	ldr	r3, [r3, #28]
     2d4:	623b      	str	r3, [r7, #32]
	uint32_t pad1 = config->pinmux_pad1;
     2d6:	683b      	ldr	r3, [r7, #0]
     2d8:	6a1b      	ldr	r3, [r3, #32]
     2da:	61fb      	str	r3, [r7, #28]

	/* SERCOM PAD0 - SDA */
	if (pad0 == PINMUX_DEFAULT) {
     2dc:	6a3b      	ldr	r3, [r7, #32]
     2de:	2b00      	cmp	r3, #0
     2e0:	d106      	bne.n	2f0 <_i2c_master_set_config+0x58>
		pad0 = _sercom_get_default_pad(sercom_hw, 0);
     2e2:	697b      	ldr	r3, [r7, #20]
     2e4:	1c18      	adds	r0, r3, #0
     2e6:	2100      	movs	r1, #0
     2e8:	4b7c      	ldr	r3, [pc, #496]	; (4dc <_i2c_master_set_config+0x244>)
     2ea:	4798      	blx	r3
     2ec:	1c03      	adds	r3, r0, #0
     2ee:	623b      	str	r3, [r7, #32]
	}
	pin_conf.mux_position = pad0 & 0xFFFF;
     2f0:	6a3b      	ldr	r3, [r7, #32]
     2f2:	b2da      	uxtb	r2, r3
     2f4:	2308      	movs	r3, #8
     2f6:	18fb      	adds	r3, r7, r3
     2f8:	701a      	strb	r2, [r3, #0]
	pin_conf.direction    = SYSTEM_PINMUX_PIN_DIR_OUTPUT_WITH_READBACK;
     2fa:	2308      	movs	r3, #8
     2fc:	18fb      	adds	r3, r7, r3
     2fe:	2202      	movs	r2, #2
     300:	705a      	strb	r2, [r3, #1]
	system_pinmux_pin_set_config(pad0 >> 16, &pin_conf);
     302:	6a3b      	ldr	r3, [r7, #32]
     304:	0c1b      	lsrs	r3, r3, #16
     306:	b2da      	uxtb	r2, r3
     308:	2308      	movs	r3, #8
     30a:	18fb      	adds	r3, r7, r3
     30c:	1c10      	adds	r0, r2, #0
     30e:	1c19      	adds	r1, r3, #0
     310:	4b73      	ldr	r3, [pc, #460]	; (4e0 <_i2c_master_set_config+0x248>)
     312:	4798      	blx	r3

	/* SERCOM PAD1 - SCL */
	if (pad1 == PINMUX_DEFAULT) {
     314:	69fb      	ldr	r3, [r7, #28]
     316:	2b00      	cmp	r3, #0
     318:	d106      	bne.n	328 <_i2c_master_set_config+0x90>
		pad1 = _sercom_get_default_pad(sercom_hw, 1);
     31a:	697b      	ldr	r3, [r7, #20]
     31c:	1c18      	adds	r0, r3, #0
     31e:	2101      	movs	r1, #1
     320:	4b6e      	ldr	r3, [pc, #440]	; (4dc <_i2c_master_set_config+0x244>)
     322:	4798      	blx	r3
     324:	1c03      	adds	r3, r0, #0
     326:	61fb      	str	r3, [r7, #28]
	}
	pin_conf.mux_position = pad1 & 0xFFFF;
     328:	69fb      	ldr	r3, [r7, #28]
     32a:	b2da      	uxtb	r2, r3
     32c:	2308      	movs	r3, #8
     32e:	18fb      	adds	r3, r7, r3
     330:	701a      	strb	r2, [r3, #0]
	pin_conf.direction    = SYSTEM_PINMUX_PIN_DIR_OUTPUT_WITH_READBACK;
     332:	2308      	movs	r3, #8
     334:	18fb      	adds	r3, r7, r3
     336:	2202      	movs	r2, #2
     338:	705a      	strb	r2, [r3, #1]
	system_pinmux_pin_set_config(pad1 >> 16, &pin_conf);
     33a:	69fb      	ldr	r3, [r7, #28]
     33c:	0c1b      	lsrs	r3, r3, #16
     33e:	b2da      	uxtb	r2, r3
     340:	2308      	movs	r3, #8
     342:	18fb      	adds	r3, r7, r3
     344:	1c10      	adds	r0, r2, #0
     346:	1c19      	adds	r1, r3, #0
     348:	4b65      	ldr	r3, [pc, #404]	; (4e0 <_i2c_master_set_config+0x248>)
     34a:	4798      	blx	r3

	/* Save timeout on unknown bus state in software module. */
	module->unknown_bus_state_timeout = config->unknown_bus_state_timeout;
     34c:	683b      	ldr	r3, [r7, #0]
     34e:	8a9a      	ldrh	r2, [r3, #20]
     350:	687b      	ldr	r3, [r7, #4]
     352:	80da      	strh	r2, [r3, #6]

	/* Save timeout on buffer write. */
	module->buffer_timeout = config->buffer_timeout;
     354:	683b      	ldr	r3, [r7, #0]
     356:	8ada      	ldrh	r2, [r3, #22]
     358:	687b      	ldr	r3, [r7, #4]
     35a:	811a      	strh	r2, [r3, #8]

	/* Set whether module should run in standby. */
	if (config->run_in_standby || system_is_debugger_present()) {
     35c:	683b      	ldr	r3, [r7, #0]
     35e:	7e1b      	ldrb	r3, [r3, #24]
     360:	2b00      	cmp	r3, #0
     362:	d103      	bne.n	36c <_i2c_master_set_config+0xd4>
     364:	4b5f      	ldr	r3, [pc, #380]	; (4e4 <_i2c_master_set_config+0x24c>)
     366:	4798      	blx	r3
     368:	1e03      	subs	r3, r0, #0
     36a:	d002      	beq.n	372 <_i2c_master_set_config+0xda>
		tmp_ctrla = SERCOM_I2CM_CTRLA_RUNSTDBY;
     36c:	2380      	movs	r3, #128	; 0x80
     36e:	62fb      	str	r3, [r7, #44]	; 0x2c
     370:	e001      	b.n	376 <_i2c_master_set_config+0xde>
	} else {
		tmp_ctrla = 0;
     372:	2300      	movs	r3, #0
     374:	62fb      	str	r3, [r7, #44]	; 0x2c
	}

	/* Check and set start data hold timeout. */
	if (config->start_hold_time != I2C_MASTER_START_HOLD_TIME_DISABLED) {
     376:	683b      	ldr	r3, [r7, #0]
     378:	691b      	ldr	r3, [r3, #16]
     37a:	2b00      	cmp	r3, #0
     37c:	d004      	beq.n	388 <_i2c_master_set_config+0xf0>
		tmp_ctrla |= config->start_hold_time;
     37e:	683b      	ldr	r3, [r7, #0]
     380:	691b      	ldr	r3, [r3, #16]
     382:	6afa      	ldr	r2, [r7, #44]	; 0x2c
     384:	4313      	orrs	r3, r2
     386:	62fb      	str	r3, [r7, #44]	; 0x2c
	}

	/* Check and set transfer speed */
	tmp_ctrla |= config->transfer_speed;
     388:	683b      	ldr	r3, [r7, #0]
     38a:	689b      	ldr	r3, [r3, #8]
     38c:	6afa      	ldr	r2, [r7, #44]	; 0x2c
     38e:	4313      	orrs	r3, r2
     390:	62fb      	str	r3, [r7, #44]	; 0x2c

	/* Check and set SCL low timeout. */
	if (config->scl_low_timeout) {
     392:	683b      	ldr	r3, [r7, #0]
     394:	2224      	movs	r2, #36	; 0x24
     396:	5c9b      	ldrb	r3, [r3, r2]
     398:	2b00      	cmp	r3, #0
     39a:	d004      	beq.n	3a6 <_i2c_master_set_config+0x10e>
		tmp_ctrla |= SERCOM_I2CM_CTRLA_LOWTOUTEN;
     39c:	6afb      	ldr	r3, [r7, #44]	; 0x2c
     39e:	2280      	movs	r2, #128	; 0x80
     3a0:	05d2      	lsls	r2, r2, #23
     3a2:	4313      	orrs	r3, r2
     3a4:	62fb      	str	r3, [r7, #44]	; 0x2c
	}

	/* Check and set inactive bus timeout. */
	if (config->inactive_timeout != I2C_MASTER_INACTIVE_TIMEOUT_DISABLED) {
     3a6:	683b      	ldr	r3, [r7, #0]
     3a8:	6a9b      	ldr	r3, [r3, #40]	; 0x28
     3aa:	2b00      	cmp	r3, #0
     3ac:	d004      	beq.n	3b8 <_i2c_master_set_config+0x120>
		tmp_ctrla |= config->inactive_timeout;
     3ae:	683b      	ldr	r3, [r7, #0]
     3b0:	6a9b      	ldr	r3, [r3, #40]	; 0x28
     3b2:	6afa      	ldr	r2, [r7, #44]	; 0x2c
     3b4:	4313      	orrs	r3, r2
     3b6:	62fb      	str	r3, [r7, #44]	; 0x2c
	}

	/* Check and set SCL clock stretch mode. */
	if (config->scl_stretch_only_after_ack_bit) {
     3b8:	683b      	ldr	r3, [r7, #0]
     3ba:	222c      	movs	r2, #44	; 0x2c
     3bc:	5c9b      	ldrb	r3, [r3, r2]
     3be:	2b00      	cmp	r3, #0
     3c0:	d004      	beq.n	3cc <_i2c_master_set_config+0x134>
		tmp_ctrla |= SERCOM_I2CM_CTRLA_SCLSM;
     3c2:	6afb      	ldr	r3, [r7, #44]	; 0x2c
     3c4:	2280      	movs	r2, #128	; 0x80
     3c6:	0512      	lsls	r2, r2, #20
     3c8:	4313      	orrs	r3, r2
     3ca:	62fb      	str	r3, [r7, #44]	; 0x2c
	}

	/* Check and set slave SCL low extend timeout. */
	if (config->slave_scl_low_extend_timeout) {
     3cc:	683b      	ldr	r3, [r7, #0]
     3ce:	222d      	movs	r2, #45	; 0x2d
     3d0:	5c9b      	ldrb	r3, [r3, r2]
     3d2:	2b00      	cmp	r3, #0
     3d4:	d004      	beq.n	3e0 <_i2c_master_set_config+0x148>
		tmp_ctrla |= SERCOM_I2CM_CTRLA_SEXTTOEN;
     3d6:	6afb      	ldr	r3, [r7, #44]	; 0x2c
     3d8:	2280      	movs	r2, #128	; 0x80
     3da:	0412      	lsls	r2, r2, #16
     3dc:	4313      	orrs	r3, r2
     3de:	62fb      	str	r3, [r7, #44]	; 0x2c
	}

	/* Check and set master SCL low extend timeout. */
	if (config->master_scl_low_extend_timeout) {
     3e0:	683b      	ldr	r3, [r7, #0]
     3e2:	222e      	movs	r2, #46	; 0x2e
     3e4:	5c9b      	ldrb	r3, [r3, r2]
     3e6:	2b00      	cmp	r3, #0
     3e8:	d004      	beq.n	3f4 <_i2c_master_set_config+0x15c>
		tmp_ctrla |= SERCOM_I2CM_CTRLA_MEXTTOEN;
     3ea:	6afb      	ldr	r3, [r7, #44]	; 0x2c
     3ec:	2280      	movs	r2, #128	; 0x80
     3ee:	03d2      	lsls	r2, r2, #15
     3f0:	4313      	orrs	r3, r2
     3f2:	62fb      	str	r3, [r7, #44]	; 0x2c
	}

	/* Write config to register CTRLA. */
	i2c_module->CTRLA.reg |= tmp_ctrla;
     3f4:	69bb      	ldr	r3, [r7, #24]
     3f6:	681a      	ldr	r2, [r3, #0]
     3f8:	6afb      	ldr	r3, [r7, #44]	; 0x2c
     3fa:	431a      	orrs	r2, r3
     3fc:	69bb      	ldr	r3, [r7, #24]
     3fe:	601a      	str	r2, [r3, #0]

	/* Set configurations in CTRLB. */
	i2c_module->CTRLB.reg = SERCOM_I2CM_CTRLB_SMEN;
     400:	69bb      	ldr	r3, [r7, #24]
     402:	2280      	movs	r2, #128	; 0x80
     404:	0052      	lsls	r2, r2, #1
     406:	605a      	str	r2, [r3, #4]

	/* Find and set baudrate. */
	tmp_baud = (int32_t)(div_ceil(
     408:	2313      	movs	r3, #19
     40a:	18fb      	adds	r3, r7, r3
     40c:	781b      	ldrb	r3, [r3, #0]
     40e:	3314      	adds	r3, #20
     410:	b2db      	uxtb	r3, r3
     412:	1c18      	adds	r0, r3, #0
     414:	4b34      	ldr	r3, [pc, #208]	; (4e8 <_i2c_master_set_config+0x250>)
     416:	4798      	blx	r3
     418:	1c01      	adds	r1, r0, #0
     41a:	683b      	ldr	r3, [r7, #0]
     41c:	681b      	ldr	r3, [r3, #0]
     41e:	22fa      	movs	r2, #250	; 0xfa
     420:	00d2      	lsls	r2, r2, #3
     422:	4353      	muls	r3, r2
     424:	18cb      	adds	r3, r1, r3
     426:	1e59      	subs	r1, r3, #1
     428:	683b      	ldr	r3, [r7, #0]
     42a:	681b      	ldr	r3, [r3, #0]
     42c:	22fa      	movs	r2, #250	; 0xfa
     42e:	00d2      	lsls	r2, r2, #3
     430:	435a      	muls	r2, r3
     432:	4b2e      	ldr	r3, [pc, #184]	; (4ec <_i2c_master_set_config+0x254>)
     434:	1c08      	adds	r0, r1, #0
     436:	1c11      	adds	r1, r2, #0
     438:	4798      	blx	r3
     43a:	1c03      	adds	r3, r0, #0
				system_gclk_chan_get_hz(SERCOM0_GCLK_ID_CORE + sercom_index),
				(2000*(config->baud_rate))) - 5);
     43c:	3b05      	subs	r3, #5

	/* Set configurations in CTRLB. */
	i2c_module->CTRLB.reg = SERCOM_I2CM_CTRLB_SMEN;

	/* Find and set baudrate. */
	tmp_baud = (int32_t)(div_ceil(
     43e:	60fb      	str	r3, [r7, #12]
				system_gclk_chan_get_hz(SERCOM0_GCLK_ID_CORE + sercom_index),
				(2000*(config->baud_rate))) - 5);

	/* Check that baudrate is supported at current speed. */
	if (tmp_baud > 255 || tmp_baud < 0) {
     440:	68fb      	ldr	r3, [r7, #12]
     442:	2bff      	cmp	r3, #255	; 0xff
     444:	dc02      	bgt.n	44c <_i2c_master_set_config+0x1b4>
     446:	68fb      	ldr	r3, [r7, #12]
     448:	2b00      	cmp	r3, #0
     44a:	da04      	bge.n	456 <_i2c_master_set_config+0x1be>
		/* Baud rate not supported. */
		tmp_status_code = STATUS_ERR_BAUDRATE_UNAVAILABLE;
     44c:	2327      	movs	r3, #39	; 0x27
     44e:	18fb      	adds	r3, r7, r3
     450:	2240      	movs	r2, #64	; 0x40
     452:	701a      	strb	r2, [r3, #0]
     454:	e025      	b.n	4a2 <_i2c_master_set_config+0x20a>
	} else {
		/* Find baudrate for high speed */
		tmp_baud_hs = (int32_t)(div_ceil(
     456:	2313      	movs	r3, #19
     458:	18fb      	adds	r3, r7, r3
     45a:	781b      	ldrb	r3, [r3, #0]
     45c:	3314      	adds	r3, #20
     45e:	b2db      	uxtb	r3, r3
     460:	1c18      	adds	r0, r3, #0
     462:	4b21      	ldr	r3, [pc, #132]	; (4e8 <_i2c_master_set_config+0x250>)
     464:	4798      	blx	r3
     466:	1c01      	adds	r1, r0, #0
     468:	683b      	ldr	r3, [r7, #0]
     46a:	685b      	ldr	r3, [r3, #4]
     46c:	22fa      	movs	r2, #250	; 0xfa
     46e:	00d2      	lsls	r2, r2, #3
     470:	4353      	muls	r3, r2
     472:	18cb      	adds	r3, r1, r3
     474:	1e59      	subs	r1, r3, #1
     476:	683b      	ldr	r3, [r7, #0]
     478:	685b      	ldr	r3, [r3, #4]
     47a:	22fa      	movs	r2, #250	; 0xfa
     47c:	00d2      	lsls	r2, r2, #3
     47e:	435a      	muls	r2, r3
     480:	4b1a      	ldr	r3, [pc, #104]	; (4ec <_i2c_master_set_config+0x254>)
     482:	1c08      	adds	r0, r1, #0
     484:	1c11      	adds	r1, r2, #0
     486:	4798      	blx	r3
     488:	1c03      	adds	r3, r0, #0
				system_gclk_chan_get_hz(SERCOM0_GCLK_ID_CORE + sercom_index),
				(2000*(config->baud_rate_high_speed))) - 1);
     48a:	3b01      	subs	r3, #1
	if (tmp_baud > 255 || tmp_baud < 0) {
		/* Baud rate not supported. */
		tmp_status_code = STATUS_ERR_BAUDRATE_UNAVAILABLE;
	} else {
		/* Find baudrate for high speed */
		tmp_baud_hs = (int32_t)(div_ceil(
     48c:	62bb      	str	r3, [r7, #40]	; 0x28
				system_gclk_chan_get_hz(SERCOM0_GCLK_ID_CORE + sercom_index),
				(2000*(config->baud_rate_high_speed))) - 1);

		/* Check that baudrate is supported at current speed. */
		if (tmp_baud_hs > 255 || tmp_baud_hs < 0) {
     48e:	6abb      	ldr	r3, [r7, #40]	; 0x28
     490:	2bff      	cmp	r3, #255	; 0xff
     492:	dc02      	bgt.n	49a <_i2c_master_set_config+0x202>
     494:	6abb      	ldr	r3, [r7, #40]	; 0x28
     496:	2b00      	cmp	r3, #0
     498:	da03      	bge.n	4a2 <_i2c_master_set_config+0x20a>
			/* Baud rate not supported. */
			tmp_status_code = STATUS_ERR_BAUDRATE_UNAVAILABLE;
     49a:	2327      	movs	r3, #39	; 0x27
     49c:	18fb      	adds	r3, r7, r3
     49e:	2240      	movs	r2, #64	; 0x40
     4a0:	701a      	strb	r2, [r3, #0]
		}
	}
	if (tmp_status_code != STATUS_ERR_BAUDRATE_UNAVAILABLE) {
     4a2:	2327      	movs	r3, #39	; 0x27
     4a4:	18fb      	adds	r3, r7, r3
     4a6:	781b      	ldrb	r3, [r3, #0]
     4a8:	2b40      	cmp	r3, #64	; 0x40
     4aa:	d00b      	beq.n	4c4 <_i2c_master_set_config+0x22c>
		/* Baud rate acceptable. */
		i2c_module->BAUD.reg = SERCOM_I2CM_BAUD_BAUD(tmp_baud) |
     4ac:	68fb      	ldr	r3, [r7, #12]
     4ae:	22ff      	movs	r2, #255	; 0xff
     4b0:	401a      	ands	r2, r3
			SERCOM_I2CM_BAUD_HSBAUD(tmp_baud_hs);
     4b2:	6abb      	ldr	r3, [r7, #40]	; 0x28
     4b4:	041b      	lsls	r3, r3, #16
     4b6:	1c19      	adds	r1, r3, #0
     4b8:	23ff      	movs	r3, #255	; 0xff
     4ba:	041b      	lsls	r3, r3, #16
     4bc:	400b      	ands	r3, r1
			tmp_status_code = STATUS_ERR_BAUDRATE_UNAVAILABLE;
		}
	}
	if (tmp_status_code != STATUS_ERR_BAUDRATE_UNAVAILABLE) {
		/* Baud rate acceptable. */
		i2c_module->BAUD.reg = SERCOM_I2CM_BAUD_BAUD(tmp_baud) |
     4be:	431a      	orrs	r2, r3
     4c0:	69bb      	ldr	r3, [r7, #24]
     4c2:	60da      	str	r2, [r3, #12]
			SERCOM_I2CM_BAUD_HSBAUD(tmp_baud_hs);
	}

	return tmp_status_code;
     4c4:	2327      	movs	r3, #39	; 0x27
     4c6:	18fb      	adds	r3, r7, r3
     4c8:	781b      	ldrb	r3, [r3, #0]
}
     4ca:	1c18      	adds	r0, r3, #0
     4cc:	46bd      	mov	sp, r7
     4ce:	b00d      	add	sp, #52	; 0x34
     4d0:	bd90      	pop	{r4, r7, pc}
     4d2:	46c0      	nop			; (mov r8, r8)
     4d4:	00001099 	.word	0x00001099
     4d8:	0000020d 	.word	0x0000020d
     4dc:	00000edd 	.word	0x00000edd
     4e0:	00002dc5 	.word	0x00002dc5
     4e4:	00000235 	.word	0x00000235
     4e8:	00002bfd 	.word	0x00002bfd
     4ec:	00003ded 	.word	0x00003ded

000004f0 <i2c_master_init>:
 */
enum status_code i2c_master_init(
		struct i2c_master_module *const module,
		Sercom *const hw,
		const struct i2c_master_config *const config)
{
     4f0:	b580      	push	{r7, lr}
     4f2:	b08a      	sub	sp, #40	; 0x28
     4f4:	af00      	add	r7, sp, #0
     4f6:	60f8      	str	r0, [r7, #12]
     4f8:	60b9      	str	r1, [r7, #8]
     4fa:	607a      	str	r2, [r7, #4]
	Assert(module);
	Assert(hw);
	Assert(config);

	/* Initialize software module */
	module->hw = hw;
     4fc:	68fb      	ldr	r3, [r7, #12]
     4fe:	68ba      	ldr	r2, [r7, #8]
     500:	601a      	str	r2, [r3, #0]

	SercomI2cm *const i2c_module = &(module->hw->I2CM);
     502:	68fb      	ldr	r3, [r7, #12]
     504:	681b      	ldr	r3, [r3, #0]
     506:	627b      	str	r3, [r7, #36]	; 0x24

	uint32_t sercom_index = _sercom_get_sercom_inst_index(module->hw);
     508:	68fb      	ldr	r3, [r7, #12]
     50a:	681b      	ldr	r3, [r3, #0]
     50c:	1c18      	adds	r0, r3, #0
     50e:	4b25      	ldr	r3, [pc, #148]	; (5a4 <i2c_master_init+0xb4>)
     510:	4798      	blx	r3
     512:	1c03      	adds	r3, r0, #0
     514:	623b      	str	r3, [r7, #32]
	uint32_t pm_index     = sercom_index + PM_APBCMASK_SERCOM0_Pos;
     516:	6a3b      	ldr	r3, [r7, #32]
     518:	3302      	adds	r3, #2
     51a:	61fb      	str	r3, [r7, #28]
	uint32_t gclk_index   = sercom_index + SERCOM0_GCLK_ID_CORE;
     51c:	6a3b      	ldr	r3, [r7, #32]
     51e:	3314      	adds	r3, #20
     520:	61bb      	str	r3, [r7, #24]

	/* Turn on module in PM */
	system_apb_clock_set_mask(SYSTEM_CLOCK_APB_APBC, 1 << pm_index);
     522:	69fb      	ldr	r3, [r7, #28]
     524:	2201      	movs	r2, #1
     526:	409a      	lsls	r2, r3
     528:	1c13      	adds	r3, r2, #0
     52a:	2002      	movs	r0, #2
     52c:	1c19      	adds	r1, r3, #0
     52e:	4b1e      	ldr	r3, [pc, #120]	; (5a8 <i2c_master_init+0xb8>)
     530:	4798      	blx	r3

	/* Set up the GCLK for the module */
	struct system_gclk_chan_config gclk_chan_conf;
	system_gclk_chan_get_config_defaults(&gclk_chan_conf);
     532:	2314      	movs	r3, #20
     534:	18fb      	adds	r3, r7, r3
     536:	1c18      	adds	r0, r3, #0
     538:	4b1c      	ldr	r3, [pc, #112]	; (5ac <i2c_master_init+0xbc>)
     53a:	4798      	blx	r3
	gclk_chan_conf.source_generator = config->generator_source;
     53c:	687b      	ldr	r3, [r7, #4]
     53e:	7b1a      	ldrb	r2, [r3, #12]
     540:	2314      	movs	r3, #20
     542:	18fb      	adds	r3, r7, r3
     544:	701a      	strb	r2, [r3, #0]
	system_gclk_chan_set_config(gclk_index, &gclk_chan_conf);
     546:	69bb      	ldr	r3, [r7, #24]
     548:	b2da      	uxtb	r2, r3
     54a:	2314      	movs	r3, #20
     54c:	18fb      	adds	r3, r7, r3
     54e:	1c10      	adds	r0, r2, #0
     550:	1c19      	adds	r1, r3, #0
     552:	4b17      	ldr	r3, [pc, #92]	; (5b0 <i2c_master_init+0xc0>)
     554:	4798      	blx	r3
	system_gclk_chan_enable(gclk_index);
     556:	69bb      	ldr	r3, [r7, #24]
     558:	b2db      	uxtb	r3, r3
     55a:	1c18      	adds	r0, r3, #0
     55c:	4b15      	ldr	r3, [pc, #84]	; (5b4 <i2c_master_init+0xc4>)
     55e:	4798      	blx	r3
	sercom_set_gclk_generator(config->generator_source, false);
     560:	687b      	ldr	r3, [r7, #4]
     562:	7b1b      	ldrb	r3, [r3, #12]
     564:	1c18      	adds	r0, r3, #0
     566:	2100      	movs	r1, #0
     568:	4b13      	ldr	r3, [pc, #76]	; (5b8 <i2c_master_init+0xc8>)
     56a:	4798      	blx	r3

	/* Check if module is enabled. */
	if (i2c_module->CTRLA.reg & SERCOM_I2CM_CTRLA_ENABLE) {
     56c:	6a7b      	ldr	r3, [r7, #36]	; 0x24
     56e:	681b      	ldr	r3, [r3, #0]
     570:	2202      	movs	r2, #2
     572:	4013      	ands	r3, r2
     574:	d001      	beq.n	57a <i2c_master_init+0x8a>
		return STATUS_ERR_DENIED;
     576:	231c      	movs	r3, #28
     578:	e010      	b.n	59c <i2c_master_init+0xac>
	}

	/* Check if reset is in progress. */
	if (i2c_module->CTRLA.reg & SERCOM_I2CM_CTRLA_SWRST) {
     57a:	6a7b      	ldr	r3, [r7, #36]	; 0x24
     57c:	681b      	ldr	r3, [r3, #0]
     57e:	2201      	movs	r2, #1
     580:	4013      	ands	r3, r2
     582:	d001      	beq.n	588 <i2c_master_init+0x98>
		return STATUS_BUSY;
     584:	2305      	movs	r3, #5
     586:	e009      	b.n	59c <i2c_master_init+0xac>
	module->status = STATUS_OK;
	module->buffer = NULL;
#endif

	/* Set sercom module to operate in I2C master mode. */
	i2c_module->CTRLA.reg = SERCOM_I2CM_CTRLA_MODE_I2C_MASTER;
     588:	6a7b      	ldr	r3, [r7, #36]	; 0x24
     58a:	2214      	movs	r2, #20
     58c:	601a      	str	r2, [r3, #0]

	/* Set config and return status. */
	return _i2c_master_set_config(module, config);
     58e:	68fa      	ldr	r2, [r7, #12]
     590:	687b      	ldr	r3, [r7, #4]
     592:	1c10      	adds	r0, r2, #0
     594:	1c19      	adds	r1, r3, #0
     596:	4b09      	ldr	r3, [pc, #36]	; (5bc <i2c_master_init+0xcc>)
     598:	4798      	blx	r3
     59a:	1c03      	adds	r3, r0, #0
}
     59c:	1c18      	adds	r0, r3, #0
     59e:	46bd      	mov	sp, r7
     5a0:	b00a      	add	sp, #40	; 0x28
     5a2:	bd80      	pop	{r7, pc}
     5a4:	00001099 	.word	0x00001099
     5a8:	000001b1 	.word	0x000001b1
     5ac:	0000019d 	.word	0x0000019d
     5b0:	00002ad9 	.word	0x00002ad9
     5b4:	00002b1d 	.word	0x00002b1d
     5b8:	00000e51 	.word	0x00000e51
     5bc:	00000299 	.word	0x00000299

000005c0 <_i2c_master_address_response>:
 * \retval STATUS_ERR_BAD_ADDRESS       If slave is busy, or no slave
 *                                      acknowledged the address
 */
enum status_code _i2c_master_address_response(
		struct i2c_master_module *const module)
{
     5c0:	b580      	push	{r7, lr}
     5c2:	b084      	sub	sp, #16
     5c4:	af00      	add	r7, sp, #0
     5c6:	6078      	str	r0, [r7, #4]
	/* Sanity check arguments */
	Assert(module);
	Assert(module->hw);

	SercomI2cm *const i2c_module = &(module->hw->I2CM);
     5c8:	687b      	ldr	r3, [r7, #4]
     5ca:	681b      	ldr	r3, [r3, #0]
     5cc:	60fb      	str	r3, [r7, #12]

	/* Check for error and ignore bus-error; workaround for BUSSTATE stuck in
	 * BUSY */
	if (i2c_module->INTFLAG.reg & SERCOM_I2CM_INTFLAG_SB) {
     5ce:	68fb      	ldr	r3, [r7, #12]
     5d0:	7e1b      	ldrb	r3, [r3, #24]
     5d2:	b2db      	uxtb	r3, r3
     5d4:	1c1a      	adds	r2, r3, #0
     5d6:	2302      	movs	r3, #2
     5d8:	4013      	ands	r3, r2
     5da:	d00b      	beq.n	5f4 <_i2c_master_address_response+0x34>

		/* Clear write interrupt flag */
		i2c_module->INTFLAG.reg = SERCOM_I2CM_INTFLAG_SB;
     5dc:	68fb      	ldr	r3, [r7, #12]
     5de:	2202      	movs	r2, #2
     5e0:	761a      	strb	r2, [r3, #24]

		/* Check arbitration. */
		if (i2c_module->STATUS.reg & SERCOM_I2CM_STATUS_ARBLOST) {
     5e2:	68fb      	ldr	r3, [r7, #12]
     5e4:	8b5b      	ldrh	r3, [r3, #26]
     5e6:	b29b      	uxth	r3, r3
     5e8:	1c1a      	adds	r2, r3, #0
     5ea:	2302      	movs	r3, #2
     5ec:	4013      	ands	r3, r2
     5ee:	d011      	beq.n	614 <_i2c_master_address_response+0x54>
			/* Return packet collision. */
			return STATUS_ERR_PACKET_COLLISION;
     5f0:	2341      	movs	r3, #65	; 0x41
     5f2:	e010      	b.n	616 <_i2c_master_address_response+0x56>
		}
	/* Check that slave responded with ack. */
	} else if (i2c_module->STATUS.reg & SERCOM_I2CM_STATUS_RXNACK) {
     5f4:	68fb      	ldr	r3, [r7, #12]
     5f6:	8b5b      	ldrh	r3, [r3, #26]
     5f8:	b29b      	uxth	r3, r3
     5fa:	1c1a      	adds	r2, r3, #0
     5fc:	2304      	movs	r3, #4
     5fe:	4013      	ands	r3, r2
     600:	d008      	beq.n	614 <_i2c_master_address_response+0x54>
		/* Slave busy. Issue ack and stop command. */
		i2c_module->CTRLB.reg |= SERCOM_I2CM_CTRLB_CMD(3);
     602:	68fb      	ldr	r3, [r7, #12]
     604:	685b      	ldr	r3, [r3, #4]
     606:	22c0      	movs	r2, #192	; 0xc0
     608:	0292      	lsls	r2, r2, #10
     60a:	431a      	orrs	r2, r3
     60c:	68fb      	ldr	r3, [r7, #12]
     60e:	605a      	str	r2, [r3, #4]

		/* Return bad address value. */
		return STATUS_ERR_BAD_ADDRESS;
     610:	2318      	movs	r3, #24
     612:	e000      	b.n	616 <_i2c_master_address_response+0x56>
	}

	return STATUS_OK;
     614:	2300      	movs	r3, #0
}
     616:	1c18      	adds	r0, r3, #0
     618:	46bd      	mov	sp, r7
     61a:	b004      	add	sp, #16
     61c:	bd80      	pop	{r7, pc}
     61e:	46c0      	nop			; (mov r8, r8)

00000620 <_i2c_master_wait_for_bus>:
 * \retval STATUS_ERR_TIMEOUT  If no response was given within specified timeout
 *                             period
 */
enum status_code _i2c_master_wait_for_bus(
		struct i2c_master_module *const module)
{
     620:	b580      	push	{r7, lr}
     622:	b084      	sub	sp, #16
     624:	af00      	add	r7, sp, #0
     626:	6078      	str	r0, [r7, #4]
	/* Sanity check arguments */
	Assert(module);
	Assert(module->hw);

	SercomI2cm *const i2c_module = &(module->hw->I2CM);
     628:	687b      	ldr	r3, [r7, #4]
     62a:	681b      	ldr	r3, [r3, #0]
     62c:	60bb      	str	r3, [r7, #8]

	/* Wait for reply. */
	uint16_t timeout_counter = 0;
     62e:	230e      	movs	r3, #14
     630:	18fb      	adds	r3, r7, r3
     632:	2200      	movs	r2, #0
     634:	801a      	strh	r2, [r3, #0]
	while (!(i2c_module->INTFLAG.reg & SERCOM_I2CM_INTFLAG_MB) &&
     636:	e00f      	b.n	658 <_i2c_master_wait_for_bus+0x38>
			!(i2c_module->INTFLAG.reg & SERCOM_I2CM_INTFLAG_SB)) {

		/* Check timeout condition. */
		if (++timeout_counter >= module->buffer_timeout) {
     638:	230e      	movs	r3, #14
     63a:	18fb      	adds	r3, r7, r3
     63c:	220e      	movs	r2, #14
     63e:	18ba      	adds	r2, r7, r2
     640:	8812      	ldrh	r2, [r2, #0]
     642:	3201      	adds	r2, #1
     644:	801a      	strh	r2, [r3, #0]
     646:	687b      	ldr	r3, [r7, #4]
     648:	891b      	ldrh	r3, [r3, #8]
     64a:	220e      	movs	r2, #14
     64c:	18ba      	adds	r2, r7, r2
     64e:	8812      	ldrh	r2, [r2, #0]
     650:	429a      	cmp	r2, r3
     652:	d301      	bcc.n	658 <_i2c_master_wait_for_bus+0x38>
			return STATUS_ERR_TIMEOUT;
     654:	2312      	movs	r3, #18
     656:	e00e      	b.n	676 <_i2c_master_wait_for_bus+0x56>

	SercomI2cm *const i2c_module = &(module->hw->I2CM);

	/* Wait for reply. */
	uint16_t timeout_counter = 0;
	while (!(i2c_module->INTFLAG.reg & SERCOM_I2CM_INTFLAG_MB) &&
     658:	68bb      	ldr	r3, [r7, #8]
     65a:	7e1b      	ldrb	r3, [r3, #24]
     65c:	b2db      	uxtb	r3, r3
     65e:	1c1a      	adds	r2, r3, #0
     660:	2301      	movs	r3, #1
     662:	4013      	ands	r3, r2
     664:	d106      	bne.n	674 <_i2c_master_wait_for_bus+0x54>
			!(i2c_module->INTFLAG.reg & SERCOM_I2CM_INTFLAG_SB)) {
     666:	68bb      	ldr	r3, [r7, #8]
     668:	7e1b      	ldrb	r3, [r3, #24]
     66a:	b2db      	uxtb	r3, r3
     66c:	1c1a      	adds	r2, r3, #0
     66e:	2302      	movs	r3, #2
     670:	4013      	ands	r3, r2

	SercomI2cm *const i2c_module = &(module->hw->I2CM);

	/* Wait for reply. */
	uint16_t timeout_counter = 0;
	while (!(i2c_module->INTFLAG.reg & SERCOM_I2CM_INTFLAG_MB) &&
     672:	d0e1      	beq.n	638 <_i2c_master_wait_for_bus+0x18>
		/* Check timeout condition. */
		if (++timeout_counter >= module->buffer_timeout) {
			return STATUS_ERR_TIMEOUT;
		}
	}
	return STATUS_OK;
     674:	2300      	movs	r3, #0
}
     676:	1c18      	adds	r0, r3, #0
     678:	46bd      	mov	sp, r7
     67a:	b004      	add	sp, #16
     67c:	bd80      	pop	{r7, pc}
     67e:	46c0      	nop			; (mov r8, r8)

00000680 <_i2c_master_send_hs_master_code>:
 * \retval STATUS_OK           No error happen.
 */
enum status_code _i2c_master_send_hs_master_code(
		struct i2c_master_module *const module,
		uint8_t hs_master_code)
{
     680:	b590      	push	{r4, r7, lr}
     682:	b085      	sub	sp, #20
     684:	af00      	add	r7, sp, #0
     686:	6078      	str	r0, [r7, #4]
     688:	1c0a      	adds	r2, r1, #0
     68a:	1cfb      	adds	r3, r7, #3
     68c:	701a      	strb	r2, [r3, #0]
	SercomI2cm *const i2c_module = &(module->hw->I2CM);
     68e:	687b      	ldr	r3, [r7, #4]
     690:	681b      	ldr	r3, [r3, #0]
     692:	60fb      	str	r3, [r7, #12]
	/* Return value. */
	enum status_code tmp_status;

	/* Set NACK for high speed code */
	i2c_module->CTRLB.reg |= SERCOM_I2CM_CTRLB_ACKACT;
     694:	68fb      	ldr	r3, [r7, #12]
     696:	685b      	ldr	r3, [r3, #4]
     698:	2280      	movs	r2, #128	; 0x80
     69a:	02d2      	lsls	r2, r2, #11
     69c:	431a      	orrs	r2, r3
     69e:	68fb      	ldr	r3, [r7, #12]
     6a0:	605a      	str	r2, [r3, #4]
	/* Send high speed code */
	i2c_module->ADDR.reg = hs_master_code;
     6a2:	1cfb      	adds	r3, r7, #3
     6a4:	781a      	ldrb	r2, [r3, #0]
     6a6:	68fb      	ldr	r3, [r7, #12]
     6a8:	625a      	str	r2, [r3, #36]	; 0x24
	/* Wait for response on bus. */
	tmp_status = _i2c_master_wait_for_bus(module);
     6aa:	230b      	movs	r3, #11
     6ac:	18fc      	adds	r4, r7, r3
     6ae:	687b      	ldr	r3, [r7, #4]
     6b0:	1c18      	adds	r0, r3, #0
     6b2:	4b07      	ldr	r3, [pc, #28]	; (6d0 <_i2c_master_send_hs_master_code+0x50>)
     6b4:	4798      	blx	r3
     6b6:	1c03      	adds	r3, r0, #0
     6b8:	7023      	strb	r3, [r4, #0]
	/* Clear write interrupt flag */
	i2c_module->INTFLAG.reg = SERCOM_I2CM_INTENCLR_MB;
     6ba:	68fb      	ldr	r3, [r7, #12]
     6bc:	2201      	movs	r2, #1
     6be:	761a      	strb	r2, [r3, #24]

	return tmp_status;
     6c0:	230b      	movs	r3, #11
     6c2:	18fb      	adds	r3, r7, r3
     6c4:	781b      	ldrb	r3, [r3, #0]
}
     6c6:	1c18      	adds	r0, r3, #0
     6c8:	46bd      	mov	sp, r7
     6ca:	b005      	add	sp, #20
     6cc:	bd90      	pop	{r4, r7, pc}
     6ce:	46c0      	nop			; (mov r8, r8)
     6d0:	00000621 	.word	0x00000621

000006d4 <_i2c_master_read_packet>:
 *
 */
static enum status_code _i2c_master_read_packet(
		struct i2c_master_module *const module,
		struct i2c_master_packet *const packet)
{
     6d4:	b590      	push	{r4, r7, lr}
     6d6:	b087      	sub	sp, #28
     6d8:	af00      	add	r7, sp, #0
     6da:	6078      	str	r0, [r7, #4]
     6dc:	6039      	str	r1, [r7, #0]
	/* Sanity check arguments */
	Assert(module);
	Assert(module->hw);
	Assert(packet);

	SercomI2cm *const i2c_module = &(module->hw->I2CM);
     6de:	687b      	ldr	r3, [r7, #4]
     6e0:	681b      	ldr	r3, [r3, #0]
     6e2:	60fb      	str	r3, [r7, #12]

	/* Return value. */
	enum status_code tmp_status;
	uint16_t tmp_data_length = packet->data_length;
     6e4:	2314      	movs	r3, #20
     6e6:	18fb      	adds	r3, r7, r3
     6e8:	683a      	ldr	r2, [r7, #0]
     6ea:	8852      	ldrh	r2, [r2, #2]
     6ec:	801a      	strh	r2, [r3, #0]

	/* Written buffer counter. */
	uint16_t counter = 0;
     6ee:	2312      	movs	r3, #18
     6f0:	18fb      	adds	r3, r7, r3
     6f2:	2200      	movs	r2, #0
     6f4:	801a      	strh	r2, [r3, #0]

	bool sclsm_flag = i2c_module->CTRLA.bit.SCLSM;
     6f6:	68fb      	ldr	r3, [r7, #12]
     6f8:	681b      	ldr	r3, [r3, #0]
     6fa:	0edb      	lsrs	r3, r3, #27
     6fc:	1c1a      	adds	r2, r3, #0
     6fe:	2301      	movs	r3, #1
     700:	4013      	ands	r3, r2
     702:	b2db      	uxtb	r3, r3
     704:	1c1a      	adds	r2, r3, #0
     706:	230b      	movs	r3, #11
     708:	18fb      	adds	r3, r7, r3
     70a:	1e51      	subs	r1, r2, #1
     70c:	418a      	sbcs	r2, r1
     70e:	701a      	strb	r2, [r3, #0]

	/* Switch to high speed mode */
	if (packet->high_speed) {
     710:	683b      	ldr	r3, [r7, #0]
     712:	7a5b      	ldrb	r3, [r3, #9]
     714:	2b00      	cmp	r3, #0
     716:	d006      	beq.n	726 <_i2c_master_read_packet+0x52>
		_i2c_master_send_hs_master_code(module, packet->hs_master_code);
     718:	683b      	ldr	r3, [r7, #0]
     71a:	7a9b      	ldrb	r3, [r3, #10]
     71c:	687a      	ldr	r2, [r7, #4]
     71e:	1c10      	adds	r0, r2, #0
     720:	1c19      	adds	r1, r3, #0
     722:	4b7a      	ldr	r3, [pc, #488]	; (90c <_i2c_master_read_packet+0x238>)
     724:	4798      	blx	r3
	}

	/* Set action to ACK. */
	i2c_module->CTRLB.reg &= ~SERCOM_I2CM_CTRLB_ACKACT;
     726:	68fb      	ldr	r3, [r7, #12]
     728:	685b      	ldr	r3, [r3, #4]
     72a:	4a79      	ldr	r2, [pc, #484]	; (910 <_i2c_master_read_packet+0x23c>)
     72c:	401a      	ands	r2, r3
     72e:	68fb      	ldr	r3, [r7, #12]
     730:	605a      	str	r2, [r3, #4]

	/* Set address and direction bit. Will send start command on bus. */
	if (packet->ten_bit_address) {
     732:	683b      	ldr	r3, [r7, #0]
     734:	7a1b      	ldrb	r3, [r3, #8]
     736:	2b00      	cmp	r3, #0
     738:	d042      	beq.n	7c0 <_i2c_master_read_packet+0xec>
		/*
		 * Write ADDR.ADDR[10:1] with the 10-bit address. ADDR.TENBITEN must
		 * be set and read/write bit (ADDR.ADDR[0]) equal to 0.
		 */
		i2c_module->ADDR.reg = (packet->address << 1) |
     73a:	683b      	ldr	r3, [r7, #0]
     73c:	881b      	ldrh	r3, [r3, #0]
     73e:	005a      	lsls	r2, r3, #1
			(packet->high_speed << SERCOM_I2CM_ADDR_HS_Pos) |
     740:	683b      	ldr	r3, [r7, #0]
     742:	7a5b      	ldrb	r3, [r3, #9]
     744:	039b      	lsls	r3, r3, #14
	if (packet->ten_bit_address) {
		/*
		 * Write ADDR.ADDR[10:1] with the 10-bit address. ADDR.TENBITEN must
		 * be set and read/write bit (ADDR.ADDR[0]) equal to 0.
		 */
		i2c_module->ADDR.reg = (packet->address << 1) |
     746:	4313      	orrs	r3, r2
     748:	1c1a      	adds	r2, r3, #0
			(packet->high_speed << SERCOM_I2CM_ADDR_HS_Pos) |
     74a:	2380      	movs	r3, #128	; 0x80
     74c:	021b      	lsls	r3, r3, #8
     74e:	431a      	orrs	r2, r3
	if (packet->ten_bit_address) {
		/*
		 * Write ADDR.ADDR[10:1] with the 10-bit address. ADDR.TENBITEN must
		 * be set and read/write bit (ADDR.ADDR[0]) equal to 0.
		 */
		i2c_module->ADDR.reg = (packet->address << 1) |
     750:	68fb      	ldr	r3, [r7, #12]
     752:	625a      	str	r2, [r3, #36]	; 0x24
			(packet->high_speed << SERCOM_I2CM_ADDR_HS_Pos) |
			SERCOM_I2CM_ADDR_TENBITEN;

		/* Wait for response on bus. */
		tmp_status = _i2c_master_wait_for_bus(module);
     754:	2317      	movs	r3, #23
     756:	18fc      	adds	r4, r7, r3
     758:	687b      	ldr	r3, [r7, #4]
     75a:	1c18      	adds	r0, r3, #0
     75c:	4b6d      	ldr	r3, [pc, #436]	; (914 <_i2c_master_read_packet+0x240>)
     75e:	4798      	blx	r3
     760:	1c03      	adds	r3, r0, #0
     762:	7023      	strb	r3, [r4, #0]

		/* Set action to ack. */
		i2c_module->CTRLB.reg &= ~SERCOM_I2CM_CTRLB_ACKACT;
     764:	68fb      	ldr	r3, [r7, #12]
     766:	685b      	ldr	r3, [r3, #4]
     768:	4a69      	ldr	r2, [pc, #420]	; (910 <_i2c_master_read_packet+0x23c>)
     76a:	401a      	ands	r2, r3
     76c:	68fb      	ldr	r3, [r7, #12]
     76e:	605a      	str	r2, [r3, #4]

		/* Check for address response error unless previous error is
		 * detected. */
		if (tmp_status == STATUS_OK) {
     770:	2317      	movs	r3, #23
     772:	18fb      	adds	r3, r7, r3
     774:	781b      	ldrb	r3, [r3, #0]
     776:	2b00      	cmp	r3, #0
     778:	d107      	bne.n	78a <_i2c_master_read_packet+0xb6>
			tmp_status = _i2c_master_address_response(module);
     77a:	2317      	movs	r3, #23
     77c:	18fc      	adds	r4, r7, r3
     77e:	687b      	ldr	r3, [r7, #4]
     780:	1c18      	adds	r0, r3, #0
     782:	4b65      	ldr	r3, [pc, #404]	; (918 <_i2c_master_read_packet+0x244>)
     784:	4798      	blx	r3
     786:	1c03      	adds	r3, r0, #0
     788:	7023      	strb	r3, [r4, #0]
		}

		if (tmp_status == STATUS_OK) {
     78a:	2317      	movs	r3, #23
     78c:	18fb      	adds	r3, r7, r3
     78e:	781b      	ldrb	r3, [r3, #0]
     790:	2b00      	cmp	r3, #0
     792:	d111      	bne.n	7b8 <_i2c_master_read_packet+0xe4>
			/*
			 * Write ADDR[7:0] register to 11110 address[9:8] 1.
			 * ADDR.TENBITEN must be cleared
			 */
			i2c_module->ADDR.reg = (((packet->address >> 8) | 0x78) << 1) |
     794:	683b      	ldr	r3, [r7, #0]
     796:	881b      	ldrh	r3, [r3, #0]
     798:	0a1b      	lsrs	r3, r3, #8
     79a:	b29b      	uxth	r3, r3
     79c:	2278      	movs	r2, #120	; 0x78
     79e:	4313      	orrs	r3, r2
     7a0:	b29b      	uxth	r3, r3
     7a2:	005a      	lsls	r2, r3, #1
				(packet->high_speed << SERCOM_I2CM_ADDR_HS_Pos) |
     7a4:	683b      	ldr	r3, [r7, #0]
     7a6:	7a5b      	ldrb	r3, [r3, #9]
     7a8:	039b      	lsls	r3, r3, #14
		if (tmp_status == STATUS_OK) {
			/*
			 * Write ADDR[7:0] register to 11110 address[9:8] 1.
			 * ADDR.TENBITEN must be cleared
			 */
			i2c_module->ADDR.reg = (((packet->address >> 8) | 0x78) << 1) |
     7aa:	4313      	orrs	r3, r2
				(packet->high_speed << SERCOM_I2CM_ADDR_HS_Pos) |
     7ac:	2201      	movs	r2, #1
     7ae:	4313      	orrs	r3, r2
		if (tmp_status == STATUS_OK) {
			/*
			 * Write ADDR[7:0] register to 11110 address[9:8] 1.
			 * ADDR.TENBITEN must be cleared
			 */
			i2c_module->ADDR.reg = (((packet->address >> 8) | 0x78) << 1) |
     7b0:	1c1a      	adds	r2, r3, #0
     7b2:	68fb      	ldr	r3, [r7, #12]
     7b4:	625a      	str	r2, [r3, #36]	; 0x24
     7b6:	e00f      	b.n	7d8 <_i2c_master_read_packet+0x104>
				(packet->high_speed << SERCOM_I2CM_ADDR_HS_Pos) |
				I2C_TRANSFER_READ;
		} else {
			return tmp_status;
     7b8:	2317      	movs	r3, #23
     7ba:	18fb      	adds	r3, r7, r3
     7bc:	781b      	ldrb	r3, [r3, #0]
     7be:	e0a0      	b.n	902 <_i2c_master_read_packet+0x22e>
		}
	} else {
		i2c_module->ADDR.reg = (packet->address << 1) | I2C_TRANSFER_READ |
     7c0:	683b      	ldr	r3, [r7, #0]
     7c2:	881b      	ldrh	r3, [r3, #0]
     7c4:	005b      	lsls	r3, r3, #1
     7c6:	2201      	movs	r2, #1
     7c8:	431a      	orrs	r2, r3
			(packet->high_speed << SERCOM_I2CM_ADDR_HS_Pos);
     7ca:	683b      	ldr	r3, [r7, #0]
     7cc:	7a5b      	ldrb	r3, [r3, #9]
     7ce:	039b      	lsls	r3, r3, #14
				I2C_TRANSFER_READ;
		} else {
			return tmp_status;
		}
	} else {
		i2c_module->ADDR.reg = (packet->address << 1) | I2C_TRANSFER_READ |
     7d0:	4313      	orrs	r3, r2
     7d2:	1c1a      	adds	r2, r3, #0
     7d4:	68fb      	ldr	r3, [r7, #12]
     7d6:	625a      	str	r2, [r3, #36]	; 0x24
			(packet->high_speed << SERCOM_I2CM_ADDR_HS_Pos);
	}

	/* Wait for response on bus. */
	tmp_status = _i2c_master_wait_for_bus(module);
     7d8:	2317      	movs	r3, #23
     7da:	18fc      	adds	r4, r7, r3
     7dc:	687b      	ldr	r3, [r7, #4]
     7de:	1c18      	adds	r0, r3, #0
     7e0:	4b4c      	ldr	r3, [pc, #304]	; (914 <_i2c_master_read_packet+0x240>)
     7e2:	4798      	blx	r3
     7e4:	1c03      	adds	r3, r0, #0
     7e6:	7023      	strb	r3, [r4, #0]

	/* Set action to ack. */
	i2c_module->CTRLB.reg &= ~SERCOM_I2CM_CTRLB_ACKACT;
     7e8:	68fb      	ldr	r3, [r7, #12]
     7ea:	685b      	ldr	r3, [r3, #4]
     7ec:	4a48      	ldr	r2, [pc, #288]	; (910 <_i2c_master_read_packet+0x23c>)
     7ee:	401a      	ands	r2, r3
     7f0:	68fb      	ldr	r3, [r7, #12]
     7f2:	605a      	str	r2, [r3, #4]

	/* Check for address response error unless previous error is
	 * detected. */
	if (tmp_status == STATUS_OK) {
     7f4:	2317      	movs	r3, #23
     7f6:	18fb      	adds	r3, r7, r3
     7f8:	781b      	ldrb	r3, [r3, #0]
     7fa:	2b00      	cmp	r3, #0
     7fc:	d107      	bne.n	80e <_i2c_master_read_packet+0x13a>
		tmp_status = _i2c_master_address_response(module);
     7fe:	2317      	movs	r3, #23
     800:	18fc      	adds	r4, r7, r3
     802:	687b      	ldr	r3, [r7, #4]
     804:	1c18      	adds	r0, r3, #0
     806:	4b44      	ldr	r3, [pc, #272]	; (918 <_i2c_master_read_packet+0x244>)
     808:	4798      	blx	r3
     80a:	1c03      	adds	r3, r0, #0
     80c:	7023      	strb	r3, [r4, #0]
	}

	/* Check that no error has occurred. */
	if (tmp_status == STATUS_OK) {
     80e:	2317      	movs	r3, #23
     810:	18fb      	adds	r3, r7, r3
     812:	781b      	ldrb	r3, [r3, #0]
     814:	2b00      	cmp	r3, #0
     816:	d000      	beq.n	81a <_i2c_master_read_packet+0x146>
     818:	e070      	b.n	8fc <_i2c_master_read_packet+0x228>
		/* Read data buffer. */
		while (tmp_data_length--) {
     81a:	e048      	b.n	8ae <_i2c_master_read_packet+0x1da>
			/* Check that bus ownership is not lost. */
			if (!(i2c_module->STATUS.reg & SERCOM_I2CM_STATUS_BUSSTATE(2))) {
     81c:	68fb      	ldr	r3, [r7, #12]
     81e:	8b5b      	ldrh	r3, [r3, #26]
     820:	b29b      	uxth	r3, r3
     822:	1c1a      	adds	r2, r3, #0
     824:	2320      	movs	r3, #32
     826:	4013      	ands	r3, r2
     828:	d101      	bne.n	82e <_i2c_master_read_packet+0x15a>
				return STATUS_ERR_PACKET_COLLISION;
     82a:	2341      	movs	r3, #65	; 0x41
     82c:	e069      	b.n	902 <_i2c_master_read_packet+0x22e>
			}

			if (((!sclsm_flag) && (tmp_data_length == 0)) ||
     82e:	230b      	movs	r3, #11
     830:	18fb      	adds	r3, r7, r3
     832:	781b      	ldrb	r3, [r3, #0]
     834:	2201      	movs	r2, #1
     836:	4053      	eors	r3, r2
     838:	b2db      	uxtb	r3, r3
     83a:	2b00      	cmp	r3, #0
     83c:	d004      	beq.n	848 <_i2c_master_read_packet+0x174>
     83e:	2314      	movs	r3, #20
     840:	18fb      	adds	r3, r7, r3
     842:	881b      	ldrh	r3, [r3, #0]
     844:	2b00      	cmp	r3, #0
     846:	d009      	beq.n	85c <_i2c_master_read_packet+0x188>
     848:	230b      	movs	r3, #11
     84a:	18fb      	adds	r3, r7, r3
     84c:	781b      	ldrb	r3, [r3, #0]
     84e:	2b00      	cmp	r3, #0
     850:	d00c      	beq.n	86c <_i2c_master_read_packet+0x198>
					((sclsm_flag) && (tmp_data_length == 1))) {
     852:	2314      	movs	r3, #20
     854:	18fb      	adds	r3, r7, r3
     856:	881b      	ldrh	r3, [r3, #0]
     858:	2b01      	cmp	r3, #1
     85a:	d107      	bne.n	86c <_i2c_master_read_packet+0x198>
				/* Set action to NACK */
				i2c_module->CTRLB.reg |= SERCOM_I2CM_CTRLB_ACKACT;
     85c:	68fb      	ldr	r3, [r7, #12]
     85e:	685b      	ldr	r3, [r3, #4]
     860:	2280      	movs	r2, #128	; 0x80
     862:	02d2      	lsls	r2, r2, #11
     864:	431a      	orrs	r2, r3
     866:	68fb      	ldr	r3, [r7, #12]
     868:	605a      	str	r2, [r3, #4]
     86a:	e01a      	b.n	8a2 <_i2c_master_read_packet+0x1ce>
			} else {
				/* Save data to buffer. */
				_i2c_master_wait_for_sync(module);
     86c:	687b      	ldr	r3, [r7, #4]
     86e:	1c18      	adds	r0, r3, #0
     870:	4b2a      	ldr	r3, [pc, #168]	; (91c <_i2c_master_read_packet+0x248>)
     872:	4798      	blx	r3
				packet->data[counter++] = i2c_module->DATA.reg;
     874:	683b      	ldr	r3, [r7, #0]
     876:	685a      	ldr	r2, [r3, #4]
     878:	2312      	movs	r3, #18
     87a:	18fb      	adds	r3, r7, r3
     87c:	881b      	ldrh	r3, [r3, #0]
     87e:	2112      	movs	r1, #18
     880:	1879      	adds	r1, r7, r1
     882:	1c58      	adds	r0, r3, #1
     884:	8008      	strh	r0, [r1, #0]
     886:	18d3      	adds	r3, r2, r3
     888:	68fa      	ldr	r2, [r7, #12]
     88a:	2128      	movs	r1, #40	; 0x28
     88c:	5c52      	ldrb	r2, [r2, r1]
     88e:	b2d2      	uxtb	r2, r2
     890:	701a      	strb	r2, [r3, #0]
				/* Wait for response. */
				tmp_status = _i2c_master_wait_for_bus(module);
     892:	2317      	movs	r3, #23
     894:	18fc      	adds	r4, r7, r3
     896:	687b      	ldr	r3, [r7, #4]
     898:	1c18      	adds	r0, r3, #0
     89a:	4b1e      	ldr	r3, [pc, #120]	; (914 <_i2c_master_read_packet+0x240>)
     89c:	4798      	blx	r3
     89e:	1c03      	adds	r3, r0, #0
     8a0:	7023      	strb	r3, [r4, #0]
			}

			/* Check for error. */
			if (tmp_status != STATUS_OK) {
     8a2:	2317      	movs	r3, #23
     8a4:	18fb      	adds	r3, r7, r3
     8a6:	781b      	ldrb	r3, [r3, #0]
     8a8:	2b00      	cmp	r3, #0
     8aa:	d000      	beq.n	8ae <_i2c_master_read_packet+0x1da>
				break;
     8ac:	e008      	b.n	8c0 <_i2c_master_read_packet+0x1ec>
	}

	/* Check that no error has occurred. */
	if (tmp_status == STATUS_OK) {
		/* Read data buffer. */
		while (tmp_data_length--) {
     8ae:	2314      	movs	r3, #20
     8b0:	18fb      	adds	r3, r7, r3
     8b2:	881b      	ldrh	r3, [r3, #0]
     8b4:	2214      	movs	r2, #20
     8b6:	18ba      	adds	r2, r7, r2
     8b8:	1e59      	subs	r1, r3, #1
     8ba:	8011      	strh	r1, [r2, #0]
     8bc:	2b00      	cmp	r3, #0
     8be:	d1ad      	bne.n	81c <_i2c_master_read_packet+0x148>
			if (tmp_status != STATUS_OK) {
				break;
			}
		}

		if (module->send_stop) {
     8c0:	687b      	ldr	r3, [r7, #4]
     8c2:	7a9b      	ldrb	r3, [r3, #10]
     8c4:	2b00      	cmp	r3, #0
     8c6:	d00a      	beq.n	8de <_i2c_master_read_packet+0x20a>
			/* Send stop command unless arbitration is lost. */
			_i2c_master_wait_for_sync(module);
     8c8:	687b      	ldr	r3, [r7, #4]
     8ca:	1c18      	adds	r0, r3, #0
     8cc:	4b13      	ldr	r3, [pc, #76]	; (91c <_i2c_master_read_packet+0x248>)
     8ce:	4798      	blx	r3
			i2c_module->CTRLB.reg |= SERCOM_I2CM_CTRLB_CMD(3);
     8d0:	68fb      	ldr	r3, [r7, #12]
     8d2:	685b      	ldr	r3, [r3, #4]
     8d4:	22c0      	movs	r2, #192	; 0xc0
     8d6:	0292      	lsls	r2, r2, #10
     8d8:	431a      	orrs	r2, r3
     8da:	68fb      	ldr	r3, [r7, #12]
     8dc:	605a      	str	r2, [r3, #4]
		}

		/* Save last data to buffer. */
		_i2c_master_wait_for_sync(module);
     8de:	687b      	ldr	r3, [r7, #4]
     8e0:	1c18      	adds	r0, r3, #0
     8e2:	4b0e      	ldr	r3, [pc, #56]	; (91c <_i2c_master_read_packet+0x248>)
     8e4:	4798      	blx	r3
		packet->data[counter] = i2c_module->DATA.reg;
     8e6:	683b      	ldr	r3, [r7, #0]
     8e8:	685a      	ldr	r2, [r3, #4]
     8ea:	2312      	movs	r3, #18
     8ec:	18fb      	adds	r3, r7, r3
     8ee:	881b      	ldrh	r3, [r3, #0]
     8f0:	18d3      	adds	r3, r2, r3
     8f2:	68fa      	ldr	r2, [r7, #12]
     8f4:	2128      	movs	r1, #40	; 0x28
     8f6:	5c52      	ldrb	r2, [r2, r1]
     8f8:	b2d2      	uxtb	r2, r2
     8fa:	701a      	strb	r2, [r3, #0]
	}

	return tmp_status;
     8fc:	2317      	movs	r3, #23
     8fe:	18fb      	adds	r3, r7, r3
     900:	781b      	ldrb	r3, [r3, #0]
}
     902:	1c18      	adds	r0, r3, #0
     904:	46bd      	mov	sp, r7
     906:	b007      	add	sp, #28
     908:	bd90      	pop	{r4, r7, pc}
     90a:	46c0      	nop			; (mov r8, r8)
     90c:	00000681 	.word	0x00000681
     910:	fffbffff 	.word	0xfffbffff
     914:	00000621 	.word	0x00000621
     918:	000005c1 	.word	0x000005c1
     91c:	00000279 	.word	0x00000279

00000920 <i2c_master_read_packet_wait>:
 *                                      acknowledged the address
 */
enum status_code i2c_master_read_packet_wait(
		struct i2c_master_module *const module,
		struct i2c_master_packet *const packet)
{
     920:	b580      	push	{r7, lr}
     922:	b082      	sub	sp, #8
     924:	af00      	add	r7, sp, #0
     926:	6078      	str	r0, [r7, #4]
     928:	6039      	str	r1, [r7, #0]
	if (module->buffer_remaining > 0) {
		return STATUS_BUSY;
	}
#endif

	module->send_stop = true;
     92a:	687b      	ldr	r3, [r7, #4]
     92c:	2201      	movs	r2, #1
     92e:	729a      	strb	r2, [r3, #10]

	return _i2c_master_read_packet(module, packet);
     930:	687a      	ldr	r2, [r7, #4]
     932:	683b      	ldr	r3, [r7, #0]
     934:	1c10      	adds	r0, r2, #0
     936:	1c19      	adds	r1, r3, #0
     938:	4b03      	ldr	r3, [pc, #12]	; (948 <i2c_master_read_packet_wait+0x28>)
     93a:	4798      	blx	r3
     93c:	1c03      	adds	r3, r0, #0
}
     93e:	1c18      	adds	r0, r3, #0
     940:	46bd      	mov	sp, r7
     942:	b002      	add	sp, #8
     944:	bd80      	pop	{r7, pc}
     946:	46c0      	nop			; (mov r8, r8)
     948:	000006d5 	.word	0x000006d5

0000094c <_i2c_master_write_packet>:
 *                                      acknowledged the address
 */
static enum status_code _i2c_master_write_packet(
		struct i2c_master_module *const module,
		struct i2c_master_packet *const packet)
{
     94c:	b590      	push	{r4, r7, lr}
     94e:	b087      	sub	sp, #28
     950:	af00      	add	r7, sp, #0
     952:	6078      	str	r0, [r7, #4]
     954:	6039      	str	r1, [r7, #0]
	SercomI2cm *const i2c_module = &(module->hw->I2CM);
     956:	687b      	ldr	r3, [r7, #4]
     958:	681b      	ldr	r3, [r3, #0]
     95a:	60fb      	str	r3, [r7, #12]

	/* Return value. */
	enum status_code tmp_status;
	uint16_t tmp_data_length = packet->data_length;
     95c:	2314      	movs	r3, #20
     95e:	18fb      	adds	r3, r7, r3
     960:	683a      	ldr	r2, [r7, #0]
     962:	8852      	ldrh	r2, [r2, #2]
     964:	801a      	strh	r2, [r3, #0]

	_i2c_master_wait_for_sync(module);
     966:	687b      	ldr	r3, [r7, #4]
     968:	1c18      	adds	r0, r3, #0
     96a:	4b51      	ldr	r3, [pc, #324]	; (ab0 <_i2c_master_write_packet+0x164>)
     96c:	4798      	blx	r3

	/* Switch to high speed mode */
	if (packet->high_speed) {
     96e:	683b      	ldr	r3, [r7, #0]
     970:	7a5b      	ldrb	r3, [r3, #9]
     972:	2b00      	cmp	r3, #0
     974:	d006      	beq.n	984 <_i2c_master_write_packet+0x38>
		_i2c_master_send_hs_master_code(module, packet->hs_master_code);
     976:	683b      	ldr	r3, [r7, #0]
     978:	7a9b      	ldrb	r3, [r3, #10]
     97a:	687a      	ldr	r2, [r7, #4]
     97c:	1c10      	adds	r0, r2, #0
     97e:	1c19      	adds	r1, r3, #0
     980:	4b4c      	ldr	r3, [pc, #304]	; (ab4 <_i2c_master_write_packet+0x168>)
     982:	4798      	blx	r3
	}

	/* Set action to ACK. */
	i2c_module->CTRLB.reg &= ~SERCOM_I2CM_CTRLB_ACKACT;
     984:	68fb      	ldr	r3, [r7, #12]
     986:	685b      	ldr	r3, [r3, #4]
     988:	4a4b      	ldr	r2, [pc, #300]	; (ab8 <_i2c_master_write_packet+0x16c>)
     98a:	401a      	ands	r2, r3
     98c:	68fb      	ldr	r3, [r7, #12]
     98e:	605a      	str	r2, [r3, #4]

	/* Set address and direction bit. Will send start command on bus. */
	if (packet->ten_bit_address) {
     990:	683b      	ldr	r3, [r7, #0]
     992:	7a1b      	ldrb	r3, [r3, #8]
     994:	2b00      	cmp	r3, #0
     996:	d00d      	beq.n	9b4 <_i2c_master_write_packet+0x68>
		i2c_module->ADDR.reg = (packet->address << 1) | I2C_TRANSFER_WRITE |
     998:	683b      	ldr	r3, [r7, #0]
     99a:	881b      	ldrh	r3, [r3, #0]
     99c:	005a      	lsls	r2, r3, #1
			(packet->high_speed << SERCOM_I2CM_ADDR_HS_Pos) |
     99e:	683b      	ldr	r3, [r7, #0]
     9a0:	7a5b      	ldrb	r3, [r3, #9]
     9a2:	039b      	lsls	r3, r3, #14
	/* Set action to ACK. */
	i2c_module->CTRLB.reg &= ~SERCOM_I2CM_CTRLB_ACKACT;

	/* Set address and direction bit. Will send start command on bus. */
	if (packet->ten_bit_address) {
		i2c_module->ADDR.reg = (packet->address << 1) | I2C_TRANSFER_WRITE |
     9a4:	4313      	orrs	r3, r2
     9a6:	1c1a      	adds	r2, r3, #0
			(packet->high_speed << SERCOM_I2CM_ADDR_HS_Pos) |
     9a8:	2380      	movs	r3, #128	; 0x80
     9aa:	021b      	lsls	r3, r3, #8
     9ac:	431a      	orrs	r2, r3
	/* Set action to ACK. */
	i2c_module->CTRLB.reg &= ~SERCOM_I2CM_CTRLB_ACKACT;

	/* Set address and direction bit. Will send start command on bus. */
	if (packet->ten_bit_address) {
		i2c_module->ADDR.reg = (packet->address << 1) | I2C_TRANSFER_WRITE |
     9ae:	68fb      	ldr	r3, [r7, #12]
     9b0:	625a      	str	r2, [r3, #36]	; 0x24
     9b2:	e009      	b.n	9c8 <_i2c_master_write_packet+0x7c>
			(packet->high_speed << SERCOM_I2CM_ADDR_HS_Pos) |
			SERCOM_I2CM_ADDR_TENBITEN;
	} else {
		i2c_module->ADDR.reg = (packet->address << 1) | I2C_TRANSFER_WRITE |
     9b4:	683b      	ldr	r3, [r7, #0]
     9b6:	881b      	ldrh	r3, [r3, #0]
     9b8:	005a      	lsls	r2, r3, #1
			(packet->high_speed << SERCOM_I2CM_ADDR_HS_Pos);
     9ba:	683b      	ldr	r3, [r7, #0]
     9bc:	7a5b      	ldrb	r3, [r3, #9]
     9be:	039b      	lsls	r3, r3, #14
	if (packet->ten_bit_address) {
		i2c_module->ADDR.reg = (packet->address << 1) | I2C_TRANSFER_WRITE |
			(packet->high_speed << SERCOM_I2CM_ADDR_HS_Pos) |
			SERCOM_I2CM_ADDR_TENBITEN;
	} else {
		i2c_module->ADDR.reg = (packet->address << 1) | I2C_TRANSFER_WRITE |
     9c0:	4313      	orrs	r3, r2
     9c2:	1c1a      	adds	r2, r3, #0
     9c4:	68fb      	ldr	r3, [r7, #12]
     9c6:	625a      	str	r2, [r3, #36]	; 0x24
			(packet->high_speed << SERCOM_I2CM_ADDR_HS_Pos);
	}
	/* Wait for response on bus. */
	tmp_status = _i2c_master_wait_for_bus(module);
     9c8:	2317      	movs	r3, #23
     9ca:	18fc      	adds	r4, r7, r3
     9cc:	687b      	ldr	r3, [r7, #4]
     9ce:	1c18      	adds	r0, r3, #0
     9d0:	4b3a      	ldr	r3, [pc, #232]	; (abc <_i2c_master_write_packet+0x170>)
     9d2:	4798      	blx	r3
     9d4:	1c03      	adds	r3, r0, #0
     9d6:	7023      	strb	r3, [r4, #0]

	/* Check for address response error unless previous error is
	 * detected. */
	if (tmp_status == STATUS_OK) {
     9d8:	2317      	movs	r3, #23
     9da:	18fb      	adds	r3, r7, r3
     9dc:	781b      	ldrb	r3, [r3, #0]
     9de:	2b00      	cmp	r3, #0
     9e0:	d107      	bne.n	9f2 <_i2c_master_write_packet+0xa6>
		tmp_status = _i2c_master_address_response(module);
     9e2:	2317      	movs	r3, #23
     9e4:	18fc      	adds	r4, r7, r3
     9e6:	687b      	ldr	r3, [r7, #4]
     9e8:	1c18      	adds	r0, r3, #0
     9ea:	4b35      	ldr	r3, [pc, #212]	; (ac0 <_i2c_master_write_packet+0x174>)
     9ec:	4798      	blx	r3
     9ee:	1c03      	adds	r3, r0, #0
     9f0:	7023      	strb	r3, [r4, #0]
	}

	/* Check that no error has occurred. */
	if (tmp_status == STATUS_OK) {
     9f2:	2317      	movs	r3, #23
     9f4:	18fb      	adds	r3, r7, r3
     9f6:	781b      	ldrb	r3, [r3, #0]
     9f8:	2b00      	cmp	r3, #0
     9fa:	d151      	bne.n	aa0 <_i2c_master_write_packet+0x154>
		/* Buffer counter. */
		uint16_t buffer_counter = 0;
     9fc:	2312      	movs	r3, #18
     9fe:	18fb      	adds	r3, r7, r3
     a00:	2200      	movs	r2, #0
     a02:	801a      	strh	r2, [r3, #0]

		/* Write data buffer. */
		while (tmp_data_length--) {
     a04:	e034      	b.n	a70 <_i2c_master_write_packet+0x124>
			/* Check that bus ownership is not lost. */
			if (!(i2c_module->STATUS.reg & SERCOM_I2CM_STATUS_BUSSTATE(2))) {
     a06:	68fb      	ldr	r3, [r7, #12]
     a08:	8b5b      	ldrh	r3, [r3, #26]
     a0a:	b29b      	uxth	r3, r3
     a0c:	1c1a      	adds	r2, r3, #0
     a0e:	2320      	movs	r3, #32
     a10:	4013      	ands	r3, r2
     a12:	d101      	bne.n	a18 <_i2c_master_write_packet+0xcc>
				return STATUS_ERR_PACKET_COLLISION;
     a14:	2341      	movs	r3, #65	; 0x41
     a16:	e046      	b.n	aa6 <_i2c_master_write_packet+0x15a>
			}

			/* Write byte to slave. */
			_i2c_master_wait_for_sync(module);
     a18:	687b      	ldr	r3, [r7, #4]
     a1a:	1c18      	adds	r0, r3, #0
     a1c:	4b24      	ldr	r3, [pc, #144]	; (ab0 <_i2c_master_write_packet+0x164>)
     a1e:	4798      	blx	r3
			i2c_module->DATA.reg = packet->data[buffer_counter++];
     a20:	683b      	ldr	r3, [r7, #0]
     a22:	685a      	ldr	r2, [r3, #4]
     a24:	2312      	movs	r3, #18
     a26:	18fb      	adds	r3, r7, r3
     a28:	881b      	ldrh	r3, [r3, #0]
     a2a:	2112      	movs	r1, #18
     a2c:	1879      	adds	r1, r7, r1
     a2e:	1c58      	adds	r0, r3, #1
     a30:	8008      	strh	r0, [r1, #0]
     a32:	18d3      	adds	r3, r2, r3
     a34:	7819      	ldrb	r1, [r3, #0]
     a36:	68fb      	ldr	r3, [r7, #12]
     a38:	2228      	movs	r2, #40	; 0x28
     a3a:	5499      	strb	r1, [r3, r2]

			/* Wait for response. */
			tmp_status = _i2c_master_wait_for_bus(module);
     a3c:	2317      	movs	r3, #23
     a3e:	18fc      	adds	r4, r7, r3
     a40:	687b      	ldr	r3, [r7, #4]
     a42:	1c18      	adds	r0, r3, #0
     a44:	4b1d      	ldr	r3, [pc, #116]	; (abc <_i2c_master_write_packet+0x170>)
     a46:	4798      	blx	r3
     a48:	1c03      	adds	r3, r0, #0
     a4a:	7023      	strb	r3, [r4, #0]

			/* Check for error. */
			if (tmp_status != STATUS_OK) {
     a4c:	2317      	movs	r3, #23
     a4e:	18fb      	adds	r3, r7, r3
     a50:	781b      	ldrb	r3, [r3, #0]
     a52:	2b00      	cmp	r3, #0
     a54:	d000      	beq.n	a58 <_i2c_master_write_packet+0x10c>
				break;
     a56:	e014      	b.n	a82 <_i2c_master_write_packet+0x136>
			}

			/* Check for NACK from slave. */
			if (i2c_module->STATUS.reg & SERCOM_I2CM_STATUS_RXNACK) {
     a58:	68fb      	ldr	r3, [r7, #12]
     a5a:	8b5b      	ldrh	r3, [r3, #26]
     a5c:	b29b      	uxth	r3, r3
     a5e:	1c1a      	adds	r2, r3, #0
     a60:	2304      	movs	r3, #4
     a62:	4013      	ands	r3, r2
     a64:	d004      	beq.n	a70 <_i2c_master_write_packet+0x124>
				/* Return bad data value. */
				tmp_status = STATUS_ERR_OVERFLOW;
     a66:	2317      	movs	r3, #23
     a68:	18fb      	adds	r3, r7, r3
     a6a:	221e      	movs	r2, #30
     a6c:	701a      	strb	r2, [r3, #0]
				break;
     a6e:	e008      	b.n	a82 <_i2c_master_write_packet+0x136>
	if (tmp_status == STATUS_OK) {
		/* Buffer counter. */
		uint16_t buffer_counter = 0;

		/* Write data buffer. */
		while (tmp_data_length--) {
     a70:	2314      	movs	r3, #20
     a72:	18fb      	adds	r3, r7, r3
     a74:	881b      	ldrh	r3, [r3, #0]
     a76:	2214      	movs	r2, #20
     a78:	18ba      	adds	r2, r7, r2
     a7a:	1e59      	subs	r1, r3, #1
     a7c:	8011      	strh	r1, [r2, #0]
     a7e:	2b00      	cmp	r3, #0
     a80:	d1c1      	bne.n	a06 <_i2c_master_write_packet+0xba>
				tmp_status = STATUS_ERR_OVERFLOW;
				break;
			}
		}

		if (module->send_stop) {
     a82:	687b      	ldr	r3, [r7, #4]
     a84:	7a9b      	ldrb	r3, [r3, #10]
     a86:	2b00      	cmp	r3, #0
     a88:	d00a      	beq.n	aa0 <_i2c_master_write_packet+0x154>
			/* Stop command */
			_i2c_master_wait_for_sync(module);
     a8a:	687b      	ldr	r3, [r7, #4]
     a8c:	1c18      	adds	r0, r3, #0
     a8e:	4b08      	ldr	r3, [pc, #32]	; (ab0 <_i2c_master_write_packet+0x164>)
     a90:	4798      	blx	r3
			i2c_module->CTRLB.reg |= SERCOM_I2CM_CTRLB_CMD(3);
     a92:	68fb      	ldr	r3, [r7, #12]
     a94:	685b      	ldr	r3, [r3, #4]
     a96:	22c0      	movs	r2, #192	; 0xc0
     a98:	0292      	lsls	r2, r2, #10
     a9a:	431a      	orrs	r2, r3
     a9c:	68fb      	ldr	r3, [r7, #12]
     a9e:	605a      	str	r2, [r3, #4]
		}
	}

	return tmp_status;
     aa0:	2317      	movs	r3, #23
     aa2:	18fb      	adds	r3, r7, r3
     aa4:	781b      	ldrb	r3, [r3, #0]
}
     aa6:	1c18      	adds	r0, r3, #0
     aa8:	46bd      	mov	sp, r7
     aaa:	b007      	add	sp, #28
     aac:	bd90      	pop	{r4, r7, pc}
     aae:	46c0      	nop			; (mov r8, r8)
     ab0:	00000279 	.word	0x00000279
     ab4:	00000681 	.word	0x00000681
     ab8:	fffbffff 	.word	0xfffbffff
     abc:	00000621 	.word	0x00000621
     ac0:	000005c1 	.word	0x000005c1

00000ac4 <i2c_master_write_packet_wait>:
 *                                      last data sent
 */
enum status_code i2c_master_write_packet_wait(
		struct i2c_master_module *const module,
		struct i2c_master_packet *const packet)
{
     ac4:	b580      	push	{r7, lr}
     ac6:	b082      	sub	sp, #8
     ac8:	af00      	add	r7, sp, #0
     aca:	6078      	str	r0, [r7, #4]
     acc:	6039      	str	r1, [r7, #0]
	if (module->buffer_remaining > 0) {
		return STATUS_BUSY;
	}
#endif

	module->send_stop = true;
     ace:	687b      	ldr	r3, [r7, #4]
     ad0:	2201      	movs	r2, #1
     ad2:	729a      	strb	r2, [r3, #10]

	return _i2c_master_write_packet(module, packet);
     ad4:	687a      	ldr	r2, [r7, #4]
     ad6:	683b      	ldr	r3, [r7, #0]
     ad8:	1c10      	adds	r0, r2, #0
     ada:	1c19      	adds	r1, r3, #0
     adc:	4b03      	ldr	r3, [pc, #12]	; (aec <i2c_master_write_packet_wait+0x28>)
     ade:	4798      	blx	r3
     ae0:	1c03      	adds	r3, r0, #0
}
     ae2:	1c18      	adds	r0, r3, #0
     ae4:	46bd      	mov	sp, r7
     ae6:	b002      	add	sp, #8
     ae8:	bd80      	pop	{r7, pc}
     aea:	46c0      	nop			; (mov r8, r8)
     aec:	0000094d 	.word	0x0000094d

00000af0 <system_gclk_chan_get_config_defaults>:
 *
 * \param[out] config  Configuration structure to initialize to default values
 */
static inline void system_gclk_chan_get_config_defaults(
		struct system_gclk_chan_config *const config)
{
     af0:	b580      	push	{r7, lr}
     af2:	b082      	sub	sp, #8
     af4:	af00      	add	r7, sp, #0
     af6:	6078      	str	r0, [r7, #4]
	/* Sanity check arguments */
	Assert(config);

	/* Default configuration values */
	config->source_generator = GCLK_GENERATOR_0;
     af8:	687b      	ldr	r3, [r7, #4]
     afa:	2200      	movs	r2, #0
     afc:	701a      	strb	r2, [r3, #0]
}
     afe:	46bd      	mov	sp, r7
     b00:	b002      	add	sp, #8
     b02:	bd80      	pop	{r7, pc}

00000b04 <long_division>:
/**
 * \internal Calculate 64 bit division, ref can be found in
 * http://en.wikipedia.org/wiki/Division_algorithm#Long_division
 */
static uint64_t long_division(uint64_t n, uint64_t d)
{
     b04:	b5f0      	push	{r4, r5, r6, r7, lr}
     b06:	b08d      	sub	sp, #52	; 0x34
     b08:	af00      	add	r7, sp, #0
     b0a:	60b8      	str	r0, [r7, #8]
     b0c:	60f9      	str	r1, [r7, #12]
     b0e:	603a      	str	r2, [r7, #0]
     b10:	607b      	str	r3, [r7, #4]
	int32_t i;
	uint64_t q = 0, r = 0, bit_shift;
     b12:	2300      	movs	r3, #0
     b14:	2400      	movs	r4, #0
     b16:	623b      	str	r3, [r7, #32]
     b18:	627c      	str	r4, [r7, #36]	; 0x24
     b1a:	2300      	movs	r3, #0
     b1c:	2400      	movs	r4, #0
     b1e:	61bb      	str	r3, [r7, #24]
     b20:	61fc      	str	r4, [r7, #28]
	for (i = 63; i >= 0; i--) {
     b22:	233f      	movs	r3, #63	; 0x3f
     b24:	62fb      	str	r3, [r7, #44]	; 0x2c
     b26:	e053      	b.n	bd0 <long_division+0xcc>
		bit_shift = (uint64_t)1 << i;
     b28:	6afb      	ldr	r3, [r7, #44]	; 0x2c
     b2a:	3b20      	subs	r3, #32
     b2c:	2b00      	cmp	r3, #0
     b2e:	db04      	blt.n	b3a <long_division+0x36>
     b30:	2201      	movs	r2, #1
     b32:	409a      	lsls	r2, r3
     b34:	1c13      	adds	r3, r2, #0
     b36:	617b      	str	r3, [r7, #20]
     b38:	e00b      	b.n	b52 <long_division+0x4e>
     b3a:	6afb      	ldr	r3, [r7, #44]	; 0x2c
     b3c:	2220      	movs	r2, #32
     b3e:	1ad3      	subs	r3, r2, r3
     b40:	2201      	movs	r2, #1
     b42:	40da      	lsrs	r2, r3
     b44:	1c13      	adds	r3, r2, #0
     b46:	2100      	movs	r1, #0
     b48:	6afa      	ldr	r2, [r7, #44]	; 0x2c
     b4a:	4091      	lsls	r1, r2
     b4c:	1c0a      	adds	r2, r1, #0
     b4e:	4313      	orrs	r3, r2
     b50:	617b      	str	r3, [r7, #20]
     b52:	2201      	movs	r2, #1
     b54:	6afb      	ldr	r3, [r7, #44]	; 0x2c
     b56:	409a      	lsls	r2, r3
     b58:	1c13      	adds	r3, r2, #0
     b5a:	613b      	str	r3, [r7, #16]

		r = r << 1;
     b5c:	69bb      	ldr	r3, [r7, #24]
     b5e:	69fc      	ldr	r4, [r7, #28]
     b60:	18db      	adds	r3, r3, r3
     b62:	4164      	adcs	r4, r4
     b64:	61bb      	str	r3, [r7, #24]
     b66:	61fc      	str	r4, [r7, #28]

		if (n & bit_shift) {
     b68:	68bb      	ldr	r3, [r7, #8]
     b6a:	693a      	ldr	r2, [r7, #16]
     b6c:	401a      	ands	r2, r3
     b6e:	1c15      	adds	r5, r2, #0
     b70:	68fb      	ldr	r3, [r7, #12]
     b72:	697a      	ldr	r2, [r7, #20]
     b74:	401a      	ands	r2, r3
     b76:	1c16      	adds	r6, r2, #0
     b78:	1c2b      	adds	r3, r5, #0
     b7a:	4333      	orrs	r3, r6
     b7c:	d007      	beq.n	b8e <long_division+0x8a>
			r |= 0x01;
     b7e:	69bb      	ldr	r3, [r7, #24]
     b80:	2201      	movs	r2, #1
     b82:	4313      	orrs	r3, r2
     b84:	61bb      	str	r3, [r7, #24]
     b86:	69fb      	ldr	r3, [r7, #28]
     b88:	2200      	movs	r2, #0
     b8a:	4313      	orrs	r3, r2
     b8c:	61fb      	str	r3, [r7, #28]
		}

		if (r >= d) {
     b8e:	687a      	ldr	r2, [r7, #4]
     b90:	69fb      	ldr	r3, [r7, #28]
     b92:	429a      	cmp	r2, r3
     b94:	d819      	bhi.n	bca <long_division+0xc6>
     b96:	687a      	ldr	r2, [r7, #4]
     b98:	69fb      	ldr	r3, [r7, #28]
     b9a:	429a      	cmp	r2, r3
     b9c:	d103      	bne.n	ba6 <long_division+0xa2>
     b9e:	683a      	ldr	r2, [r7, #0]
     ba0:	69bb      	ldr	r3, [r7, #24]
     ba2:	429a      	cmp	r2, r3
     ba4:	d811      	bhi.n	bca <long_division+0xc6>
			r = r - d;
     ba6:	69b9      	ldr	r1, [r7, #24]
     ba8:	69fa      	ldr	r2, [r7, #28]
     baa:	683b      	ldr	r3, [r7, #0]
     bac:	687c      	ldr	r4, [r7, #4]
     bae:	1ac9      	subs	r1, r1, r3
     bb0:	41a2      	sbcs	r2, r4
     bb2:	1c0b      	adds	r3, r1, #0
     bb4:	1c14      	adds	r4, r2, #0
     bb6:	61bb      	str	r3, [r7, #24]
     bb8:	61fc      	str	r4, [r7, #28]
			q |= bit_shift;
     bba:	6a3a      	ldr	r2, [r7, #32]
     bbc:	693b      	ldr	r3, [r7, #16]
     bbe:	4313      	orrs	r3, r2
     bc0:	623b      	str	r3, [r7, #32]
     bc2:	6a7a      	ldr	r2, [r7, #36]	; 0x24
     bc4:	697b      	ldr	r3, [r7, #20]
     bc6:	4313      	orrs	r3, r2
     bc8:	627b      	str	r3, [r7, #36]	; 0x24
 */
static uint64_t long_division(uint64_t n, uint64_t d)
{
	int32_t i;
	uint64_t q = 0, r = 0, bit_shift;
	for (i = 63; i >= 0; i--) {
     bca:	6afb      	ldr	r3, [r7, #44]	; 0x2c
     bcc:	3b01      	subs	r3, #1
     bce:	62fb      	str	r3, [r7, #44]	; 0x2c
     bd0:	6afb      	ldr	r3, [r7, #44]	; 0x2c
     bd2:	2b00      	cmp	r3, #0
     bd4:	daa8      	bge.n	b28 <long_division+0x24>
			r = r - d;
			q |= bit_shift;
		}
	}

	return q;
     bd6:	6a3b      	ldr	r3, [r7, #32]
     bd8:	6a7c      	ldr	r4, [r7, #36]	; 0x24
}
     bda:	1c18      	adds	r0, r3, #0
     bdc:	1c21      	adds	r1, r4, #0
     bde:	46bd      	mov	sp, r7
     be0:	b00d      	add	sp, #52	; 0x34
     be2:	bdf0      	pop	{r4, r5, r6, r7, pc}

00000be4 <_sercom_get_sync_baud_val>:
 */
enum status_code _sercom_get_sync_baud_val(
		const uint32_t baudrate,
		const uint32_t external_clock,
		uint16_t *const baudvalue)
{
     be4:	b580      	push	{r7, lr}
     be6:	b086      	sub	sp, #24
     be8:	af00      	add	r7, sp, #0
     bea:	60f8      	str	r0, [r7, #12]
     bec:	60b9      	str	r1, [r7, #8]
     bee:	607a      	str	r2, [r7, #4]
	/* Baud value variable */
	uint16_t baud_calculated = 0;
     bf0:	2316      	movs	r3, #22
     bf2:	18fb      	adds	r3, r7, r3
     bf4:	2200      	movs	r2, #0
     bf6:	801a      	strh	r2, [r3, #0]
	uint32_t clock_value = external_clock;
     bf8:	68bb      	ldr	r3, [r7, #8]
     bfa:	613b      	str	r3, [r7, #16]


	/* Check if baudrate is outside of valid range. */
	if (baudrate > (external_clock / 2)) {
     bfc:	68bb      	ldr	r3, [r7, #8]
     bfe:	085a      	lsrs	r2, r3, #1
     c00:	68fb      	ldr	r3, [r7, #12]
     c02:	429a      	cmp	r2, r3
     c04:	d201      	bcs.n	c0a <_sercom_get_sync_baud_val+0x26>
		/* Return with error code */
		return STATUS_ERR_BAUDRATE_UNAVAILABLE;
     c06:	2340      	movs	r3, #64	; 0x40
     c08:	e026      	b.n	c58 <_sercom_get_sync_baud_val+0x74>
	}

	/* Calculate BAUD value from clock frequency and baudrate */
	clock_value = external_clock / 2;
     c0a:	68bb      	ldr	r3, [r7, #8]
     c0c:	085b      	lsrs	r3, r3, #1
     c0e:	613b      	str	r3, [r7, #16]
	while (clock_value >= baudrate) {
     c10:	e00a      	b.n	c28 <_sercom_get_sync_baud_val+0x44>
		clock_value = clock_value - baudrate;
     c12:	693a      	ldr	r2, [r7, #16]
     c14:	68fb      	ldr	r3, [r7, #12]
     c16:	1ad3      	subs	r3, r2, r3
     c18:	613b      	str	r3, [r7, #16]
		baud_calculated++;
     c1a:	2316      	movs	r3, #22
     c1c:	18fb      	adds	r3, r7, r3
     c1e:	881a      	ldrh	r2, [r3, #0]
     c20:	2316      	movs	r3, #22
     c22:	18fb      	adds	r3, r7, r3
     c24:	3201      	adds	r2, #1
     c26:	801a      	strh	r2, [r3, #0]
		return STATUS_ERR_BAUDRATE_UNAVAILABLE;
	}

	/* Calculate BAUD value from clock frequency and baudrate */
	clock_value = external_clock / 2;
	while (clock_value >= baudrate) {
     c28:	693a      	ldr	r2, [r7, #16]
     c2a:	68fb      	ldr	r3, [r7, #12]
     c2c:	429a      	cmp	r2, r3
     c2e:	d2f0      	bcs.n	c12 <_sercom_get_sync_baud_val+0x2e>
		clock_value = clock_value - baudrate;
		baud_calculated++;
	}
	baud_calculated = baud_calculated - 1;
     c30:	2316      	movs	r3, #22
     c32:	18fb      	adds	r3, r7, r3
     c34:	2216      	movs	r2, #22
     c36:	18ba      	adds	r2, r7, r2
     c38:	8812      	ldrh	r2, [r2, #0]
     c3a:	3a01      	subs	r2, #1
     c3c:	801a      	strh	r2, [r3, #0]

	/* Check if BAUD value is more than 255, which is maximum
	 * for synchronous mode */
	if (baud_calculated > 0xFF) {
     c3e:	2316      	movs	r3, #22
     c40:	18fb      	adds	r3, r7, r3
     c42:	881b      	ldrh	r3, [r3, #0]
     c44:	2bff      	cmp	r3, #255	; 0xff
     c46:	d901      	bls.n	c4c <_sercom_get_sync_baud_val+0x68>
		/* Return with an error code */
		return STATUS_ERR_BAUDRATE_UNAVAILABLE;
     c48:	2340      	movs	r3, #64	; 0x40
     c4a:	e005      	b.n	c58 <_sercom_get_sync_baud_val+0x74>
	} else {
		*baudvalue = baud_calculated;
     c4c:	687b      	ldr	r3, [r7, #4]
     c4e:	2216      	movs	r2, #22
     c50:	18ba      	adds	r2, r7, r2
     c52:	8812      	ldrh	r2, [r2, #0]
     c54:	801a      	strh	r2, [r3, #0]
		return STATUS_OK;
     c56:	2300      	movs	r3, #0
	}
}
     c58:	1c18      	adds	r0, r3, #0
     c5a:	46bd      	mov	sp, r7
     c5c:	b006      	add	sp, #24
     c5e:	bd80      	pop	{r7, pc}

00000c60 <_sercom_get_async_baud_val>:
		const uint32_t baudrate,
		const uint32_t peripheral_clock,
		uint16_t *const baudval,
		enum sercom_asynchronous_operation_mode mode,
		enum sercom_asynchronous_sample_num sample_num)
{
     c60:	b5f0      	push	{r4, r5, r6, r7, lr}
     c62:	b09d      	sub	sp, #116	; 0x74
     c64:	af00      	add	r7, sp, #0
     c66:	63f8      	str	r0, [r7, #60]	; 0x3c
     c68:	63b9      	str	r1, [r7, #56]	; 0x38
     c6a:	637a      	str	r2, [r7, #52]	; 0x34
     c6c:	2233      	movs	r2, #51	; 0x33
     c6e:	18ba      	adds	r2, r7, r2
     c70:	7013      	strb	r3, [r2, #0]
	/* Temporary variables  */
	uint64_t ratio = 0;
     c72:	2300      	movs	r3, #0
     c74:	2400      	movs	r4, #0
     c76:	65bb      	str	r3, [r7, #88]	; 0x58
     c78:	65fc      	str	r4, [r7, #92]	; 0x5c
	uint64_t scale = 0;
     c7a:	2300      	movs	r3, #0
     c7c:	2400      	movs	r4, #0
     c7e:	653b      	str	r3, [r7, #80]	; 0x50
     c80:	657c      	str	r4, [r7, #84]	; 0x54
	uint64_t baud_calculated = 0;
     c82:	2300      	movs	r3, #0
     c84:	2400      	movs	r4, #0
     c86:	66bb      	str	r3, [r7, #104]	; 0x68
     c88:	66fc      	str	r4, [r7, #108]	; 0x6c
	uint8_t baud_fp;
	uint32_t baud_int = 0;
     c8a:	2300      	movs	r3, #0
     c8c:	663b      	str	r3, [r7, #96]	; 0x60
	uint64_t temp1, temp2;

	/* Check if the baudrate is outside of valid range */
	if ((baudrate * sample_num) > peripheral_clock) {
     c8e:	2358      	movs	r3, #88	; 0x58
     c90:	2230      	movs	r2, #48	; 0x30
     c92:	4694      	mov	ip, r2
     c94:	44bc      	add	ip, r7
     c96:	4463      	add	r3, ip
     c98:	781a      	ldrb	r2, [r3, #0]
     c9a:	6bfb      	ldr	r3, [r7, #60]	; 0x3c
     c9c:	435a      	muls	r2, r3
     c9e:	6bbb      	ldr	r3, [r7, #56]	; 0x38
     ca0:	429a      	cmp	r2, r3
     ca2:	d901      	bls.n	ca8 <_sercom_get_async_baud_val+0x48>
		/* Return with error code */
		return STATUS_ERR_BAUDRATE_UNAVAILABLE;
     ca4:	2340      	movs	r3, #64	; 0x40
     ca6:	e0c9      	b.n	e3c <_sercom_get_async_baud_val+0x1dc>
	}

	if(mode == SERCOM_ASYNC_OPERATION_MODE_ARITHMETIC) {
     ca8:	2333      	movs	r3, #51	; 0x33
     caa:	18fb      	adds	r3, r7, r3
     cac:	781b      	ldrb	r3, [r3, #0]
     cae:	2b00      	cmp	r3, #0
     cb0:	d13f      	bne.n	d32 <_sercom_get_async_baud_val+0xd2>
		/* Calculate the BAUD value */
		temp1 = ((sample_num * (uint64_t)baudrate) << SHIFT);
     cb2:	2358      	movs	r3, #88	; 0x58
     cb4:	2230      	movs	r2, #48	; 0x30
     cb6:	4694      	mov	ip, r2
     cb8:	44bc      	add	ip, r7
     cba:	4463      	add	r3, ip
     cbc:	781b      	ldrb	r3, [r3, #0]
     cbe:	b2db      	uxtb	r3, r3
     cc0:	613b      	str	r3, [r7, #16]
     cc2:	2300      	movs	r3, #0
     cc4:	617b      	str	r3, [r7, #20]
     cc6:	6bfb      	ldr	r3, [r7, #60]	; 0x3c
     cc8:	60bb      	str	r3, [r7, #8]
     cca:	2300      	movs	r3, #0
     ccc:	60fb      	str	r3, [r7, #12]
     cce:	4c5d      	ldr	r4, [pc, #372]	; (e44 <_sercom_get_async_baud_val+0x1e4>)
     cd0:	6938      	ldr	r0, [r7, #16]
     cd2:	6979      	ldr	r1, [r7, #20]
     cd4:	68ba      	ldr	r2, [r7, #8]
     cd6:	68fb      	ldr	r3, [r7, #12]
     cd8:	47a0      	blx	r4
     cda:	1c03      	adds	r3, r0, #0
     cdc:	1c0c      	adds	r4, r1, #0
     cde:	001b      	movs	r3, r3
     ce0:	64fb      	str	r3, [r7, #76]	; 0x4c
     ce2:	2300      	movs	r3, #0
     ce4:	64bb      	str	r3, [r7, #72]	; 0x48
		ratio = long_division(temp1, peripheral_clock);
     ce6:	6bbb      	ldr	r3, [r7, #56]	; 0x38
     ce8:	603b      	str	r3, [r7, #0]
     cea:	2300      	movs	r3, #0
     cec:	607b      	str	r3, [r7, #4]
     cee:	6cbb      	ldr	r3, [r7, #72]	; 0x48
     cf0:	6cfc      	ldr	r4, [r7, #76]	; 0x4c
     cf2:	1c18      	adds	r0, r3, #0
     cf4:	1c21      	adds	r1, r4, #0
     cf6:	683a      	ldr	r2, [r7, #0]
     cf8:	687b      	ldr	r3, [r7, #4]
     cfa:	4c53      	ldr	r4, [pc, #332]	; (e48 <_sercom_get_async_baud_val+0x1e8>)
     cfc:	47a0      	blx	r4
     cfe:	1c03      	adds	r3, r0, #0
     d00:	1c0c      	adds	r4, r1, #0
     d02:	65bb      	str	r3, [r7, #88]	; 0x58
     d04:	65fc      	str	r4, [r7, #92]	; 0x5c
		scale = ((uint64_t)1 << SHIFT) - ratio;
     d06:	2100      	movs	r1, #0
     d08:	2201      	movs	r2, #1
     d0a:	6dbb      	ldr	r3, [r7, #88]	; 0x58
     d0c:	6dfc      	ldr	r4, [r7, #92]	; 0x5c
     d0e:	1ac9      	subs	r1, r1, r3
     d10:	41a2      	sbcs	r2, r4
     d12:	1c0b      	adds	r3, r1, #0
     d14:	1c14      	adds	r4, r2, #0
     d16:	653b      	str	r3, [r7, #80]	; 0x50
     d18:	657c      	str	r4, [r7, #84]	; 0x54
		baud_calculated = (65536 * scale) >> SHIFT;
     d1a:	6d3b      	ldr	r3, [r7, #80]	; 0x50
     d1c:	0c1b      	lsrs	r3, r3, #16
     d1e:	6d7a      	ldr	r2, [r7, #84]	; 0x54
     d20:	0416      	lsls	r6, r2, #16
     d22:	431e      	orrs	r6, r3
     d24:	6d3b      	ldr	r3, [r7, #80]	; 0x50
     d26:	041d      	lsls	r5, r3, #16
     d28:	0033      	movs	r3, r6
     d2a:	66bb      	str	r3, [r7, #104]	; 0x68
     d2c:	2300      	movs	r3, #0
     d2e:	66fb      	str	r3, [r7, #108]	; 0x6c
     d30:	e07e      	b.n	e30 <_sercom_get_async_baud_val+0x1d0>
	} else if(mode == SERCOM_ASYNC_OPERATION_MODE_FRACTIONAL) {
     d32:	2333      	movs	r3, #51	; 0x33
     d34:	18fb      	adds	r3, r7, r3
     d36:	781b      	ldrb	r3, [r3, #0]
     d38:	2b01      	cmp	r3, #1
     d3a:	d000      	beq.n	d3e <_sercom_get_async_baud_val+0xde>
     d3c:	e078      	b.n	e30 <_sercom_get_async_baud_val+0x1d0>
		for(baud_fp = 0; baud_fp < BAUD_FP_MAX; baud_fp++) {
     d3e:	2337      	movs	r3, #55	; 0x37
     d40:	2230      	movs	r2, #48	; 0x30
     d42:	4694      	mov	ip, r2
     d44:	44bc      	add	ip, r7
     d46:	4463      	add	r3, ip
     d48:	2200      	movs	r2, #0
     d4a:	701a      	strb	r2, [r3, #0]
     d4c:	e051      	b.n	df2 <_sercom_get_async_baud_val+0x192>
			temp1 = BAUD_FP_MAX * (uint64_t)peripheral_clock;
     d4e:	6bbb      	ldr	r3, [r7, #56]	; 0x38
     d50:	62bb      	str	r3, [r7, #40]	; 0x28
     d52:	2300      	movs	r3, #0
     d54:	62fb      	str	r3, [r7, #44]	; 0x2c
     d56:	6ab8      	ldr	r0, [r7, #40]	; 0x28
     d58:	6af9      	ldr	r1, [r7, #44]	; 0x2c
     d5a:	1c03      	adds	r3, r0, #0
     d5c:	0f5b      	lsrs	r3, r3, #29
     d5e:	1c0a      	adds	r2, r1, #0
     d60:	00d2      	lsls	r2, r2, #3
     d62:	4313      	orrs	r3, r2
     d64:	64fb      	str	r3, [r7, #76]	; 0x4c
     d66:	1c03      	adds	r3, r0, #0
     d68:	00db      	lsls	r3, r3, #3
     d6a:	64bb      	str	r3, [r7, #72]	; 0x48
			temp2 = ((uint64_t)baudrate * sample_num);
     d6c:	6bfb      	ldr	r3, [r7, #60]	; 0x3c
     d6e:	623b      	str	r3, [r7, #32]
     d70:	2300      	movs	r3, #0
     d72:	627b      	str	r3, [r7, #36]	; 0x24
     d74:	2358      	movs	r3, #88	; 0x58
     d76:	2230      	movs	r2, #48	; 0x30
     d78:	4694      	mov	ip, r2
     d7a:	44bc      	add	ip, r7
     d7c:	4463      	add	r3, ip
     d7e:	781b      	ldrb	r3, [r3, #0]
     d80:	b2db      	uxtb	r3, r3
     d82:	61bb      	str	r3, [r7, #24]
     d84:	2300      	movs	r3, #0
     d86:	61fb      	str	r3, [r7, #28]
     d88:	4c2e      	ldr	r4, [pc, #184]	; (e44 <_sercom_get_async_baud_val+0x1e4>)
     d8a:	6a38      	ldr	r0, [r7, #32]
     d8c:	6a79      	ldr	r1, [r7, #36]	; 0x24
     d8e:	69ba      	ldr	r2, [r7, #24]
     d90:	69fb      	ldr	r3, [r7, #28]
     d92:	47a0      	blx	r4
     d94:	1c03      	adds	r3, r0, #0
     d96:	1c0c      	adds	r4, r1, #0
     d98:	643b      	str	r3, [r7, #64]	; 0x40
     d9a:	647c      	str	r4, [r7, #68]	; 0x44
			baud_int = long_division(temp1, temp2);
     d9c:	6cb9      	ldr	r1, [r7, #72]	; 0x48
     d9e:	6cfa      	ldr	r2, [r7, #76]	; 0x4c
     da0:	6c3b      	ldr	r3, [r7, #64]	; 0x40
     da2:	6c7c      	ldr	r4, [r7, #68]	; 0x44
     da4:	1c08      	adds	r0, r1, #0
     da6:	1c11      	adds	r1, r2, #0
     da8:	1c1a      	adds	r2, r3, #0
     daa:	1c23      	adds	r3, r4, #0
     dac:	4c26      	ldr	r4, [pc, #152]	; (e48 <_sercom_get_async_baud_val+0x1e8>)
     dae:	47a0      	blx	r4
     db0:	1c03      	adds	r3, r0, #0
     db2:	1c0c      	adds	r4, r1, #0
     db4:	663b      	str	r3, [r7, #96]	; 0x60
			baud_int -= baud_fp;
     db6:	2337      	movs	r3, #55	; 0x37
     db8:	2230      	movs	r2, #48	; 0x30
     dba:	4694      	mov	ip, r2
     dbc:	44bc      	add	ip, r7
     dbe:	4463      	add	r3, ip
     dc0:	781b      	ldrb	r3, [r3, #0]
     dc2:	6e3a      	ldr	r2, [r7, #96]	; 0x60
     dc4:	1ad3      	subs	r3, r2, r3
     dc6:	663b      	str	r3, [r7, #96]	; 0x60
			baud_int = baud_int / BAUD_FP_MAX;
     dc8:	6e3b      	ldr	r3, [r7, #96]	; 0x60
     dca:	08db      	lsrs	r3, r3, #3
     dcc:	663b      	str	r3, [r7, #96]	; 0x60
			if(baud_int < BAUD_INT_MAX) {
     dce:	6e3b      	ldr	r3, [r7, #96]	; 0x60
     dd0:	4a1e      	ldr	r2, [pc, #120]	; (e4c <_sercom_get_async_baud_val+0x1ec>)
     dd2:	4293      	cmp	r3, r2
     dd4:	d800      	bhi.n	dd8 <_sercom_get_async_baud_val+0x178>
				break;
     dd6:	e014      	b.n	e02 <_sercom_get_async_baud_val+0x1a2>
		temp1 = ((sample_num * (uint64_t)baudrate) << SHIFT);
		ratio = long_division(temp1, peripheral_clock);
		scale = ((uint64_t)1 << SHIFT) - ratio;
		baud_calculated = (65536 * scale) >> SHIFT;
	} else if(mode == SERCOM_ASYNC_OPERATION_MODE_FRACTIONAL) {
		for(baud_fp = 0; baud_fp < BAUD_FP_MAX; baud_fp++) {
     dd8:	2337      	movs	r3, #55	; 0x37
     dda:	2230      	movs	r2, #48	; 0x30
     ddc:	4694      	mov	ip, r2
     dde:	44bc      	add	ip, r7
     de0:	4463      	add	r3, ip
     de2:	781a      	ldrb	r2, [r3, #0]
     de4:	2337      	movs	r3, #55	; 0x37
     de6:	2130      	movs	r1, #48	; 0x30
     de8:	468c      	mov	ip, r1
     dea:	44bc      	add	ip, r7
     dec:	4463      	add	r3, ip
     dee:	3201      	adds	r2, #1
     df0:	701a      	strb	r2, [r3, #0]
     df2:	2337      	movs	r3, #55	; 0x37
     df4:	2230      	movs	r2, #48	; 0x30
     df6:	4694      	mov	ip, r2
     df8:	44bc      	add	ip, r7
     dfa:	4463      	add	r3, ip
     dfc:	781b      	ldrb	r3, [r3, #0]
     dfe:	2b07      	cmp	r3, #7
     e00:	d9a5      	bls.n	d4e <_sercom_get_async_baud_val+0xee>
			baud_int = baud_int / BAUD_FP_MAX;
			if(baud_int < BAUD_INT_MAX) {
				break;
			}
		}
		if(baud_fp == BAUD_FP_MAX) {
     e02:	2337      	movs	r3, #55	; 0x37
     e04:	2230      	movs	r2, #48	; 0x30
     e06:	4694      	mov	ip, r2
     e08:	44bc      	add	ip, r7
     e0a:	4463      	add	r3, ip
     e0c:	781b      	ldrb	r3, [r3, #0]
     e0e:	2b08      	cmp	r3, #8
     e10:	d101      	bne.n	e16 <_sercom_get_async_baud_val+0x1b6>
			return STATUS_ERR_BAUDRATE_UNAVAILABLE;
     e12:	2340      	movs	r3, #64	; 0x40
     e14:	e012      	b.n	e3c <_sercom_get_async_baud_val+0x1dc>
		}
		baud_calculated = baud_int | (baud_fp << 13);
     e16:	2337      	movs	r3, #55	; 0x37
     e18:	2230      	movs	r2, #48	; 0x30
     e1a:	4694      	mov	ip, r2
     e1c:	44bc      	add	ip, r7
     e1e:	4463      	add	r3, ip
     e20:	781b      	ldrb	r3, [r3, #0]
     e22:	035b      	lsls	r3, r3, #13
     e24:	1c1a      	adds	r2, r3, #0
     e26:	6e3b      	ldr	r3, [r7, #96]	; 0x60
     e28:	4313      	orrs	r3, r2
     e2a:	66bb      	str	r3, [r7, #104]	; 0x68
     e2c:	2300      	movs	r3, #0
     e2e:	66fb      	str	r3, [r7, #108]	; 0x6c
	}

	*baudval = baud_calculated;
     e30:	6ebb      	ldr	r3, [r7, #104]	; 0x68
     e32:	6efc      	ldr	r4, [r7, #108]	; 0x6c
     e34:	b29a      	uxth	r2, r3
     e36:	6b7b      	ldr	r3, [r7, #52]	; 0x34
     e38:	801a      	strh	r2, [r3, #0]
	return STATUS_OK;
     e3a:	2300      	movs	r3, #0
}
     e3c:	1c18      	adds	r0, r3, #0
     e3e:	46bd      	mov	sp, r7
     e40:	b01d      	add	sp, #116	; 0x74
     e42:	bdf0      	pop	{r4, r5, r6, r7, pc}
     e44:	00004001 	.word	0x00004001
     e48:	00000b05 	.word	0x00000b05
     e4c:	00001fff 	.word	0x00001fff

00000e50 <sercom_set_gclk_generator>:
 *                                         forced.
 */
enum status_code sercom_set_gclk_generator(
		const enum gclk_generator generator_source,
		const bool force_change)
{
     e50:	b580      	push	{r7, lr}
     e52:	b084      	sub	sp, #16
     e54:	af00      	add	r7, sp, #0
     e56:	1c02      	adds	r2, r0, #0
     e58:	1dfb      	adds	r3, r7, #7
     e5a:	701a      	strb	r2, [r3, #0]
     e5c:	1dbb      	adds	r3, r7, #6
     e5e:	1c0a      	adds	r2, r1, #0
     e60:	701a      	strb	r2, [r3, #0]
	/* Check if valid option. */
	if (!_sercom_config.generator_is_set || force_change) {
     e62:	4b1a      	ldr	r3, [pc, #104]	; (ecc <sercom_set_gclk_generator+0x7c>)
     e64:	781b      	ldrb	r3, [r3, #0]
     e66:	2201      	movs	r2, #1
     e68:	4053      	eors	r3, r2
     e6a:	b2db      	uxtb	r3, r3
     e6c:	2b00      	cmp	r3, #0
     e6e:	d103      	bne.n	e78 <sercom_set_gclk_generator+0x28>
     e70:	1dbb      	adds	r3, r7, #6
     e72:	781b      	ldrb	r3, [r3, #0]
     e74:	2b00      	cmp	r3, #0
     e76:	d01b      	beq.n	eb0 <sercom_set_gclk_generator+0x60>
		/* Create and fill a GCLK configuration structure for the new config. */
		struct system_gclk_chan_config gclk_chan_conf;
		system_gclk_chan_get_config_defaults(&gclk_chan_conf);
     e78:	230c      	movs	r3, #12
     e7a:	18fb      	adds	r3, r7, r3
     e7c:	1c18      	adds	r0, r3, #0
     e7e:	4b14      	ldr	r3, [pc, #80]	; (ed0 <sercom_set_gclk_generator+0x80>)
     e80:	4798      	blx	r3
		gclk_chan_conf.source_generator = generator_source;
     e82:	230c      	movs	r3, #12
     e84:	18fb      	adds	r3, r7, r3
     e86:	1dfa      	adds	r2, r7, #7
     e88:	7812      	ldrb	r2, [r2, #0]
     e8a:	701a      	strb	r2, [r3, #0]
		system_gclk_chan_set_config(SERCOM_GCLK_ID, &gclk_chan_conf);
     e8c:	230c      	movs	r3, #12
     e8e:	18fb      	adds	r3, r7, r3
     e90:	2013      	movs	r0, #19
     e92:	1c19      	adds	r1, r3, #0
     e94:	4b0f      	ldr	r3, [pc, #60]	; (ed4 <sercom_set_gclk_generator+0x84>)
     e96:	4798      	blx	r3
		system_gclk_chan_enable(SERCOM_GCLK_ID);
     e98:	2013      	movs	r0, #19
     e9a:	4b0f      	ldr	r3, [pc, #60]	; (ed8 <sercom_set_gclk_generator+0x88>)
     e9c:	4798      	blx	r3

		/* Save config. */
		_sercom_config.generator_source = generator_source;
     e9e:	4b0b      	ldr	r3, [pc, #44]	; (ecc <sercom_set_gclk_generator+0x7c>)
     ea0:	1dfa      	adds	r2, r7, #7
     ea2:	7812      	ldrb	r2, [r2, #0]
     ea4:	705a      	strb	r2, [r3, #1]
		_sercom_config.generator_is_set = true;
     ea6:	4b09      	ldr	r3, [pc, #36]	; (ecc <sercom_set_gclk_generator+0x7c>)
     ea8:	2201      	movs	r2, #1
     eaa:	701a      	strb	r2, [r3, #0]

		return STATUS_OK;
     eac:	2300      	movs	r3, #0
     eae:	e008      	b.n	ec2 <sercom_set_gclk_generator+0x72>
	} else if (generator_source == _sercom_config.generator_source) {
     eb0:	4b06      	ldr	r3, [pc, #24]	; (ecc <sercom_set_gclk_generator+0x7c>)
     eb2:	785b      	ldrb	r3, [r3, #1]
     eb4:	1dfa      	adds	r2, r7, #7
     eb6:	7812      	ldrb	r2, [r2, #0]
     eb8:	429a      	cmp	r2, r3
     eba:	d101      	bne.n	ec0 <sercom_set_gclk_generator+0x70>
		/* Return status OK if same config. */
		return STATUS_OK;
     ebc:	2300      	movs	r3, #0
     ebe:	e000      	b.n	ec2 <sercom_set_gclk_generator+0x72>
	}

	/* Return invalid config to already initialized GCLK. */
	return STATUS_ERR_ALREADY_INITIALIZED;
     ec0:	231d      	movs	r3, #29
}
     ec2:	1c18      	adds	r0, r3, #0
     ec4:	46bd      	mov	sp, r7
     ec6:	b004      	add	sp, #16
     ec8:	bd80      	pop	{r7, pc}
     eca:	46c0      	nop			; (mov r8, r8)
     ecc:	2000009c 	.word	0x2000009c
     ed0:	00000af1 	.word	0x00000af1
     ed4:	00002ad9 	.word	0x00002ad9
     ed8:	00002b1d 	.word	0x00002b1d

00000edc <_sercom_get_default_pad>:
 *
 */
uint32_t _sercom_get_default_pad(
		Sercom *const sercom_module,
		const uint8_t pad)
{
     edc:	b580      	push	{r7, lr}
     ede:	b082      	sub	sp, #8
     ee0:	af00      	add	r7, sp, #0
     ee2:	6078      	str	r0, [r7, #4]
     ee4:	1c0a      	adds	r2, r1, #0
     ee6:	1cfb      	adds	r3, r7, #3
     ee8:	701a      	strb	r2, [r3, #0]
	switch ((uintptr_t)sercom_module) {
     eea:	687b      	ldr	r3, [r7, #4]
     eec:	4a4d      	ldr	r2, [pc, #308]	; (1024 <_sercom_get_default_pad+0x148>)
     eee:	4293      	cmp	r3, r2
     ef0:	d03f      	beq.n	f72 <_sercom_get_default_pad+0x96>
     ef2:	4a4c      	ldr	r2, [pc, #304]	; (1024 <_sercom_get_default_pad+0x148>)
     ef4:	4293      	cmp	r3, r2
     ef6:	d806      	bhi.n	f06 <_sercom_get_default_pad+0x2a>
     ef8:	4a4b      	ldr	r2, [pc, #300]	; (1028 <_sercom_get_default_pad+0x14c>)
     efa:	4293      	cmp	r3, r2
     efc:	d00f      	beq.n	f1e <_sercom_get_default_pad+0x42>
     efe:	4a4b      	ldr	r2, [pc, #300]	; (102c <_sercom_get_default_pad+0x150>)
     f00:	4293      	cmp	r3, r2
     f02:	d021      	beq.n	f48 <_sercom_get_default_pad+0x6c>
     f04:	e089      	b.n	101a <_sercom_get_default_pad+0x13e>
     f06:	4a4a      	ldr	r2, [pc, #296]	; (1030 <_sercom_get_default_pad+0x154>)
     f08:	4293      	cmp	r3, r2
     f0a:	d100      	bne.n	f0e <_sercom_get_default_pad+0x32>
     f0c:	e05b      	b.n	fc6 <_sercom_get_default_pad+0xea>
     f0e:	4a49      	ldr	r2, [pc, #292]	; (1034 <_sercom_get_default_pad+0x158>)
     f10:	4293      	cmp	r3, r2
     f12:	d100      	bne.n	f16 <_sercom_get_default_pad+0x3a>
     f14:	e06c      	b.n	ff0 <_sercom_get_default_pad+0x114>
     f16:	4a48      	ldr	r2, [pc, #288]	; (1038 <_sercom_get_default_pad+0x15c>)
     f18:	4293      	cmp	r3, r2
     f1a:	d03f      	beq.n	f9c <_sercom_get_default_pad+0xc0>
     f1c:	e07d      	b.n	101a <_sercom_get_default_pad+0x13e>
		/* Auto-generate a lookup table for the default SERCOM pad defaults */
		MREPEAT(SERCOM_INST_NUM, _SERCOM_PAD_DEFAULTS_CASE, pad)
     f1e:	1cfb      	adds	r3, r7, #3
     f20:	781b      	ldrb	r3, [r3, #0]
     f22:	2b01      	cmp	r3, #1
     f24:	d00a      	beq.n	f3c <_sercom_get_default_pad+0x60>
     f26:	dc02      	bgt.n	f2e <_sercom_get_default_pad+0x52>
     f28:	2b00      	cmp	r3, #0
     f2a:	d005      	beq.n	f38 <_sercom_get_default_pad+0x5c>
     f2c:	e075      	b.n	101a <_sercom_get_default_pad+0x13e>
     f2e:	2b02      	cmp	r3, #2
     f30:	d006      	beq.n	f40 <_sercom_get_default_pad+0x64>
     f32:	2b03      	cmp	r3, #3
     f34:	d006      	beq.n	f44 <_sercom_get_default_pad+0x68>
     f36:	e070      	b.n	101a <_sercom_get_default_pad+0x13e>
     f38:	4b40      	ldr	r3, [pc, #256]	; (103c <_sercom_get_default_pad+0x160>)
     f3a:	e06f      	b.n	101c <_sercom_get_default_pad+0x140>
     f3c:	4b40      	ldr	r3, [pc, #256]	; (1040 <_sercom_get_default_pad+0x164>)
     f3e:	e06d      	b.n	101c <_sercom_get_default_pad+0x140>
     f40:	4b40      	ldr	r3, [pc, #256]	; (1044 <_sercom_get_default_pad+0x168>)
     f42:	e06b      	b.n	101c <_sercom_get_default_pad+0x140>
     f44:	4b40      	ldr	r3, [pc, #256]	; (1048 <_sercom_get_default_pad+0x16c>)
     f46:	e069      	b.n	101c <_sercom_get_default_pad+0x140>
     f48:	1cfb      	adds	r3, r7, #3
     f4a:	781b      	ldrb	r3, [r3, #0]
     f4c:	2b01      	cmp	r3, #1
     f4e:	d00a      	beq.n	f66 <_sercom_get_default_pad+0x8a>
     f50:	dc02      	bgt.n	f58 <_sercom_get_default_pad+0x7c>
     f52:	2b00      	cmp	r3, #0
     f54:	d005      	beq.n	f62 <_sercom_get_default_pad+0x86>
     f56:	e060      	b.n	101a <_sercom_get_default_pad+0x13e>
     f58:	2b02      	cmp	r3, #2
     f5a:	d006      	beq.n	f6a <_sercom_get_default_pad+0x8e>
     f5c:	2b03      	cmp	r3, #3
     f5e:	d006      	beq.n	f6e <_sercom_get_default_pad+0x92>
     f60:	e05b      	b.n	101a <_sercom_get_default_pad+0x13e>
     f62:	2303      	movs	r3, #3
     f64:	e05a      	b.n	101c <_sercom_get_default_pad+0x140>
     f66:	4b39      	ldr	r3, [pc, #228]	; (104c <_sercom_get_default_pad+0x170>)
     f68:	e058      	b.n	101c <_sercom_get_default_pad+0x140>
     f6a:	4b39      	ldr	r3, [pc, #228]	; (1050 <_sercom_get_default_pad+0x174>)
     f6c:	e056      	b.n	101c <_sercom_get_default_pad+0x140>
     f6e:	4b39      	ldr	r3, [pc, #228]	; (1054 <_sercom_get_default_pad+0x178>)
     f70:	e054      	b.n	101c <_sercom_get_default_pad+0x140>
     f72:	1cfb      	adds	r3, r7, #3
     f74:	781b      	ldrb	r3, [r3, #0]
     f76:	2b01      	cmp	r3, #1
     f78:	d00a      	beq.n	f90 <_sercom_get_default_pad+0xb4>
     f7a:	dc02      	bgt.n	f82 <_sercom_get_default_pad+0xa6>
     f7c:	2b00      	cmp	r3, #0
     f7e:	d005      	beq.n	f8c <_sercom_get_default_pad+0xb0>
     f80:	e04b      	b.n	101a <_sercom_get_default_pad+0x13e>
     f82:	2b02      	cmp	r3, #2
     f84:	d006      	beq.n	f94 <_sercom_get_default_pad+0xb8>
     f86:	2b03      	cmp	r3, #3
     f88:	d006      	beq.n	f98 <_sercom_get_default_pad+0xbc>
     f8a:	e046      	b.n	101a <_sercom_get_default_pad+0x13e>
     f8c:	4b32      	ldr	r3, [pc, #200]	; (1058 <_sercom_get_default_pad+0x17c>)
     f8e:	e045      	b.n	101c <_sercom_get_default_pad+0x140>
     f90:	4b32      	ldr	r3, [pc, #200]	; (105c <_sercom_get_default_pad+0x180>)
     f92:	e043      	b.n	101c <_sercom_get_default_pad+0x140>
     f94:	4b32      	ldr	r3, [pc, #200]	; (1060 <_sercom_get_default_pad+0x184>)
     f96:	e041      	b.n	101c <_sercom_get_default_pad+0x140>
     f98:	4b32      	ldr	r3, [pc, #200]	; (1064 <_sercom_get_default_pad+0x188>)
     f9a:	e03f      	b.n	101c <_sercom_get_default_pad+0x140>
     f9c:	1cfb      	adds	r3, r7, #3
     f9e:	781b      	ldrb	r3, [r3, #0]
     fa0:	2b01      	cmp	r3, #1
     fa2:	d00a      	beq.n	fba <_sercom_get_default_pad+0xde>
     fa4:	dc02      	bgt.n	fac <_sercom_get_default_pad+0xd0>
     fa6:	2b00      	cmp	r3, #0
     fa8:	d005      	beq.n	fb6 <_sercom_get_default_pad+0xda>
     faa:	e036      	b.n	101a <_sercom_get_default_pad+0x13e>
     fac:	2b02      	cmp	r3, #2
     fae:	d006      	beq.n	fbe <_sercom_get_default_pad+0xe2>
     fb0:	2b03      	cmp	r3, #3
     fb2:	d006      	beq.n	fc2 <_sercom_get_default_pad+0xe6>
     fb4:	e031      	b.n	101a <_sercom_get_default_pad+0x13e>
     fb6:	4b2c      	ldr	r3, [pc, #176]	; (1068 <_sercom_get_default_pad+0x18c>)
     fb8:	e030      	b.n	101c <_sercom_get_default_pad+0x140>
     fba:	4b2c      	ldr	r3, [pc, #176]	; (106c <_sercom_get_default_pad+0x190>)
     fbc:	e02e      	b.n	101c <_sercom_get_default_pad+0x140>
     fbe:	4b2c      	ldr	r3, [pc, #176]	; (1070 <_sercom_get_default_pad+0x194>)
     fc0:	e02c      	b.n	101c <_sercom_get_default_pad+0x140>
     fc2:	4b2c      	ldr	r3, [pc, #176]	; (1074 <_sercom_get_default_pad+0x198>)
     fc4:	e02a      	b.n	101c <_sercom_get_default_pad+0x140>
     fc6:	1cfb      	adds	r3, r7, #3
     fc8:	781b      	ldrb	r3, [r3, #0]
     fca:	2b01      	cmp	r3, #1
     fcc:	d00a      	beq.n	fe4 <_sercom_get_default_pad+0x108>
     fce:	dc02      	bgt.n	fd6 <_sercom_get_default_pad+0xfa>
     fd0:	2b00      	cmp	r3, #0
     fd2:	d005      	beq.n	fe0 <_sercom_get_default_pad+0x104>
     fd4:	e021      	b.n	101a <_sercom_get_default_pad+0x13e>
     fd6:	2b02      	cmp	r3, #2
     fd8:	d006      	beq.n	fe8 <_sercom_get_default_pad+0x10c>
     fda:	2b03      	cmp	r3, #3
     fdc:	d006      	beq.n	fec <_sercom_get_default_pad+0x110>
     fde:	e01c      	b.n	101a <_sercom_get_default_pad+0x13e>
     fe0:	4b25      	ldr	r3, [pc, #148]	; (1078 <_sercom_get_default_pad+0x19c>)
     fe2:	e01b      	b.n	101c <_sercom_get_default_pad+0x140>
     fe4:	4b25      	ldr	r3, [pc, #148]	; (107c <_sercom_get_default_pad+0x1a0>)
     fe6:	e019      	b.n	101c <_sercom_get_default_pad+0x140>
     fe8:	4b25      	ldr	r3, [pc, #148]	; (1080 <_sercom_get_default_pad+0x1a4>)
     fea:	e017      	b.n	101c <_sercom_get_default_pad+0x140>
     fec:	4b25      	ldr	r3, [pc, #148]	; (1084 <_sercom_get_default_pad+0x1a8>)
     fee:	e015      	b.n	101c <_sercom_get_default_pad+0x140>
     ff0:	1cfb      	adds	r3, r7, #3
     ff2:	781b      	ldrb	r3, [r3, #0]
     ff4:	2b01      	cmp	r3, #1
     ff6:	d00a      	beq.n	100e <_sercom_get_default_pad+0x132>
     ff8:	dc02      	bgt.n	1000 <_sercom_get_default_pad+0x124>
     ffa:	2b00      	cmp	r3, #0
     ffc:	d005      	beq.n	100a <_sercom_get_default_pad+0x12e>
     ffe:	e00c      	b.n	101a <_sercom_get_default_pad+0x13e>
    1000:	2b02      	cmp	r3, #2
    1002:	d006      	beq.n	1012 <_sercom_get_default_pad+0x136>
    1004:	2b03      	cmp	r3, #3
    1006:	d006      	beq.n	1016 <_sercom_get_default_pad+0x13a>
    1008:	e007      	b.n	101a <_sercom_get_default_pad+0x13e>
    100a:	4b1f      	ldr	r3, [pc, #124]	; (1088 <_sercom_get_default_pad+0x1ac>)
    100c:	e006      	b.n	101c <_sercom_get_default_pad+0x140>
    100e:	4b1f      	ldr	r3, [pc, #124]	; (108c <_sercom_get_default_pad+0x1b0>)
    1010:	e004      	b.n	101c <_sercom_get_default_pad+0x140>
    1012:	4b1f      	ldr	r3, [pc, #124]	; (1090 <_sercom_get_default_pad+0x1b4>)
    1014:	e002      	b.n	101c <_sercom_get_default_pad+0x140>
    1016:	4b1f      	ldr	r3, [pc, #124]	; (1094 <_sercom_get_default_pad+0x1b8>)
    1018:	e000      	b.n	101c <_sercom_get_default_pad+0x140>
	}

	Assert(false);
	return 0;
    101a:	2300      	movs	r3, #0
}
    101c:	1c18      	adds	r0, r3, #0
    101e:	46bd      	mov	sp, r7
    1020:	b002      	add	sp, #8
    1022:	bd80      	pop	{r7, pc}
    1024:	42001000 	.word	0x42001000
    1028:	42000800 	.word	0x42000800
    102c:	42000c00 	.word	0x42000c00
    1030:	42001800 	.word	0x42001800
    1034:	42001c00 	.word	0x42001c00
    1038:	42001400 	.word	0x42001400
    103c:	00040003 	.word	0x00040003
    1040:	00050003 	.word	0x00050003
    1044:	00060003 	.word	0x00060003
    1048:	00070003 	.word	0x00070003
    104c:	00010003 	.word	0x00010003
    1050:	001e0003 	.word	0x001e0003
    1054:	001f0003 	.word	0x001f0003
    1058:	00080003 	.word	0x00080003
    105c:	00090003 	.word	0x00090003
    1060:	000a0003 	.word	0x000a0003
    1064:	000b0003 	.word	0x000b0003
    1068:	00100003 	.word	0x00100003
    106c:	00110003 	.word	0x00110003
    1070:	00120003 	.word	0x00120003
    1074:	00130003 	.word	0x00130003
    1078:	000c0003 	.word	0x000c0003
    107c:	000d0003 	.word	0x000d0003
    1080:	000e0003 	.word	0x000e0003
    1084:	000f0003 	.word	0x000f0003
    1088:	00160003 	.word	0x00160003
    108c:	00170003 	.word	0x00170003
    1090:	00180003 	.word	0x00180003
    1094:	00190003 	.word	0x00190003

00001098 <_sercom_get_sercom_inst_index>:
 *
 * \return Index of given instance.
 */
uint8_t _sercom_get_sercom_inst_index(
		Sercom *const sercom_instance)
{
    1098:	b590      	push	{r4, r7, lr}
    109a:	b08b      	sub	sp, #44	; 0x2c
    109c:	af00      	add	r7, sp, #0
    109e:	6078      	str	r0, [r7, #4]
	/* Save all available SERCOM instances for compare. */
	Sercom *sercom_instances[SERCOM_INST_NUM] = SERCOM_INSTS;
    10a0:	230c      	movs	r3, #12
    10a2:	18fb      	adds	r3, r7, r3
    10a4:	4a0e      	ldr	r2, [pc, #56]	; (10e0 <_sercom_get_sercom_inst_index+0x48>)
    10a6:	ca13      	ldmia	r2!, {r0, r1, r4}
    10a8:	c313      	stmia	r3!, {r0, r1, r4}
    10aa:	ca13      	ldmia	r2!, {r0, r1, r4}
    10ac:	c313      	stmia	r3!, {r0, r1, r4}

	/* Find index for sercom instance. */
	for (uint32_t i = 0; i < SERCOM_INST_NUM; i++) {
    10ae:	2300      	movs	r3, #0
    10b0:	627b      	str	r3, [r7, #36]	; 0x24
    10b2:	e00d      	b.n	10d0 <_sercom_get_sercom_inst_index+0x38>
		if ((uintptr_t)sercom_instance == (uintptr_t)sercom_instances[i]) {
    10b4:	687b      	ldr	r3, [r7, #4]
    10b6:	220c      	movs	r2, #12
    10b8:	18ba      	adds	r2, r7, r2
    10ba:	6a79      	ldr	r1, [r7, #36]	; 0x24
    10bc:	0089      	lsls	r1, r1, #2
    10be:	588a      	ldr	r2, [r1, r2]
    10c0:	4293      	cmp	r3, r2
    10c2:	d102      	bne.n	10ca <_sercom_get_sercom_inst_index+0x32>
			return i;
    10c4:	6a7b      	ldr	r3, [r7, #36]	; 0x24
    10c6:	b2db      	uxtb	r3, r3
    10c8:	e006      	b.n	10d8 <_sercom_get_sercom_inst_index+0x40>
{
	/* Save all available SERCOM instances for compare. */
	Sercom *sercom_instances[SERCOM_INST_NUM] = SERCOM_INSTS;

	/* Find index for sercom instance. */
	for (uint32_t i = 0; i < SERCOM_INST_NUM; i++) {
    10ca:	6a7b      	ldr	r3, [r7, #36]	; 0x24
    10cc:	3301      	adds	r3, #1
    10ce:	627b      	str	r3, [r7, #36]	; 0x24
    10d0:	6a7b      	ldr	r3, [r7, #36]	; 0x24
    10d2:	2b05      	cmp	r3, #5
    10d4:	d9ee      	bls.n	10b4 <_sercom_get_sercom_inst_index+0x1c>
		}
	}

	/* Invalid data given. */
	Assert(false);
	return 0;
    10d6:	2300      	movs	r3, #0
}
    10d8:	1c18      	adds	r0, r3, #0
    10da:	46bd      	mov	sp, r7
    10dc:	b00b      	add	sp, #44	; 0x2c
    10de:	bd90      	pop	{r4, r7, pc}
    10e0:	00007510 	.word	0x00007510

000010e4 <_sercom_default_handler>:
 *
 * \param[in] instance SERCOM instance used.
 */
static void _sercom_default_handler(
		const uint8_t instance)
{
    10e4:	b580      	push	{r7, lr}
    10e6:	b082      	sub	sp, #8
    10e8:	af00      	add	r7, sp, #0
    10ea:	1c02      	adds	r2, r0, #0
    10ec:	1dfb      	adds	r3, r7, #7
    10ee:	701a      	strb	r2, [r3, #0]
	Assert(false);
}
    10f0:	46bd      	mov	sp, r7
    10f2:	b002      	add	sp, #8
    10f4:	bd80      	pop	{r7, pc}
    10f6:	46c0      	nop			; (mov r8, r8)

000010f8 <_sercom_set_handler>:
 * \param[in]  interrupt_handler  Pointer to instance callback handler.
 */
void _sercom_set_handler(
		const uint8_t instance,
		const sercom_handler_t interrupt_handler)
{
    10f8:	b580      	push	{r7, lr}
    10fa:	b084      	sub	sp, #16
    10fc:	af00      	add	r7, sp, #0
    10fe:	1c02      	adds	r2, r0, #0
    1100:	6039      	str	r1, [r7, #0]
    1102:	1dfb      	adds	r3, r7, #7
    1104:	701a      	strb	r2, [r3, #0]
	/* Initialize handlers with default handler and device instances with 0. */
	if (_handler_table_initialized == false) {
    1106:	4b13      	ldr	r3, [pc, #76]	; (1154 <_sercom_set_handler+0x5c>)
    1108:	781b      	ldrb	r3, [r3, #0]
    110a:	2201      	movs	r2, #1
    110c:	4053      	eors	r3, r2
    110e:	b2db      	uxtb	r3, r3
    1110:	2b00      	cmp	r3, #0
    1112:	d015      	beq.n	1140 <_sercom_set_handler+0x48>
		for (uint32_t i = 0; i < SERCOM_INST_NUM; i++) {
    1114:	2300      	movs	r3, #0
    1116:	60fb      	str	r3, [r7, #12]
    1118:	e00c      	b.n	1134 <_sercom_set_handler+0x3c>
			_sercom_interrupt_handlers[i] = &_sercom_default_handler;
    111a:	4b0f      	ldr	r3, [pc, #60]	; (1158 <_sercom_set_handler+0x60>)
    111c:	68fa      	ldr	r2, [r7, #12]
    111e:	0092      	lsls	r2, r2, #2
    1120:	490e      	ldr	r1, [pc, #56]	; (115c <_sercom_set_handler+0x64>)
    1122:	50d1      	str	r1, [r2, r3]
			_sercom_instances[i] = NULL;
    1124:	4b0e      	ldr	r3, [pc, #56]	; (1160 <_sercom_set_handler+0x68>)
    1126:	68fa      	ldr	r2, [r7, #12]
    1128:	0092      	lsls	r2, r2, #2
    112a:	2100      	movs	r1, #0
    112c:	50d1      	str	r1, [r2, r3]
		const uint8_t instance,
		const sercom_handler_t interrupt_handler)
{
	/* Initialize handlers with default handler and device instances with 0. */
	if (_handler_table_initialized == false) {
		for (uint32_t i = 0; i < SERCOM_INST_NUM; i++) {
    112e:	68fb      	ldr	r3, [r7, #12]
    1130:	3301      	adds	r3, #1
    1132:	60fb      	str	r3, [r7, #12]
    1134:	68fb      	ldr	r3, [r7, #12]
    1136:	2b05      	cmp	r3, #5
    1138:	d9ef      	bls.n	111a <_sercom_set_handler+0x22>
			_sercom_interrupt_handlers[i] = &_sercom_default_handler;
			_sercom_instances[i] = NULL;
		}

		_handler_table_initialized = true;
    113a:	4b06      	ldr	r3, [pc, #24]	; (1154 <_sercom_set_handler+0x5c>)
    113c:	2201      	movs	r2, #1
    113e:	701a      	strb	r2, [r3, #0]
	}

	/* Save interrupt handler. */
	_sercom_interrupt_handlers[instance] = interrupt_handler;
    1140:	1dfb      	adds	r3, r7, #7
    1142:	781a      	ldrb	r2, [r3, #0]
    1144:	4b04      	ldr	r3, [pc, #16]	; (1158 <_sercom_set_handler+0x60>)
    1146:	0092      	lsls	r2, r2, #2
    1148:	6839      	ldr	r1, [r7, #0]
    114a:	50d1      	str	r1, [r2, r3]
}
    114c:	46bd      	mov	sp, r7
    114e:	b004      	add	sp, #16
    1150:	bd80      	pop	{r7, pc}
    1152:	46c0      	nop			; (mov r8, r8)
    1154:	2000009e 	.word	0x2000009e
    1158:	200000a0 	.word	0x200000a0
    115c:	000010e5 	.word	0x000010e5
    1160:	200001d4 	.word	0x200001d4

00001164 <_sercom_get_interrupt_vector>:
 * \retval SYSTEM_INTERRUPT_MODULE_SERCOM6
 * \retval SYSTEM_INTERRUPT_MODULE_SERCOM7
 */
enum system_interrupt_vector _sercom_get_interrupt_vector(
		Sercom *const sercom_instance)
{
    1164:	b590      	push	{r4, r7, lr}
    1166:	b085      	sub	sp, #20
    1168:	af00      	add	r7, sp, #0
    116a:	6078      	str	r0, [r7, #4]
	const uint8_t sercom_int_vectors[SERCOM_INST_NUM] =
    116c:	2308      	movs	r3, #8
    116e:	18fa      	adds	r2, r7, r3
    1170:	4b0e      	ldr	r3, [pc, #56]	; (11ac <_sercom_get_interrupt_vector+0x48>)
    1172:	1c11      	adds	r1, r2, #0
    1174:	1c1a      	adds	r2, r3, #0
    1176:	2306      	movs	r3, #6
    1178:	1c08      	adds	r0, r1, #0
    117a:	1c11      	adds	r1, r2, #0
    117c:	1c1a      	adds	r2, r3, #0
    117e:	4b0c      	ldr	r3, [pc, #48]	; (11b0 <_sercom_get_interrupt_vector+0x4c>)
    1180:	4798      	blx	r3
		{
			MREPEAT(SERCOM_INST_NUM, _SERCOM_INTERRUPT_VECT_NUM, ~)
		};

	/* Retrieve the index of the SERCOM being requested */
	uint8_t instance_index = _sercom_get_sercom_inst_index(sercom_instance);
    1182:	230f      	movs	r3, #15
    1184:	18fc      	adds	r4, r7, r3
    1186:	687b      	ldr	r3, [r7, #4]
    1188:	1c18      	adds	r0, r3, #0
    118a:	4b0a      	ldr	r3, [pc, #40]	; (11b4 <_sercom_get_interrupt_vector+0x50>)
    118c:	4798      	blx	r3
    118e:	1c03      	adds	r3, r0, #0
    1190:	7023      	strb	r3, [r4, #0]

	/* Get the vector number from the lookup table for the requested SERCOM */
	return (enum system_interrupt_vector)sercom_int_vectors[instance_index];
    1192:	230f      	movs	r3, #15
    1194:	18fb      	adds	r3, r7, r3
    1196:	781b      	ldrb	r3, [r3, #0]
    1198:	2208      	movs	r2, #8
    119a:	18ba      	adds	r2, r7, r2
    119c:	5cd3      	ldrb	r3, [r2, r3]
    119e:	b2db      	uxtb	r3, r3
    11a0:	b25b      	sxtb	r3, r3
}
    11a2:	1c18      	adds	r0, r3, #0
    11a4:	46bd      	mov	sp, r7
    11a6:	b005      	add	sp, #20
    11a8:	bd90      	pop	{r4, r7, pc}
    11aa:	46c0      	nop			; (mov r8, r8)
    11ac:	00007528 	.word	0x00007528
    11b0:	000064e1 	.word	0x000064e1
    11b4:	00001099 	.word	0x00001099

000011b8 <SERCOM0_Handler>:

/** Auto-generate a set of interrupt handlers for each SERCOM in the device */
MREPEAT(SERCOM_INST_NUM, _SERCOM_INTERRUPT_HANDLER, ~)
    11b8:	b580      	push	{r7, lr}
    11ba:	af00      	add	r7, sp, #0
    11bc:	4b02      	ldr	r3, [pc, #8]	; (11c8 <SERCOM0_Handler+0x10>)
    11be:	681b      	ldr	r3, [r3, #0]
    11c0:	2000      	movs	r0, #0
    11c2:	4798      	blx	r3
    11c4:	46bd      	mov	sp, r7
    11c6:	bd80      	pop	{r7, pc}
    11c8:	200000a0 	.word	0x200000a0

000011cc <SERCOM1_Handler>:
    11cc:	b580      	push	{r7, lr}
    11ce:	af00      	add	r7, sp, #0
    11d0:	4b02      	ldr	r3, [pc, #8]	; (11dc <SERCOM1_Handler+0x10>)
    11d2:	685b      	ldr	r3, [r3, #4]
    11d4:	2001      	movs	r0, #1
    11d6:	4798      	blx	r3
    11d8:	46bd      	mov	sp, r7
    11da:	bd80      	pop	{r7, pc}
    11dc:	200000a0 	.word	0x200000a0

000011e0 <SERCOM2_Handler>:
    11e0:	b580      	push	{r7, lr}
    11e2:	af00      	add	r7, sp, #0
    11e4:	4b02      	ldr	r3, [pc, #8]	; (11f0 <SERCOM2_Handler+0x10>)
    11e6:	689b      	ldr	r3, [r3, #8]
    11e8:	2002      	movs	r0, #2
    11ea:	4798      	blx	r3
    11ec:	46bd      	mov	sp, r7
    11ee:	bd80      	pop	{r7, pc}
    11f0:	200000a0 	.word	0x200000a0

000011f4 <SERCOM3_Handler>:
    11f4:	b580      	push	{r7, lr}
    11f6:	af00      	add	r7, sp, #0
    11f8:	4b02      	ldr	r3, [pc, #8]	; (1204 <SERCOM3_Handler+0x10>)
    11fa:	68db      	ldr	r3, [r3, #12]
    11fc:	2003      	movs	r0, #3
    11fe:	4798      	blx	r3
    1200:	46bd      	mov	sp, r7
    1202:	bd80      	pop	{r7, pc}
    1204:	200000a0 	.word	0x200000a0

00001208 <SERCOM4_Handler>:
    1208:	b580      	push	{r7, lr}
    120a:	af00      	add	r7, sp, #0
    120c:	4b02      	ldr	r3, [pc, #8]	; (1218 <SERCOM4_Handler+0x10>)
    120e:	691b      	ldr	r3, [r3, #16]
    1210:	2004      	movs	r0, #4
    1212:	4798      	blx	r3
    1214:	46bd      	mov	sp, r7
    1216:	bd80      	pop	{r7, pc}
    1218:	200000a0 	.word	0x200000a0

0000121c <SERCOM5_Handler>:
    121c:	b580      	push	{r7, lr}
    121e:	af00      	add	r7, sp, #0
    1220:	4b02      	ldr	r3, [pc, #8]	; (122c <SERCOM5_Handler+0x10>)
    1222:	695b      	ldr	r3, [r3, #20]
    1224:	2005      	movs	r0, #5
    1226:	4798      	blx	r3
    1228:	46bd      	mov	sp, r7
    122a:	bd80      	pop	{r7, pc}
    122c:	200000a0 	.word	0x200000a0

00001230 <system_gclk_chan_get_config_defaults>:
 *
 * \param[out] config  Configuration structure to initialize to default values
 */
static inline void system_gclk_chan_get_config_defaults(
		struct system_gclk_chan_config *const config)
{
    1230:	b580      	push	{r7, lr}
    1232:	b082      	sub	sp, #8
    1234:	af00      	add	r7, sp, #0
    1236:	6078      	str	r0, [r7, #4]
	/* Sanity check arguments */
	Assert(config);

	/* Default configuration values */
	config->source_generator = GCLK_GENERATOR_0;
    1238:	687b      	ldr	r3, [r7, #4]
    123a:	2200      	movs	r2, #0
    123c:	701a      	strb	r2, [r3, #0]
}
    123e:	46bd      	mov	sp, r7
    1240:	b002      	add	sp, #8
    1242:	bd80      	pop	{r7, pc}

00001244 <system_apb_clock_set_mask>:
 * \retval STATUS_OK               The clock mask was set successfully
 */
static inline enum status_code system_apb_clock_set_mask(
		const enum system_clock_apb_bus bus,
		const uint32_t mask)
{
    1244:	b580      	push	{r7, lr}
    1246:	b082      	sub	sp, #8
    1248:	af00      	add	r7, sp, #0
    124a:	1c02      	adds	r2, r0, #0
    124c:	6039      	str	r1, [r7, #0]
    124e:	1dfb      	adds	r3, r7, #7
    1250:	701a      	strb	r2, [r3, #0]
	switch (bus) {
    1252:	1dfb      	adds	r3, r7, #7
    1254:	781b      	ldrb	r3, [r3, #0]
    1256:	2b01      	cmp	r3, #1
    1258:	d00a      	beq.n	1270 <system_apb_clock_set_mask+0x2c>
    125a:	2b02      	cmp	r3, #2
    125c:	d00f      	beq.n	127e <system_apb_clock_set_mask+0x3a>
    125e:	2b00      	cmp	r3, #0
    1260:	d114      	bne.n	128c <system_apb_clock_set_mask+0x48>
		case SYSTEM_CLOCK_APB_APBA:
			PM->APBAMASK.reg |= mask;
    1262:	4b0e      	ldr	r3, [pc, #56]	; (129c <system_apb_clock_set_mask+0x58>)
    1264:	4a0d      	ldr	r2, [pc, #52]	; (129c <system_apb_clock_set_mask+0x58>)
    1266:	6991      	ldr	r1, [r2, #24]
    1268:	683a      	ldr	r2, [r7, #0]
    126a:	430a      	orrs	r2, r1
    126c:	619a      	str	r2, [r3, #24]
			break;
    126e:	e00f      	b.n	1290 <system_apb_clock_set_mask+0x4c>

		case SYSTEM_CLOCK_APB_APBB:
			PM->APBBMASK.reg |= mask;
    1270:	4b0a      	ldr	r3, [pc, #40]	; (129c <system_apb_clock_set_mask+0x58>)
    1272:	4a0a      	ldr	r2, [pc, #40]	; (129c <system_apb_clock_set_mask+0x58>)
    1274:	69d1      	ldr	r1, [r2, #28]
    1276:	683a      	ldr	r2, [r7, #0]
    1278:	430a      	orrs	r2, r1
    127a:	61da      	str	r2, [r3, #28]
			break;
    127c:	e008      	b.n	1290 <system_apb_clock_set_mask+0x4c>

		case SYSTEM_CLOCK_APB_APBC:
			PM->APBCMASK.reg |= mask;
    127e:	4b07      	ldr	r3, [pc, #28]	; (129c <system_apb_clock_set_mask+0x58>)
    1280:	4a06      	ldr	r2, [pc, #24]	; (129c <system_apb_clock_set_mask+0x58>)
    1282:	6a11      	ldr	r1, [r2, #32]
    1284:	683a      	ldr	r2, [r7, #0]
    1286:	430a      	orrs	r2, r1
    1288:	621a      	str	r2, [r3, #32]
			break;
    128a:	e001      	b.n	1290 <system_apb_clock_set_mask+0x4c>

		default:
			Assert(false);
			return STATUS_ERR_INVALID_ARG;
    128c:	2317      	movs	r3, #23
    128e:	e000      	b.n	1292 <system_apb_clock_set_mask+0x4e>

	}

	return STATUS_OK;
    1290:	2300      	movs	r3, #0
}
    1292:	1c18      	adds	r0, r3, #0
    1294:	46bd      	mov	sp, r7
    1296:	b002      	add	sp, #8
    1298:	bd80      	pop	{r7, pc}
    129a:	46c0      	nop			; (mov r8, r8)
    129c:	40000400 	.word	0x40000400

000012a0 <system_pinmux_get_config_defaults>:
 *
 * \param[out] config  Configuration structure to initialize to default values
 */
static inline void system_pinmux_get_config_defaults(
		struct system_pinmux_config *const config)
{
    12a0:	b580      	push	{r7, lr}
    12a2:	b082      	sub	sp, #8
    12a4:	af00      	add	r7, sp, #0
    12a6:	6078      	str	r0, [r7, #4]
	/* Sanity check arguments */
	Assert(config);

	/* Default configuration values */
	config->mux_position = SYSTEM_PINMUX_GPIO;
    12a8:	687b      	ldr	r3, [r7, #4]
    12aa:	2280      	movs	r2, #128	; 0x80
    12ac:	701a      	strb	r2, [r3, #0]
	config->direction    = SYSTEM_PINMUX_PIN_DIR_INPUT;
    12ae:	687b      	ldr	r3, [r7, #4]
    12b0:	2200      	movs	r2, #0
    12b2:	705a      	strb	r2, [r3, #1]
	config->input_pull   = SYSTEM_PINMUX_PIN_PULL_UP;
    12b4:	687b      	ldr	r3, [r7, #4]
    12b6:	2201      	movs	r2, #1
    12b8:	709a      	strb	r2, [r3, #2]
	config->powersave    = false;
    12ba:	687b      	ldr	r3, [r7, #4]
    12bc:	2200      	movs	r2, #0
    12be:	70da      	strb	r2, [r3, #3]
}
    12c0:	46bd      	mov	sp, r7
    12c2:	b002      	add	sp, #8
    12c4:	bd80      	pop	{r7, pc}
    12c6:	46c0      	nop			; (mov r8, r8)

000012c8 <system_is_debugger_present>:
 * \retval true  Debugger is connected to the system
 * \retval false Debugger is not connected to the system
 *
 */
static inline bool system_is_debugger_present(void)
{
    12c8:	b580      	push	{r7, lr}
    12ca:	af00      	add	r7, sp, #0
	return DSU->STATUSB.reg & DSU_STATUSB_DBGPRES;
    12cc:	4b05      	ldr	r3, [pc, #20]	; (12e4 <system_is_debugger_present+0x1c>)
    12ce:	789b      	ldrb	r3, [r3, #2]
    12d0:	b2db      	uxtb	r3, r3
    12d2:	1c1a      	adds	r2, r3, #0
    12d4:	2302      	movs	r3, #2
    12d6:	4013      	ands	r3, r2
    12d8:	1e5a      	subs	r2, r3, #1
    12da:	4193      	sbcs	r3, r2
    12dc:	b2db      	uxtb	r3, r3
}
    12de:	1c18      	adds	r0, r3, #0
    12e0:	46bd      	mov	sp, r7
    12e2:	bd80      	pop	{r7, pc}
    12e4:	41002000 	.word	0x41002000

000012e8 <usart_is_syncing>:
 * \retval false  Peripheral is not busy syncing and can be read/written without
 *                stalling the bus.
 */
static inline bool usart_is_syncing(
		const struct usart_module *const module)
{
    12e8:	b580      	push	{r7, lr}
    12ea:	b084      	sub	sp, #16
    12ec:	af00      	add	r7, sp, #0
    12ee:	6078      	str	r0, [r7, #4]
	/* Sanity check arguments */
	Assert(module);
	Assert(module->hw);

	SercomUsart *const usart_hw = &(module->hw->USART);
    12f0:	687b      	ldr	r3, [r7, #4]
    12f2:	681b      	ldr	r3, [r3, #0]
    12f4:	60fb      	str	r3, [r7, #12]

#ifdef FEATURE_USART_SYNC_SCHEME_V2
	return (usart_hw->SYNCBUSY.reg);
    12f6:	68fb      	ldr	r3, [r7, #12]
    12f8:	69db      	ldr	r3, [r3, #28]
    12fa:	1e5a      	subs	r2, r3, #1
    12fc:	4193      	sbcs	r3, r2
    12fe:	b2db      	uxtb	r3, r3
#else
	return (usart_hw->STATUS.reg & SERCOM_USART_STATUS_SYNCBUSY);
#endif
}
    1300:	1c18      	adds	r0, r3, #0
    1302:	46bd      	mov	sp, r7
    1304:	b004      	add	sp, #16
    1306:	bd80      	pop	{r7, pc}

00001308 <_usart_wait_for_sync>:
 * \internal
 * Waits until synchronization is complete
 */
static inline void _usart_wait_for_sync(
		const struct usart_module *const module)
{
    1308:	b580      	push	{r7, lr}
    130a:	b082      	sub	sp, #8
    130c:	af00      	add	r7, sp, #0
    130e:	6078      	str	r0, [r7, #4]
	/* Sanity check. */
	Assert(module);

	while (usart_is_syncing(module)) {
    1310:	46c0      	nop			; (mov r8, r8)
    1312:	687b      	ldr	r3, [r7, #4]
    1314:	1c18      	adds	r0, r3, #0
    1316:	4b03      	ldr	r3, [pc, #12]	; (1324 <_usart_wait_for_sync+0x1c>)
    1318:	4798      	blx	r3
    131a:	1e03      	subs	r3, r0, #0
    131c:	d1f9      	bne.n	1312 <_usart_wait_for_sync+0xa>
		/* Wait until the synchronization is complete */
	}
}
    131e:	46bd      	mov	sp, r7
    1320:	b002      	add	sp, #8
    1322:	bd80      	pop	{r7, pc}
    1324:	000012e9 	.word	0x000012e9

00001328 <_usart_set_config>:
 * Set Configuration of the USART module
 */
static enum status_code _usart_set_config(
		struct usart_module *const module,
		const struct usart_config *const config)
{
    1328:	b5f0      	push	{r4, r5, r6, r7, lr}
    132a:	b08d      	sub	sp, #52	; 0x34
    132c:	af02      	add	r7, sp, #8
    132e:	6078      	str	r0, [r7, #4]
    1330:	6039      	str	r1, [r7, #0]
	/* Sanity check arguments */
	Assert(module);
	Assert(module->hw);

	/* Get a pointer to the hardware module instance */
	SercomUsart *const usart_hw = &(module->hw->USART);
    1332:	687b      	ldr	r3, [r7, #4]
    1334:	681b      	ldr	r3, [r3, #0]
    1336:	61bb      	str	r3, [r7, #24]

	/* Index for generic clock */
	uint32_t sercom_index = _sercom_get_sercom_inst_index(module->hw);
    1338:	687b      	ldr	r3, [r7, #4]
    133a:	681b      	ldr	r3, [r3, #0]
    133c:	1c18      	adds	r0, r3, #0
    133e:	4bae      	ldr	r3, [pc, #696]	; (15f8 <_usart_set_config+0x2d0>)
    1340:	4798      	blx	r3
    1342:	1c03      	adds	r3, r0, #0
    1344:	617b      	str	r3, [r7, #20]
	uint32_t gclk_index   = sercom_index + SERCOM0_GCLK_ID_CORE;
    1346:	697b      	ldr	r3, [r7, #20]
    1348:	3314      	adds	r3, #20
    134a:	613b      	str	r3, [r7, #16]

	/* Cache new register values to minimize the number of register writes */
	uint32_t ctrla = 0;
    134c:	2300      	movs	r3, #0
    134e:	627b      	str	r3, [r7, #36]	; 0x24
	uint32_t ctrlb = 0;
    1350:	2300      	movs	r3, #0
    1352:	623b      	str	r3, [r7, #32]
	uint16_t baud  = 0;
    1354:	230e      	movs	r3, #14
    1356:	18fb      	adds	r3, r7, r3
    1358:	2200      	movs	r2, #0
    135a:	801a      	strh	r2, [r3, #0]

	enum sercom_asynchronous_operation_mode mode = SERCOM_ASYNC_OPERATION_MODE_ARITHMETIC;
    135c:	231f      	movs	r3, #31
    135e:	18fb      	adds	r3, r7, r3
    1360:	2200      	movs	r2, #0
    1362:	701a      	strb	r2, [r3, #0]
	enum sercom_asynchronous_sample_num sample_num = SERCOM_ASYNC_SAMPLE_NUM_16;
    1364:	231e      	movs	r3, #30
    1366:	18fb      	adds	r3, r7, r3
    1368:	2210      	movs	r2, #16
    136a:	701a      	strb	r2, [r3, #0]

#ifdef FEATURE_USART_OVER_SAMPLE
	switch (config->sample_rate) {
    136c:	683b      	ldr	r3, [r7, #0]
    136e:	8a1b      	ldrh	r3, [r3, #16]
    1370:	2280      	movs	r2, #128	; 0x80
    1372:	01d2      	lsls	r2, r2, #7
    1374:	4293      	cmp	r3, r2
    1376:	d01c      	beq.n	13b2 <_usart_set_config+0x8a>
    1378:	2280      	movs	r2, #128	; 0x80
    137a:	01d2      	lsls	r2, r2, #7
    137c:	4293      	cmp	r3, r2
    137e:	dc06      	bgt.n	138e <_usart_set_config+0x66>
    1380:	2b00      	cmp	r3, #0
    1382:	d00d      	beq.n	13a0 <_usart_set_config+0x78>
    1384:	2280      	movs	r2, #128	; 0x80
    1386:	0192      	lsls	r2, r2, #6
    1388:	4293      	cmp	r3, r2
    138a:	d024      	beq.n	13d6 <_usart_set_config+0xae>
    138c:	e035      	b.n	13fa <_usart_set_config+0xd2>
    138e:	22c0      	movs	r2, #192	; 0xc0
    1390:	01d2      	lsls	r2, r2, #7
    1392:	4293      	cmp	r3, r2
    1394:	d028      	beq.n	13e8 <_usart_set_config+0xc0>
    1396:	2280      	movs	r2, #128	; 0x80
    1398:	0212      	lsls	r2, r2, #8
    139a:	4293      	cmp	r3, r2
    139c:	d012      	beq.n	13c4 <_usart_set_config+0x9c>
    139e:	e02c      	b.n	13fa <_usart_set_config+0xd2>
		case USART_SAMPLE_RATE_16X_ARITHMETIC:
			mode = SERCOM_ASYNC_OPERATION_MODE_ARITHMETIC;
    13a0:	231f      	movs	r3, #31
    13a2:	18fb      	adds	r3, r7, r3
    13a4:	2200      	movs	r2, #0
    13a6:	701a      	strb	r2, [r3, #0]
			sample_num = SERCOM_ASYNC_SAMPLE_NUM_16;
    13a8:	231e      	movs	r3, #30
    13aa:	18fb      	adds	r3, r7, r3
    13ac:	2210      	movs	r2, #16
    13ae:	701a      	strb	r2, [r3, #0]
			break;
    13b0:	e023      	b.n	13fa <_usart_set_config+0xd2>
		case USART_SAMPLE_RATE_8X_ARITHMETIC:
			mode = SERCOM_ASYNC_OPERATION_MODE_ARITHMETIC;
    13b2:	231f      	movs	r3, #31
    13b4:	18fb      	adds	r3, r7, r3
    13b6:	2200      	movs	r2, #0
    13b8:	701a      	strb	r2, [r3, #0]
			sample_num = SERCOM_ASYNC_SAMPLE_NUM_8;
    13ba:	231e      	movs	r3, #30
    13bc:	18fb      	adds	r3, r7, r3
    13be:	2208      	movs	r2, #8
    13c0:	701a      	strb	r2, [r3, #0]
			break;
    13c2:	e01a      	b.n	13fa <_usart_set_config+0xd2>
		case USART_SAMPLE_RATE_3X_ARITHMETIC:
			mode = SERCOM_ASYNC_OPERATION_MODE_ARITHMETIC;
    13c4:	231f      	movs	r3, #31
    13c6:	18fb      	adds	r3, r7, r3
    13c8:	2200      	movs	r2, #0
    13ca:	701a      	strb	r2, [r3, #0]
			sample_num = SERCOM_ASYNC_SAMPLE_NUM_3;
    13cc:	231e      	movs	r3, #30
    13ce:	18fb      	adds	r3, r7, r3
    13d0:	2203      	movs	r2, #3
    13d2:	701a      	strb	r2, [r3, #0]
			break;
    13d4:	e011      	b.n	13fa <_usart_set_config+0xd2>
		case USART_SAMPLE_RATE_16X_FRACTIONAL:
			mode = SERCOM_ASYNC_OPERATION_MODE_FRACTIONAL;
    13d6:	231f      	movs	r3, #31
    13d8:	18fb      	adds	r3, r7, r3
    13da:	2201      	movs	r2, #1
    13dc:	701a      	strb	r2, [r3, #0]
			sample_num = SERCOM_ASYNC_SAMPLE_NUM_16;
    13de:	231e      	movs	r3, #30
    13e0:	18fb      	adds	r3, r7, r3
    13e2:	2210      	movs	r2, #16
    13e4:	701a      	strb	r2, [r3, #0]
			break;
    13e6:	e008      	b.n	13fa <_usart_set_config+0xd2>
		case USART_SAMPLE_RATE_8X_FRACTIONAL:
			mode = SERCOM_ASYNC_OPERATION_MODE_FRACTIONAL;
    13e8:	231f      	movs	r3, #31
    13ea:	18fb      	adds	r3, r7, r3
    13ec:	2201      	movs	r2, #1
    13ee:	701a      	strb	r2, [r3, #0]
			sample_num = SERCOM_ASYNC_SAMPLE_NUM_8;
    13f0:	231e      	movs	r3, #30
    13f2:	18fb      	adds	r3, r7, r3
    13f4:	2208      	movs	r2, #8
    13f6:	701a      	strb	r2, [r3, #0]
			break;
    13f8:	46c0      	nop			; (mov r8, r8)
	}
#endif

	/* Set data order, internal muxing, and clock polarity */
	ctrla = (uint32_t)config->data_order |
    13fa:	683b      	ldr	r3, [r7, #0]
    13fc:	681a      	ldr	r2, [r3, #0]
		(uint32_t)config->mux_setting |
    13fe:	683b      	ldr	r3, [r7, #0]
    1400:	68db      	ldr	r3, [r3, #12]
			break;
	}
#endif

	/* Set data order, internal muxing, and clock polarity */
	ctrla = (uint32_t)config->data_order |
    1402:	431a      	orrs	r2, r3
		(uint32_t)config->mux_setting |
	#ifdef FEATURE_USART_OVER_SAMPLE
		config->sample_adjustment |
    1404:	683b      	ldr	r3, [r7, #0]
    1406:	695b      	ldr	r3, [r3, #20]
	}
#endif

	/* Set data order, internal muxing, and clock polarity */
	ctrla = (uint32_t)config->data_order |
		(uint32_t)config->mux_setting |
    1408:	4313      	orrs	r3, r2
	#ifdef FEATURE_USART_OVER_SAMPLE
		config->sample_adjustment |
		config->sample_rate |
    140a:	683a      	ldr	r2, [r7, #0]
    140c:	8a12      	ldrh	r2, [r2, #16]

	/* Set data order, internal muxing, and clock polarity */
	ctrla = (uint32_t)config->data_order |
		(uint32_t)config->mux_setting |
	#ifdef FEATURE_USART_OVER_SAMPLE
		config->sample_adjustment |
    140e:	4313      	orrs	r3, r2
		config->sample_rate |
	#endif
	#ifdef FEATURE_USART_IMMEDIATE_BUFFER_OVERFLOW_NOTIFICATION
		(config->immediate_buffer_overflow_notification << SERCOM_USART_CTRLA_IBON_Pos) |
    1410:	683a      	ldr	r2, [r7, #0]
    1412:	7e12      	ldrb	r2, [r2, #24]
    1414:	0212      	lsls	r2, r2, #8
	/* Set data order, internal muxing, and clock polarity */
	ctrla = (uint32_t)config->data_order |
		(uint32_t)config->mux_setting |
	#ifdef FEATURE_USART_OVER_SAMPLE
		config->sample_adjustment |
		config->sample_rate |
    1416:	4313      	orrs	r3, r2
	#endif
	#ifdef FEATURE_USART_IMMEDIATE_BUFFER_OVERFLOW_NOTIFICATION
		(config->immediate_buffer_overflow_notification << SERCOM_USART_CTRLA_IBON_Pos) |
	#endif
		(config->clock_polarity_inverted << SERCOM_USART_CTRLA_CPOL_Pos);
    1418:	683a      	ldr	r2, [r7, #0]
    141a:	2126      	movs	r1, #38	; 0x26
    141c:	5c52      	ldrb	r2, [r2, r1]
    141e:	0752      	lsls	r2, r2, #29
			break;
	}
#endif

	/* Set data order, internal muxing, and clock polarity */
	ctrla = (uint32_t)config->data_order |
    1420:	4313      	orrs	r3, r2
    1422:	627b      	str	r3, [r7, #36]	; 0x24
	#ifdef FEATURE_USART_IMMEDIATE_BUFFER_OVERFLOW_NOTIFICATION
		(config->immediate_buffer_overflow_notification << SERCOM_USART_CTRLA_IBON_Pos) |
	#endif
		(config->clock_polarity_inverted << SERCOM_USART_CTRLA_CPOL_Pos);

	enum status_code status_code = STATUS_OK;
    1424:	231d      	movs	r3, #29
    1426:	18fb      	adds	r3, r7, r3
    1428:	2200      	movs	r2, #0
    142a:	701a      	strb	r2, [r3, #0]

	/* Get baud value from mode and clock */
	switch (config->transfer_mode)
    142c:	683b      	ldr	r3, [r7, #0]
    142e:	685b      	ldr	r3, [r3, #4]
    1430:	2b00      	cmp	r3, #0
    1432:	d020      	beq.n	1476 <_usart_set_config+0x14e>
    1434:	2280      	movs	r2, #128	; 0x80
    1436:	0552      	lsls	r2, r2, #21
    1438:	4293      	cmp	r3, r2
    143a:	d150      	bne.n	14de <_usart_set_config+0x1b6>
	{
		case USART_TRANSFER_SYNCHRONOUSLY:
			if (!config->use_external_clock) {
    143c:	683b      	ldr	r3, [r7, #0]
    143e:	2227      	movs	r2, #39	; 0x27
    1440:	5c9b      	ldrb	r3, [r3, r2]
    1442:	2201      	movs	r2, #1
    1444:	4053      	eors	r3, r2
    1446:	b2db      	uxtb	r3, r3
    1448:	2b00      	cmp	r3, #0
    144a:	d013      	beq.n	1474 <_usart_set_config+0x14c>
				status_code = _sercom_get_sync_baud_val(config->baudrate,
    144c:	683b      	ldr	r3, [r7, #0]
    144e:	6a1d      	ldr	r5, [r3, #32]
    1450:	693b      	ldr	r3, [r7, #16]
    1452:	b2db      	uxtb	r3, r3
    1454:	1c18      	adds	r0, r3, #0
    1456:	4b69      	ldr	r3, [pc, #420]	; (15fc <_usart_set_config+0x2d4>)
    1458:	4798      	blx	r3
    145a:	1c02      	adds	r2, r0, #0
    145c:	231d      	movs	r3, #29
    145e:	18fc      	adds	r4, r7, r3
    1460:	230e      	movs	r3, #14
    1462:	18fb      	adds	r3, r7, r3
    1464:	1c28      	adds	r0, r5, #0
    1466:	1c11      	adds	r1, r2, #0
    1468:	1c1a      	adds	r2, r3, #0
    146a:	4b65      	ldr	r3, [pc, #404]	; (1600 <_usart_set_config+0x2d8>)
    146c:	4798      	blx	r3
    146e:	1c03      	adds	r3, r0, #0
    1470:	7023      	strb	r3, [r4, #0]
						system_gclk_chan_get_hz(gclk_index), &baud);
			}

			break;
    1472:	e034      	b.n	14de <_usart_set_config+0x1b6>
    1474:	e033      	b.n	14de <_usart_set_config+0x1b6>

		case USART_TRANSFER_ASYNCHRONOUSLY:
			if (config->use_external_clock) {
    1476:	683b      	ldr	r3, [r7, #0]
    1478:	2227      	movs	r2, #39	; 0x27
    147a:	5c9b      	ldrb	r3, [r3, r2]
    147c:	2b00      	cmp	r3, #0
    147e:	d014      	beq.n	14aa <_usart_set_config+0x182>
				status_code =
						_sercom_get_async_baud_val(config->baudrate,
    1480:	683b      	ldr	r3, [r7, #0]
    1482:	6a18      	ldr	r0, [r3, #32]
    1484:	683b      	ldr	r3, [r7, #0]
    1486:	6a99      	ldr	r1, [r3, #40]	; 0x28

			break;

		case USART_TRANSFER_ASYNCHRONOUSLY:
			if (config->use_external_clock) {
				status_code =
    1488:	231d      	movs	r3, #29
    148a:	18fc      	adds	r4, r7, r3
    148c:	230e      	movs	r3, #14
    148e:	18fa      	adds	r2, r7, r3
    1490:	231f      	movs	r3, #31
    1492:	18fb      	adds	r3, r7, r3
    1494:	781d      	ldrb	r5, [r3, #0]
    1496:	231e      	movs	r3, #30
    1498:	18fb      	adds	r3, r7, r3
    149a:	781b      	ldrb	r3, [r3, #0]
    149c:	9300      	str	r3, [sp, #0]
    149e:	1c2b      	adds	r3, r5, #0
    14a0:	4d58      	ldr	r5, [pc, #352]	; (1604 <_usart_set_config+0x2dc>)
    14a2:	47a8      	blx	r5
    14a4:	1c03      	adds	r3, r0, #0
    14a6:	7023      	strb	r3, [r4, #0]
				status_code =
						_sercom_get_async_baud_val(config->baudrate,
							system_gclk_chan_get_hz(gclk_index), &baud, mode, sample_num);
			}

			break;
    14a8:	e018      	b.n	14dc <_usart_set_config+0x1b4>
				status_code =
						_sercom_get_async_baud_val(config->baudrate,
							config->ext_clock_freq, &baud, mode, sample_num);
			} else {
				status_code =
						_sercom_get_async_baud_val(config->baudrate,
    14aa:	683b      	ldr	r3, [r7, #0]
    14ac:	6a1e      	ldr	r6, [r3, #32]
    14ae:	693b      	ldr	r3, [r7, #16]
    14b0:	b2db      	uxtb	r3, r3
    14b2:	1c18      	adds	r0, r3, #0
    14b4:	4b51      	ldr	r3, [pc, #324]	; (15fc <_usart_set_config+0x2d4>)
    14b6:	4798      	blx	r3
    14b8:	1c01      	adds	r1, r0, #0
			if (config->use_external_clock) {
				status_code =
						_sercom_get_async_baud_val(config->baudrate,
							config->ext_clock_freq, &baud, mode, sample_num);
			} else {
				status_code =
    14ba:	231d      	movs	r3, #29
    14bc:	18fc      	adds	r4, r7, r3
    14be:	230e      	movs	r3, #14
    14c0:	18fa      	adds	r2, r7, r3
    14c2:	231f      	movs	r3, #31
    14c4:	18fb      	adds	r3, r7, r3
    14c6:	781d      	ldrb	r5, [r3, #0]
    14c8:	231e      	movs	r3, #30
    14ca:	18fb      	adds	r3, r7, r3
    14cc:	781b      	ldrb	r3, [r3, #0]
    14ce:	9300      	str	r3, [sp, #0]
    14d0:	1c30      	adds	r0, r6, #0
    14d2:	1c2b      	adds	r3, r5, #0
    14d4:	4d4b      	ldr	r5, [pc, #300]	; (1604 <_usart_set_config+0x2dc>)
    14d6:	47a8      	blx	r5
    14d8:	1c03      	adds	r3, r0, #0
    14da:	7023      	strb	r3, [r4, #0]
						_sercom_get_async_baud_val(config->baudrate,
							system_gclk_chan_get_hz(gclk_index), &baud, mode, sample_num);
			}

			break;
    14dc:	46c0      	nop			; (mov r8, r8)
	}

	/* Check if calculating the baudrate failed */
	if (status_code != STATUS_OK) {
    14de:	231d      	movs	r3, #29
    14e0:	18fb      	adds	r3, r7, r3
    14e2:	781b      	ldrb	r3, [r3, #0]
    14e4:	2b00      	cmp	r3, #0
    14e6:	d003      	beq.n	14f0 <_usart_set_config+0x1c8>
		/* Abort */
		return status_code;
    14e8:	231d      	movs	r3, #29
    14ea:	18fb      	adds	r3, r7, r3
    14ec:	781b      	ldrb	r3, [r3, #0]
    14ee:	e07e      	b.n	15ee <_usart_set_config+0x2c6>
	}

#ifdef FEATURE_USART_IRDA
	if(config->encoding_format_enable) {
    14f0:	683b      	ldr	r3, [r7, #0]
    14f2:	7e5b      	ldrb	r3, [r3, #25]
    14f4:	2b00      	cmp	r3, #0
    14f6:	d003      	beq.n	1500 <_usart_set_config+0x1d8>
		usart_hw->RXPL.reg = config->receive_pulse_length;
    14f8:	683b      	ldr	r3, [r7, #0]
    14fa:	7e9a      	ldrb	r2, [r3, #26]
    14fc:	69bb      	ldr	r3, [r7, #24]
    14fe:	739a      	strb	r2, [r3, #14]
	}
#endif

	/* Wait until synchronization is complete */
	_usart_wait_for_sync(module);
    1500:	687b      	ldr	r3, [r7, #4]
    1502:	1c18      	adds	r0, r3, #0
    1504:	4b40      	ldr	r3, [pc, #256]	; (1608 <_usart_set_config+0x2e0>)
    1506:	4798      	blx	r3

	/*Set baud val */
	usart_hw->BAUD.reg = baud;
    1508:	230e      	movs	r3, #14
    150a:	18fb      	adds	r3, r7, r3
    150c:	881a      	ldrh	r2, [r3, #0]
    150e:	69bb      	ldr	r3, [r7, #24]
    1510:	819a      	strh	r2, [r3, #12]

	/* Set sample mode */
	ctrla |= config->transfer_mode;
    1512:	683b      	ldr	r3, [r7, #0]
    1514:	685b      	ldr	r3, [r3, #4]
    1516:	6a7a      	ldr	r2, [r7, #36]	; 0x24
    1518:	4313      	orrs	r3, r2
    151a:	627b      	str	r3, [r7, #36]	; 0x24

	if (config->use_external_clock == false) {
    151c:	683b      	ldr	r3, [r7, #0]
    151e:	2227      	movs	r2, #39	; 0x27
    1520:	5c9b      	ldrb	r3, [r3, r2]
    1522:	2201      	movs	r2, #1
    1524:	4053      	eors	r3, r2
    1526:	b2db      	uxtb	r3, r3
    1528:	2b00      	cmp	r3, #0
    152a:	d003      	beq.n	1534 <_usart_set_config+0x20c>
		ctrla |= SERCOM_USART_CTRLA_MODE_USART_INT_CLK;
    152c:	6a7b      	ldr	r3, [r7, #36]	; 0x24
    152e:	2204      	movs	r2, #4
    1530:	4313      	orrs	r3, r2
    1532:	627b      	str	r3, [r7, #36]	; 0x24
	else {
		ctrla |= SERCOM_USART_CTRLA_MODE_USART_EXT_CLK;
	}

	/* Set stopbits, character size and enable transceivers */
	ctrlb = (uint32_t)config->stopbits | (uint32_t)config->character_size |
    1534:	683b      	ldr	r3, [r7, #0]
    1536:	7a9a      	ldrb	r2, [r3, #10]
    1538:	683b      	ldr	r3, [r7, #0]
    153a:	7adb      	ldrb	r3, [r3, #11]
    153c:	4313      	orrs	r3, r2
    153e:	b2db      	uxtb	r3, r3
    1540:	1c1a      	adds	r2, r3, #0
		#ifdef FEATURE_USART_IRDA
			(config->encoding_format_enable << SERCOM_USART_CTRLB_ENC_Pos) |
    1542:	683b      	ldr	r3, [r7, #0]
    1544:	7e5b      	ldrb	r3, [r3, #25]
    1546:	029b      	lsls	r3, r3, #10
	else {
		ctrla |= SERCOM_USART_CTRLA_MODE_USART_EXT_CLK;
	}

	/* Set stopbits, character size and enable transceivers */
	ctrlb = (uint32_t)config->stopbits | (uint32_t)config->character_size |
    1548:	4313      	orrs	r3, r2
		#ifdef FEATURE_USART_IRDA
			(config->encoding_format_enable << SERCOM_USART_CTRLB_ENC_Pos) |
		#endif
		#ifdef FEATURE_USART_START_FRAME_DECTION
			(config->start_frame_detection_enable << SERCOM_USART_CTRLB_SFDE_Pos) |
    154a:	683a      	ldr	r2, [r7, #0]
    154c:	7f12      	ldrb	r2, [r2, #28]
    154e:	0252      	lsls	r2, r2, #9
	}

	/* Set stopbits, character size and enable transceivers */
	ctrlb = (uint32_t)config->stopbits | (uint32_t)config->character_size |
		#ifdef FEATURE_USART_IRDA
			(config->encoding_format_enable << SERCOM_USART_CTRLB_ENC_Pos) |
    1550:	4313      	orrs	r3, r2
		#endif
		#ifdef FEATURE_USART_START_FRAME_DECTION
			(config->start_frame_detection_enable << SERCOM_USART_CTRLB_SFDE_Pos) |
		#endif
		#ifdef FEATURE_USART_COLLISION_DECTION
			(config->collision_detection_enable << SERCOM_USART_CTRLB_COLDEN_Pos) |
    1552:	683a      	ldr	r2, [r7, #0]
    1554:	7f52      	ldrb	r2, [r2, #29]
    1556:	0212      	lsls	r2, r2, #8
	ctrlb = (uint32_t)config->stopbits | (uint32_t)config->character_size |
		#ifdef FEATURE_USART_IRDA
			(config->encoding_format_enable << SERCOM_USART_CTRLB_ENC_Pos) |
		#endif
		#ifdef FEATURE_USART_START_FRAME_DECTION
			(config->start_frame_detection_enable << SERCOM_USART_CTRLB_SFDE_Pos) |
    1558:	4313      	orrs	r3, r2
		#endif
		#ifdef FEATURE_USART_COLLISION_DECTION
			(config->collision_detection_enable << SERCOM_USART_CTRLB_COLDEN_Pos) |
		#endif
			(config->receiver_enable << SERCOM_USART_CTRLB_RXEN_Pos) |
    155a:	683a      	ldr	r2, [r7, #0]
    155c:	2124      	movs	r1, #36	; 0x24
    155e:	5c52      	ldrb	r2, [r2, r1]
    1560:	0452      	lsls	r2, r2, #17
		#endif
		#ifdef FEATURE_USART_START_FRAME_DECTION
			(config->start_frame_detection_enable << SERCOM_USART_CTRLB_SFDE_Pos) |
		#endif
		#ifdef FEATURE_USART_COLLISION_DECTION
			(config->collision_detection_enable << SERCOM_USART_CTRLB_COLDEN_Pos) |
    1562:	4313      	orrs	r3, r2
		#endif
			(config->receiver_enable << SERCOM_USART_CTRLB_RXEN_Pos) |
			(config->transmitter_enable << SERCOM_USART_CTRLB_TXEN_Pos);
    1564:	683a      	ldr	r2, [r7, #0]
    1566:	2125      	movs	r1, #37	; 0x25
    1568:	5c52      	ldrb	r2, [r2, r1]
    156a:	0412      	lsls	r2, r2, #16
	else {
		ctrla |= SERCOM_USART_CTRLA_MODE_USART_EXT_CLK;
	}

	/* Set stopbits, character size and enable transceivers */
	ctrlb = (uint32_t)config->stopbits | (uint32_t)config->character_size |
    156c:	4313      	orrs	r3, r2
    156e:	623b      	str	r3, [r7, #32]
		#endif
			(config->receiver_enable << SERCOM_USART_CTRLB_RXEN_Pos) |
			(config->transmitter_enable << SERCOM_USART_CTRLB_TXEN_Pos);

	/* Check parity mode bits */
	if (config->parity != USART_PARITY_NONE) {
    1570:	683b      	ldr	r3, [r7, #0]
    1572:	891b      	ldrh	r3, [r3, #8]
    1574:	2bff      	cmp	r3, #255	; 0xff
    1576:	d015      	beq.n	15a4 <_usart_set_config+0x27c>
#ifdef FEATURE_USART_LIN_SLAVE
		if(config->lin_slave_enable) {
    1578:	683b      	ldr	r3, [r7, #0]
    157a:	7edb      	ldrb	r3, [r3, #27]
    157c:	2b00      	cmp	r3, #0
    157e:	d005      	beq.n	158c <_usart_set_config+0x264>
			ctrla |= SERCOM_USART_CTRLA_FORM(0x5);
    1580:	6a7b      	ldr	r3, [r7, #36]	; 0x24
    1582:	22a0      	movs	r2, #160	; 0xa0
    1584:	04d2      	lsls	r2, r2, #19
    1586:	4313      	orrs	r3, r2
    1588:	627b      	str	r3, [r7, #36]	; 0x24
    158a:	e004      	b.n	1596 <_usart_set_config+0x26e>
		} else {
			ctrla |= SERCOM_USART_CTRLA_FORM(1);
    158c:	6a7b      	ldr	r3, [r7, #36]	; 0x24
    158e:	2280      	movs	r2, #128	; 0x80
    1590:	0452      	lsls	r2, r2, #17
    1592:	4313      	orrs	r3, r2
    1594:	627b      	str	r3, [r7, #36]	; 0x24
		}
#else
		ctrla |= SERCOM_USART_CTRLA_FORM(1);
#endif
		ctrlb |= config->parity;
    1596:	683b      	ldr	r3, [r7, #0]
    1598:	891b      	ldrh	r3, [r3, #8]
    159a:	1c1a      	adds	r2, r3, #0
    159c:	6a3b      	ldr	r3, [r7, #32]
    159e:	4313      	orrs	r3, r2
    15a0:	623b      	str	r3, [r7, #32]
    15a2:	e008      	b.n	15b6 <_usart_set_config+0x28e>
	} else {
#ifdef FEATURE_USART_LIN_SLAVE
		if(config->lin_slave_enable) {
    15a4:	683b      	ldr	r3, [r7, #0]
    15a6:	7edb      	ldrb	r3, [r3, #27]
    15a8:	2b00      	cmp	r3, #0
    15aa:	d004      	beq.n	15b6 <_usart_set_config+0x28e>
			ctrla |= SERCOM_USART_CTRLA_FORM(0x4);
    15ac:	6a7b      	ldr	r3, [r7, #36]	; 0x24
    15ae:	2280      	movs	r2, #128	; 0x80
    15b0:	04d2      	lsls	r2, r2, #19
    15b2:	4313      	orrs	r3, r2
    15b4:	627b      	str	r3, [r7, #36]	; 0x24
		ctrla |= SERCOM_USART_CTRLA_FORM(0);
#endif
	}

	/* Set whether module should run in standby. */
	if (config->run_in_standby || system_is_debugger_present()) {
    15b6:	683b      	ldr	r3, [r7, #0]
    15b8:	222c      	movs	r2, #44	; 0x2c
    15ba:	5c9b      	ldrb	r3, [r3, r2]
    15bc:	2b00      	cmp	r3, #0
    15be:	d103      	bne.n	15c8 <_usart_set_config+0x2a0>
    15c0:	4b12      	ldr	r3, [pc, #72]	; (160c <_usart_set_config+0x2e4>)
    15c2:	4798      	blx	r3
    15c4:	1e03      	subs	r3, r0, #0
    15c6:	d003      	beq.n	15d0 <_usart_set_config+0x2a8>
		ctrla |= SERCOM_USART_CTRLA_RUNSTDBY;
    15c8:	6a7b      	ldr	r3, [r7, #36]	; 0x24
    15ca:	2280      	movs	r2, #128	; 0x80
    15cc:	4313      	orrs	r3, r2
    15ce:	627b      	str	r3, [r7, #36]	; 0x24
	}

	/* Wait until synchronization is complete */
	_usart_wait_for_sync(module);
    15d0:	687b      	ldr	r3, [r7, #4]
    15d2:	1c18      	adds	r0, r3, #0
    15d4:	4b0c      	ldr	r3, [pc, #48]	; (1608 <_usart_set_config+0x2e0>)
    15d6:	4798      	blx	r3

	/* Write configuration to CTRLB */
	usart_hw->CTRLB.reg = ctrlb;
    15d8:	69bb      	ldr	r3, [r7, #24]
    15da:	6a3a      	ldr	r2, [r7, #32]
    15dc:	605a      	str	r2, [r3, #4]

	/* Wait until synchronization is complete */
	_usart_wait_for_sync(module);
    15de:	687b      	ldr	r3, [r7, #4]
    15e0:	1c18      	adds	r0, r3, #0
    15e2:	4b09      	ldr	r3, [pc, #36]	; (1608 <_usart_set_config+0x2e0>)
    15e4:	4798      	blx	r3

	/* Write configuration to CTRLA */
	usart_hw->CTRLA.reg = ctrla;
    15e6:	69bb      	ldr	r3, [r7, #24]
    15e8:	6a7a      	ldr	r2, [r7, #36]	; 0x24
    15ea:	601a      	str	r2, [r3, #0]

	return STATUS_OK;
    15ec:	2300      	movs	r3, #0
}
    15ee:	1c18      	adds	r0, r3, #0
    15f0:	46bd      	mov	sp, r7
    15f2:	b00b      	add	sp, #44	; 0x2c
    15f4:	bdf0      	pop	{r4, r5, r6, r7, pc}
    15f6:	46c0      	nop			; (mov r8, r8)
    15f8:	00001099 	.word	0x00001099
    15fc:	00002bfd 	.word	0x00002bfd
    1600:	00000be5 	.word	0x00000be5
    1604:	00000c61 	.word	0x00000c61
    1608:	00001309 	.word	0x00001309
    160c:	000012c9 	.word	0x000012c9

00001610 <usart_init>:
 */
enum status_code usart_init(
		struct usart_module *const module,
		Sercom *const hw,
		const struct usart_config *const config)
{
    1610:	b590      	push	{r4, r7, lr}
    1612:	b093      	sub	sp, #76	; 0x4c
    1614:	af00      	add	r7, sp, #0
    1616:	60f8      	str	r0, [r7, #12]
    1618:	60b9      	str	r1, [r7, #8]
    161a:	607a      	str	r2, [r7, #4]
	/* Sanity check arguments */
	Assert(module);
	Assert(hw);
	Assert(config);

	enum status_code status_code = STATUS_OK;
    161c:	233b      	movs	r3, #59	; 0x3b
    161e:	18fb      	adds	r3, r7, r3
    1620:	2200      	movs	r2, #0
    1622:	701a      	strb	r2, [r3, #0]

	/* Assign module pointer to software instance struct */
	module->hw = hw;
    1624:	68fb      	ldr	r3, [r7, #12]
    1626:	68ba      	ldr	r2, [r7, #8]
    1628:	601a      	str	r2, [r3, #0]

	/* Get a pointer to the hardware module instance */
	SercomUsart *const usart_hw = &(module->hw->USART);
    162a:	68fb      	ldr	r3, [r7, #12]
    162c:	681b      	ldr	r3, [r3, #0]
    162e:	637b      	str	r3, [r7, #52]	; 0x34

	uint32_t sercom_index = _sercom_get_sercom_inst_index(module->hw);
    1630:	68fb      	ldr	r3, [r7, #12]
    1632:	681b      	ldr	r3, [r3, #0]
    1634:	1c18      	adds	r0, r3, #0
    1636:	4b85      	ldr	r3, [pc, #532]	; (184c <usart_init+0x23c>)
    1638:	4798      	blx	r3
    163a:	1c03      	adds	r3, r0, #0
    163c:	633b      	str	r3, [r7, #48]	; 0x30
	uint32_t pm_index     = sercom_index + PM_APBCMASK_SERCOM0_Pos;
    163e:	6b3b      	ldr	r3, [r7, #48]	; 0x30
    1640:	3302      	adds	r3, #2
    1642:	62fb      	str	r3, [r7, #44]	; 0x2c
	uint32_t gclk_index   = sercom_index + SERCOM0_GCLK_ID_CORE;
    1644:	6b3b      	ldr	r3, [r7, #48]	; 0x30
    1646:	3314      	adds	r3, #20
    1648:	62bb      	str	r3, [r7, #40]	; 0x28

	if (usart_hw->CTRLA.reg & SERCOM_USART_CTRLA_SWRST) {
    164a:	6b7b      	ldr	r3, [r7, #52]	; 0x34
    164c:	681b      	ldr	r3, [r3, #0]
    164e:	2201      	movs	r2, #1
    1650:	4013      	ands	r3, r2
    1652:	d001      	beq.n	1658 <usart_init+0x48>
		/* The module is busy resetting itself */
		return STATUS_BUSY;
    1654:	2305      	movs	r3, #5
    1656:	e0f5      	b.n	1844 <usart_init+0x234>
	}

	if (usart_hw->CTRLA.reg & SERCOM_USART_CTRLA_ENABLE) {
    1658:	6b7b      	ldr	r3, [r7, #52]	; 0x34
    165a:	681b      	ldr	r3, [r3, #0]
    165c:	2202      	movs	r2, #2
    165e:	4013      	ands	r3, r2
    1660:	d001      	beq.n	1666 <usart_init+0x56>
		/* Check the module is enabled */
		return STATUS_ERR_DENIED;
    1662:	231c      	movs	r3, #28
    1664:	e0ee      	b.n	1844 <usart_init+0x234>
	}

	/* Turn on module in PM */
	system_apb_clock_set_mask(SYSTEM_CLOCK_APB_APBC, 1 << pm_index);
    1666:	6afb      	ldr	r3, [r7, #44]	; 0x2c
    1668:	2201      	movs	r2, #1
    166a:	409a      	lsls	r2, r3
    166c:	1c13      	adds	r3, r2, #0
    166e:	2002      	movs	r0, #2
    1670:	1c19      	adds	r1, r3, #0
    1672:	4b77      	ldr	r3, [pc, #476]	; (1850 <usart_init+0x240>)
    1674:	4798      	blx	r3

	/* Set up the GCLK for the module */
	struct system_gclk_chan_config gclk_chan_conf;
	system_gclk_chan_get_config_defaults(&gclk_chan_conf);
    1676:	2324      	movs	r3, #36	; 0x24
    1678:	18fb      	adds	r3, r7, r3
    167a:	1c18      	adds	r0, r3, #0
    167c:	4b75      	ldr	r3, [pc, #468]	; (1854 <usart_init+0x244>)
    167e:	4798      	blx	r3
	gclk_chan_conf.source_generator = config->generator_source;
    1680:	687b      	ldr	r3, [r7, #4]
    1682:	222d      	movs	r2, #45	; 0x2d
    1684:	5c9a      	ldrb	r2, [r3, r2]
    1686:	2324      	movs	r3, #36	; 0x24
    1688:	18fb      	adds	r3, r7, r3
    168a:	701a      	strb	r2, [r3, #0]
	system_gclk_chan_set_config(gclk_index, &gclk_chan_conf);
    168c:	6abb      	ldr	r3, [r7, #40]	; 0x28
    168e:	b2da      	uxtb	r2, r3
    1690:	2324      	movs	r3, #36	; 0x24
    1692:	18fb      	adds	r3, r7, r3
    1694:	1c10      	adds	r0, r2, #0
    1696:	1c19      	adds	r1, r3, #0
    1698:	4b6f      	ldr	r3, [pc, #444]	; (1858 <usart_init+0x248>)
    169a:	4798      	blx	r3
	system_gclk_chan_enable(gclk_index);
    169c:	6abb      	ldr	r3, [r7, #40]	; 0x28
    169e:	b2db      	uxtb	r3, r3
    16a0:	1c18      	adds	r0, r3, #0
    16a2:	4b6e      	ldr	r3, [pc, #440]	; (185c <usart_init+0x24c>)
    16a4:	4798      	blx	r3
	sercom_set_gclk_generator(config->generator_source, false);
    16a6:	687b      	ldr	r3, [r7, #4]
    16a8:	222d      	movs	r2, #45	; 0x2d
    16aa:	5c9b      	ldrb	r3, [r3, r2]
    16ac:	1c18      	adds	r0, r3, #0
    16ae:	2100      	movs	r1, #0
    16b0:	4b6b      	ldr	r3, [pc, #428]	; (1860 <usart_init+0x250>)
    16b2:	4798      	blx	r3

	/* Set character size */
	module->character_size = config->character_size;
    16b4:	687b      	ldr	r3, [r7, #4]
    16b6:	7ada      	ldrb	r2, [r3, #11]
    16b8:	68fb      	ldr	r3, [r7, #12]
    16ba:	715a      	strb	r2, [r3, #5]

	/* Set transmitter and receiver status */
	module->receiver_enabled = config->receiver_enable;
    16bc:	687b      	ldr	r3, [r7, #4]
    16be:	2224      	movs	r2, #36	; 0x24
    16c0:	5c9a      	ldrb	r2, [r3, r2]
    16c2:	68fb      	ldr	r3, [r7, #12]
    16c4:	719a      	strb	r2, [r3, #6]
	module->transmitter_enabled = config->transmitter_enable;
    16c6:	687b      	ldr	r3, [r7, #4]
    16c8:	2225      	movs	r2, #37	; 0x25
    16ca:	5c9a      	ldrb	r2, [r3, r2]
    16cc:	68fb      	ldr	r3, [r7, #12]
    16ce:	71da      	strb	r2, [r3, #7]

#ifdef FEATURE_USART_LIN_SLAVE
	module->lin_slave_enabled = config->lin_slave_enable;
    16d0:	687b      	ldr	r3, [r7, #4]
    16d2:	7eda      	ldrb	r2, [r3, #27]
    16d4:	68fb      	ldr	r3, [r7, #12]
    16d6:	721a      	strb	r2, [r3, #8]
#endif
#ifdef FEATURE_USART_START_FRAME_DECTION
	module->start_frame_detection_enabled = config->start_frame_detection_enable;
    16d8:	687b      	ldr	r3, [r7, #4]
    16da:	7f1a      	ldrb	r2, [r3, #28]
    16dc:	68fb      	ldr	r3, [r7, #12]
    16de:	725a      	strb	r2, [r3, #9]
#endif
	/* Set configuration according to the config struct */
	status_code = _usart_set_config(module, config);
    16e0:	233b      	movs	r3, #59	; 0x3b
    16e2:	18fc      	adds	r4, r7, r3
    16e4:	68fa      	ldr	r2, [r7, #12]
    16e6:	687b      	ldr	r3, [r7, #4]
    16e8:	1c10      	adds	r0, r2, #0
    16ea:	1c19      	adds	r1, r3, #0
    16ec:	4b5d      	ldr	r3, [pc, #372]	; (1864 <usart_init+0x254>)
    16ee:	4798      	blx	r3
    16f0:	1c03      	adds	r3, r0, #0
    16f2:	7023      	strb	r3, [r4, #0]
	if(status_code != STATUS_OK) {
    16f4:	233b      	movs	r3, #59	; 0x3b
    16f6:	18fb      	adds	r3, r7, r3
    16f8:	781b      	ldrb	r3, [r3, #0]
    16fa:	2b00      	cmp	r3, #0
    16fc:	d003      	beq.n	1706 <usart_init+0xf6>
		return status_code;
    16fe:	233b      	movs	r3, #59	; 0x3b
    1700:	18fb      	adds	r3, r7, r3
    1702:	781b      	ldrb	r3, [r3, #0]
    1704:	e09e      	b.n	1844 <usart_init+0x234>
	}

	struct system_pinmux_config pin_conf;
	system_pinmux_get_config_defaults(&pin_conf);
    1706:	2320      	movs	r3, #32
    1708:	18fb      	adds	r3, r7, r3
    170a:	1c18      	adds	r0, r3, #0
    170c:	4b56      	ldr	r3, [pc, #344]	; (1868 <usart_init+0x258>)
    170e:	4798      	blx	r3
	pin_conf.direction = SYSTEM_PINMUX_PIN_DIR_INPUT;
    1710:	2320      	movs	r3, #32
    1712:	18fb      	adds	r3, r7, r3
    1714:	2200      	movs	r2, #0
    1716:	705a      	strb	r2, [r3, #1]
	pin_conf.input_pull = SYSTEM_PINMUX_PIN_PULL_NONE;
    1718:	2320      	movs	r3, #32
    171a:	18fb      	adds	r3, r7, r3
    171c:	2200      	movs	r2, #0
    171e:	709a      	strb	r2, [r3, #2]

	uint32_t pad_pinmuxes[] = {
			config->pinmux_pad0, config->pinmux_pad1,
    1720:	687b      	ldr	r3, [r7, #4]
    1722:	6b1a      	ldr	r2, [r3, #48]	; 0x30
	struct system_pinmux_config pin_conf;
	system_pinmux_get_config_defaults(&pin_conf);
	pin_conf.direction = SYSTEM_PINMUX_PIN_DIR_INPUT;
	pin_conf.input_pull = SYSTEM_PINMUX_PIN_PULL_NONE;

	uint32_t pad_pinmuxes[] = {
    1724:	2310      	movs	r3, #16
    1726:	18fb      	adds	r3, r7, r3
    1728:	601a      	str	r2, [r3, #0]
			config->pinmux_pad0, config->pinmux_pad1,
    172a:	687b      	ldr	r3, [r7, #4]
    172c:	6b5a      	ldr	r2, [r3, #52]	; 0x34
	struct system_pinmux_config pin_conf;
	system_pinmux_get_config_defaults(&pin_conf);
	pin_conf.direction = SYSTEM_PINMUX_PIN_DIR_INPUT;
	pin_conf.input_pull = SYSTEM_PINMUX_PIN_PULL_NONE;

	uint32_t pad_pinmuxes[] = {
    172e:	2310      	movs	r3, #16
    1730:	18fb      	adds	r3, r7, r3
    1732:	605a      	str	r2, [r3, #4]
			config->pinmux_pad0, config->pinmux_pad1,
			config->pinmux_pad2, config->pinmux_pad3
    1734:	687b      	ldr	r3, [r7, #4]
    1736:	6b9a      	ldr	r2, [r3, #56]	; 0x38
	struct system_pinmux_config pin_conf;
	system_pinmux_get_config_defaults(&pin_conf);
	pin_conf.direction = SYSTEM_PINMUX_PIN_DIR_INPUT;
	pin_conf.input_pull = SYSTEM_PINMUX_PIN_PULL_NONE;

	uint32_t pad_pinmuxes[] = {
    1738:	2310      	movs	r3, #16
    173a:	18fb      	adds	r3, r7, r3
    173c:	609a      	str	r2, [r3, #8]
			config->pinmux_pad0, config->pinmux_pad1,
			config->pinmux_pad2, config->pinmux_pad3
    173e:	687b      	ldr	r3, [r7, #4]
    1740:	6bda      	ldr	r2, [r3, #60]	; 0x3c
	struct system_pinmux_config pin_conf;
	system_pinmux_get_config_defaults(&pin_conf);
	pin_conf.direction = SYSTEM_PINMUX_PIN_DIR_INPUT;
	pin_conf.input_pull = SYSTEM_PINMUX_PIN_PULL_NONE;

	uint32_t pad_pinmuxes[] = {
    1742:	2310      	movs	r3, #16
    1744:	18fb      	adds	r3, r7, r3
    1746:	60da      	str	r2, [r3, #12]
			config->pinmux_pad0, config->pinmux_pad1,
			config->pinmux_pad2, config->pinmux_pad3
		};

	/* Configure the SERCOM pins according to the user configuration */
	for (uint8_t pad = 0; pad < 4; pad++) {
    1748:	2347      	movs	r3, #71	; 0x47
    174a:	18fb      	adds	r3, r7, r3
    174c:	2200      	movs	r2, #0
    174e:	701a      	strb	r2, [r3, #0]
    1750:	e02c      	b.n	17ac <usart_init+0x19c>
		uint32_t current_pinmux = pad_pinmuxes[pad];
    1752:	2347      	movs	r3, #71	; 0x47
    1754:	18fb      	adds	r3, r7, r3
    1756:	781a      	ldrb	r2, [r3, #0]
    1758:	2310      	movs	r3, #16
    175a:	18fb      	adds	r3, r7, r3
    175c:	0092      	lsls	r2, r2, #2
    175e:	58d3      	ldr	r3, [r2, r3]
    1760:	643b      	str	r3, [r7, #64]	; 0x40

		if (current_pinmux == PINMUX_DEFAULT) {
    1762:	6c3b      	ldr	r3, [r7, #64]	; 0x40
    1764:	2b00      	cmp	r3, #0
    1766:	d109      	bne.n	177c <usart_init+0x16c>
			current_pinmux = _sercom_get_default_pad(hw, pad);
    1768:	68ba      	ldr	r2, [r7, #8]
    176a:	2347      	movs	r3, #71	; 0x47
    176c:	18fb      	adds	r3, r7, r3
    176e:	781b      	ldrb	r3, [r3, #0]
    1770:	1c10      	adds	r0, r2, #0
    1772:	1c19      	adds	r1, r3, #0
    1774:	4b3d      	ldr	r3, [pc, #244]	; (186c <usart_init+0x25c>)
    1776:	4798      	blx	r3
    1778:	1c03      	adds	r3, r0, #0
    177a:	643b      	str	r3, [r7, #64]	; 0x40
		}

		if (current_pinmux != PINMUX_UNUSED) {
    177c:	6c3b      	ldr	r3, [r7, #64]	; 0x40
    177e:	3301      	adds	r3, #1
    1780:	d00d      	beq.n	179e <usart_init+0x18e>
			pin_conf.mux_position = current_pinmux & 0xFFFF;
    1782:	6c3b      	ldr	r3, [r7, #64]	; 0x40
    1784:	b2da      	uxtb	r2, r3
    1786:	2320      	movs	r3, #32
    1788:	18fb      	adds	r3, r7, r3
    178a:	701a      	strb	r2, [r3, #0]
			system_pinmux_pin_set_config(current_pinmux >> 16, &pin_conf);
    178c:	6c3b      	ldr	r3, [r7, #64]	; 0x40
    178e:	0c1b      	lsrs	r3, r3, #16
    1790:	b2da      	uxtb	r2, r3
    1792:	2320      	movs	r3, #32
    1794:	18fb      	adds	r3, r7, r3
    1796:	1c10      	adds	r0, r2, #0
    1798:	1c19      	adds	r1, r3, #0
    179a:	4b35      	ldr	r3, [pc, #212]	; (1870 <usart_init+0x260>)
    179c:	4798      	blx	r3
			config->pinmux_pad0, config->pinmux_pad1,
			config->pinmux_pad2, config->pinmux_pad3
		};

	/* Configure the SERCOM pins according to the user configuration */
	for (uint8_t pad = 0; pad < 4; pad++) {
    179e:	2347      	movs	r3, #71	; 0x47
    17a0:	18fb      	adds	r3, r7, r3
    17a2:	781a      	ldrb	r2, [r3, #0]
    17a4:	2347      	movs	r3, #71	; 0x47
    17a6:	18fb      	adds	r3, r7, r3
    17a8:	3201      	adds	r2, #1
    17aa:	701a      	strb	r2, [r3, #0]
    17ac:	2347      	movs	r3, #71	; 0x47
    17ae:	18fb      	adds	r3, r7, r3
    17b0:	781b      	ldrb	r3, [r3, #0]
    17b2:	2b03      	cmp	r3, #3
    17b4:	d9cd      	bls.n	1752 <usart_init+0x142>
		}
	}

#if USART_CALLBACK_MODE == true
	/* Initialize parameters */
	for (uint32_t i = 0; i < USART_CALLBACK_N; i++) {
    17b6:	2300      	movs	r3, #0
    17b8:	63fb      	str	r3, [r7, #60]	; 0x3c
    17ba:	e009      	b.n	17d0 <usart_init+0x1c0>
		module->callback[i]            = NULL;
    17bc:	68fa      	ldr	r2, [r7, #12]
    17be:	6bfb      	ldr	r3, [r7, #60]	; 0x3c
    17c0:	3302      	adds	r3, #2
    17c2:	009b      	lsls	r3, r3, #2
    17c4:	18d3      	adds	r3, r2, r3
    17c6:	2200      	movs	r2, #0
    17c8:	605a      	str	r2, [r3, #4]
		}
	}

#if USART_CALLBACK_MODE == true
	/* Initialize parameters */
	for (uint32_t i = 0; i < USART_CALLBACK_N; i++) {
    17ca:	6bfb      	ldr	r3, [r7, #60]	; 0x3c
    17cc:	3301      	adds	r3, #1
    17ce:	63fb      	str	r3, [r7, #60]	; 0x3c
    17d0:	6bfb      	ldr	r3, [r7, #60]	; 0x3c
    17d2:	2b05      	cmp	r3, #5
    17d4:	d9f2      	bls.n	17bc <usart_init+0x1ac>
		module->callback[i]            = NULL;
	}

	module->tx_buffer_ptr              = NULL;
    17d6:	68fb      	ldr	r3, [r7, #12]
    17d8:	2200      	movs	r2, #0
    17da:	629a      	str	r2, [r3, #40]	; 0x28
	module->rx_buffer_ptr              = NULL;
    17dc:	68fb      	ldr	r3, [r7, #12]
    17de:	2200      	movs	r2, #0
    17e0:	625a      	str	r2, [r3, #36]	; 0x24
	module->remaining_tx_buffer_length = 0x0000;
    17e2:	68fb      	ldr	r3, [r7, #12]
    17e4:	2200      	movs	r2, #0
    17e6:	85da      	strh	r2, [r3, #46]	; 0x2e
	module->remaining_rx_buffer_length = 0x0000;
    17e8:	68fb      	ldr	r3, [r7, #12]
    17ea:	2200      	movs	r2, #0
    17ec:	859a      	strh	r2, [r3, #44]	; 0x2c
	module->callback_reg_mask          = 0x00;
    17ee:	68fb      	ldr	r3, [r7, #12]
    17f0:	2230      	movs	r2, #48	; 0x30
    17f2:	2100      	movs	r1, #0
    17f4:	5499      	strb	r1, [r3, r2]
	module->callback_enable_mask       = 0x00;
    17f6:	68fb      	ldr	r3, [r7, #12]
    17f8:	2231      	movs	r2, #49	; 0x31
    17fa:	2100      	movs	r1, #0
    17fc:	5499      	strb	r1, [r3, r2]
	module->rx_status                  = STATUS_OK;
    17fe:	68fb      	ldr	r3, [r7, #12]
    1800:	2232      	movs	r2, #50	; 0x32
    1802:	2100      	movs	r1, #0
    1804:	5499      	strb	r1, [r3, r2]
	module->tx_status                  = STATUS_OK;
    1806:	68fb      	ldr	r3, [r7, #12]
    1808:	2233      	movs	r2, #51	; 0x33
    180a:	2100      	movs	r1, #0
    180c:	5499      	strb	r1, [r3, r2]

	/* Set interrupt handler and register USART software module struct in
	 * look-up table */
	uint8_t instance_index = _sercom_get_sercom_inst_index(module->hw);
    180e:	68fb      	ldr	r3, [r7, #12]
    1810:	681b      	ldr	r3, [r3, #0]
    1812:	2227      	movs	r2, #39	; 0x27
    1814:	18bc      	adds	r4, r7, r2
    1816:	1c18      	adds	r0, r3, #0
    1818:	4b0c      	ldr	r3, [pc, #48]	; (184c <usart_init+0x23c>)
    181a:	4798      	blx	r3
    181c:	1c03      	adds	r3, r0, #0
    181e:	7023      	strb	r3, [r4, #0]
	_sercom_set_handler(instance_index, _usart_interrupt_handler);
    1820:	2327      	movs	r3, #39	; 0x27
    1822:	18fb      	adds	r3, r7, r3
    1824:	781a      	ldrb	r2, [r3, #0]
    1826:	4b13      	ldr	r3, [pc, #76]	; (1874 <usart_init+0x264>)
    1828:	1c10      	adds	r0, r2, #0
    182a:	1c19      	adds	r1, r3, #0
    182c:	4b12      	ldr	r3, [pc, #72]	; (1878 <usart_init+0x268>)
    182e:	4798      	blx	r3
	_sercom_instances[instance_index] = module;
    1830:	2327      	movs	r3, #39	; 0x27
    1832:	18fb      	adds	r3, r7, r3
    1834:	781a      	ldrb	r2, [r3, #0]
    1836:	4b11      	ldr	r3, [pc, #68]	; (187c <usart_init+0x26c>)
    1838:	0092      	lsls	r2, r2, #2
    183a:	68f9      	ldr	r1, [r7, #12]
    183c:	50d1      	str	r1, [r2, r3]
#endif

	return status_code;
    183e:	233b      	movs	r3, #59	; 0x3b
    1840:	18fb      	adds	r3, r7, r3
    1842:	781b      	ldrb	r3, [r3, #0]
}
    1844:	1c18      	adds	r0, r3, #0
    1846:	46bd      	mov	sp, r7
    1848:	b013      	add	sp, #76	; 0x4c
    184a:	bd90      	pop	{r4, r7, pc}
    184c:	00001099 	.word	0x00001099
    1850:	00001245 	.word	0x00001245
    1854:	00001231 	.word	0x00001231
    1858:	00002ad9 	.word	0x00002ad9
    185c:	00002b1d 	.word	0x00002b1d
    1860:	00000e51 	.word	0x00000e51
    1864:	00001329 	.word	0x00001329
    1868:	000012a1 	.word	0x000012a1
    186c:	00000edd 	.word	0x00000edd
    1870:	00002dc5 	.word	0x00002dc5
    1874:	00001a25 	.word	0x00001a25
    1878:	000010f9 	.word	0x000010f9
    187c:	200001d4 	.word	0x200001d4

00001880 <usart_write_wait>:
 * \retval STATUS_ERR_DENIED If the transmitter is not enabled
 */
enum status_code usart_write_wait(
		struct usart_module *const module,
		const uint16_t tx_data)
{
    1880:	b580      	push	{r7, lr}
    1882:	b084      	sub	sp, #16
    1884:	af00      	add	r7, sp, #0
    1886:	6078      	str	r0, [r7, #4]
    1888:	1c0a      	adds	r2, r1, #0
    188a:	1cbb      	adds	r3, r7, #2
    188c:	801a      	strh	r2, [r3, #0]
	/* Sanity check arguments */
	Assert(module);
	Assert(module->hw);

	/* Get a pointer to the hardware module instance */
	SercomUsart *const usart_hw = &(module->hw->USART);
    188e:	687b      	ldr	r3, [r7, #4]
    1890:	681b      	ldr	r3, [r3, #0]
    1892:	60fb      	str	r3, [r7, #12]

	/* Check that the transmitter is enabled */
	if (!(module->transmitter_enabled)) {
    1894:	687b      	ldr	r3, [r7, #4]
    1896:	79db      	ldrb	r3, [r3, #7]
    1898:	2201      	movs	r2, #1
    189a:	4053      	eors	r3, r2
    189c:	b2db      	uxtb	r3, r3
    189e:	2b00      	cmp	r3, #0
    18a0:	d001      	beq.n	18a6 <usart_write_wait+0x26>
		return STATUS_ERR_DENIED;
    18a2:	231c      	movs	r3, #28
    18a4:	e017      	b.n	18d6 <usart_write_wait+0x56>
	}

#if USART_CALLBACK_MODE == true
	/* Check if the USART is busy doing asynchronous operation. */
	if (module->remaining_tx_buffer_length > 0) {
    18a6:	687b      	ldr	r3, [r7, #4]
    18a8:	8ddb      	ldrh	r3, [r3, #46]	; 0x2e
    18aa:	b29b      	uxth	r3, r3
    18ac:	2b00      	cmp	r3, #0
    18ae:	d001      	beq.n	18b4 <usart_write_wait+0x34>
		return STATUS_BUSY;
    18b0:	2305      	movs	r3, #5
    18b2:	e010      	b.n	18d6 <usart_write_wait+0x56>
		return STATUS_BUSY;
	}
#endif

	/* Wait until synchronization is complete */
	_usart_wait_for_sync(module);
    18b4:	687b      	ldr	r3, [r7, #4]
    18b6:	1c18      	adds	r0, r3, #0
    18b8:	4b09      	ldr	r3, [pc, #36]	; (18e0 <usart_write_wait+0x60>)
    18ba:	4798      	blx	r3

	/* Write data to USART module */
	usart_hw->DATA.reg = tx_data;
    18bc:	68fb      	ldr	r3, [r7, #12]
    18be:	1cba      	adds	r2, r7, #2
    18c0:	8812      	ldrh	r2, [r2, #0]
    18c2:	851a      	strh	r2, [r3, #40]	; 0x28

	while (!(usart_hw->INTFLAG.reg & SERCOM_USART_INTFLAG_TXC)) {
    18c4:	46c0      	nop			; (mov r8, r8)
    18c6:	68fb      	ldr	r3, [r7, #12]
    18c8:	7e1b      	ldrb	r3, [r3, #24]
    18ca:	b2db      	uxtb	r3, r3
    18cc:	1c1a      	adds	r2, r3, #0
    18ce:	2302      	movs	r3, #2
    18d0:	4013      	ands	r3, r2
    18d2:	d0f8      	beq.n	18c6 <usart_write_wait+0x46>
		/* Wait until data is sent */
	}

	return STATUS_OK;
    18d4:	2300      	movs	r3, #0
}
    18d6:	1c18      	adds	r0, r3, #0
    18d8:	46bd      	mov	sp, r7
    18da:	b004      	add	sp, #16
    18dc:	bd80      	pop	{r7, pc}
    18de:	46c0      	nop			; (mov r8, r8)
    18e0:	00001309 	.word	0x00001309

000018e4 <usart_read_wait>:
 * \retval STATUS_ERR_DENIED        If the receiver is not enabled
 */
enum status_code usart_read_wait(
		struct usart_module *const module,
		uint16_t *const rx_data)
{
    18e4:	b580      	push	{r7, lr}
    18e6:	b084      	sub	sp, #16
    18e8:	af00      	add	r7, sp, #0
    18ea:	6078      	str	r0, [r7, #4]
    18ec:	6039      	str	r1, [r7, #0]

	/* Error variable */
	uint8_t error_code;

	/* Get a pointer to the hardware module instance */
	SercomUsart *const usart_hw = &(module->hw->USART);
    18ee:	687b      	ldr	r3, [r7, #4]
    18f0:	681b      	ldr	r3, [r3, #0]
    18f2:	60fb      	str	r3, [r7, #12]

	/* Check that the receiver is enabled */
	if (!(module->receiver_enabled)) {
    18f4:	687b      	ldr	r3, [r7, #4]
    18f6:	799b      	ldrb	r3, [r3, #6]
    18f8:	2201      	movs	r2, #1
    18fa:	4053      	eors	r3, r2
    18fc:	b2db      	uxtb	r3, r3
    18fe:	2b00      	cmp	r3, #0
    1900:	d001      	beq.n	1906 <usart_read_wait+0x22>
		return STATUS_ERR_DENIED;
    1902:	231c      	movs	r3, #28
    1904:	e068      	b.n	19d8 <usart_read_wait+0xf4>
	}

#if USART_CALLBACK_MODE == true
	/* Check if the USART is busy doing asynchronous operation. */
	if (module->remaining_rx_buffer_length > 0) {
    1906:	687b      	ldr	r3, [r7, #4]
    1908:	8d9b      	ldrh	r3, [r3, #44]	; 0x2c
    190a:	b29b      	uxth	r3, r3
    190c:	2b00      	cmp	r3, #0
    190e:	d001      	beq.n	1914 <usart_read_wait+0x30>
		return STATUS_BUSY;
    1910:	2305      	movs	r3, #5
    1912:	e061      	b.n	19d8 <usart_read_wait+0xf4>
	}
#endif

	/* Check if USART has new data */
	if (!(usart_hw->INTFLAG.reg & SERCOM_USART_INTFLAG_RXC)) {
    1914:	68fb      	ldr	r3, [r7, #12]
    1916:	7e1b      	ldrb	r3, [r3, #24]
    1918:	b2db      	uxtb	r3, r3
    191a:	1c1a      	adds	r2, r3, #0
    191c:	2304      	movs	r3, #4
    191e:	4013      	ands	r3, r2
    1920:	d101      	bne.n	1926 <usart_read_wait+0x42>
		/* Return error code */
		return STATUS_BUSY;
    1922:	2305      	movs	r3, #5
    1924:	e058      	b.n	19d8 <usart_read_wait+0xf4>
	}

	/* Wait until synchronization is complete */
	_usart_wait_for_sync(module);
    1926:	687b      	ldr	r3, [r7, #4]
    1928:	1c18      	adds	r0, r3, #0
    192a:	4b2d      	ldr	r3, [pc, #180]	; (19e0 <usart_read_wait+0xfc>)
    192c:	4798      	blx	r3

	/* Read out the status code and mask away all but the 3 LSBs*/
	error_code = (uint8_t)(usart_hw->STATUS.reg & SERCOM_USART_STATUS_MASK);
    192e:	68fb      	ldr	r3, [r7, #12]
    1930:	8b5b      	ldrh	r3, [r3, #26]
    1932:	b29b      	uxth	r3, r3
    1934:	b2da      	uxtb	r2, r3
    1936:	230b      	movs	r3, #11
    1938:	18fb      	adds	r3, r7, r3
    193a:	213f      	movs	r1, #63	; 0x3f
    193c:	400a      	ands	r2, r1
    193e:	701a      	strb	r2, [r3, #0]

	/* Check if an error has occurred during the receiving */
	if (error_code) {
    1940:	230b      	movs	r3, #11
    1942:	18fb      	adds	r3, r7, r3
    1944:	781b      	ldrb	r3, [r3, #0]
    1946:	2b00      	cmp	r3, #0
    1948:	d040      	beq.n	19cc <usart_read_wait+0xe8>
		/* Check which error occurred */
		if (error_code & SERCOM_USART_STATUS_FERR) {
    194a:	230b      	movs	r3, #11
    194c:	18fb      	adds	r3, r7, r3
    194e:	781b      	ldrb	r3, [r3, #0]
    1950:	2202      	movs	r2, #2
    1952:	4013      	ands	r3, r2
    1954:	d004      	beq.n	1960 <usart_read_wait+0x7c>
			/* Clear flag by writing a 1 to it and
			 * return with an error code */
			usart_hw->STATUS.reg = SERCOM_USART_STATUS_FERR;
    1956:	68fb      	ldr	r3, [r7, #12]
    1958:	2202      	movs	r2, #2
    195a:	835a      	strh	r2, [r3, #26]

			return STATUS_ERR_BAD_FORMAT;
    195c:	231a      	movs	r3, #26
    195e:	e03b      	b.n	19d8 <usart_read_wait+0xf4>
		} else if (error_code & SERCOM_USART_STATUS_BUFOVF) {
    1960:	230b      	movs	r3, #11
    1962:	18fb      	adds	r3, r7, r3
    1964:	781b      	ldrb	r3, [r3, #0]
    1966:	2204      	movs	r2, #4
    1968:	4013      	ands	r3, r2
    196a:	d004      	beq.n	1976 <usart_read_wait+0x92>
			/* Clear flag by writing a 1 to it and
			 * return with an error code */
			usart_hw->STATUS.reg = SERCOM_USART_STATUS_BUFOVF;
    196c:	68fb      	ldr	r3, [r7, #12]
    196e:	2204      	movs	r2, #4
    1970:	835a      	strh	r2, [r3, #26]

			return STATUS_ERR_OVERFLOW;
    1972:	231e      	movs	r3, #30
    1974:	e030      	b.n	19d8 <usart_read_wait+0xf4>
		} else if (error_code & SERCOM_USART_STATUS_PERR) {
    1976:	230b      	movs	r3, #11
    1978:	18fb      	adds	r3, r7, r3
    197a:	781b      	ldrb	r3, [r3, #0]
    197c:	2201      	movs	r2, #1
    197e:	4013      	ands	r3, r2
    1980:	d004      	beq.n	198c <usart_read_wait+0xa8>
			/* Clear flag by writing a 1 to it and
			 * return with an error code */
			usart_hw->STATUS.reg = SERCOM_USART_STATUS_PERR;
    1982:	68fb      	ldr	r3, [r7, #12]
    1984:	2201      	movs	r2, #1
    1986:	835a      	strh	r2, [r3, #26]

			return STATUS_ERR_BAD_DATA;
    1988:	2313      	movs	r3, #19
    198a:	e025      	b.n	19d8 <usart_read_wait+0xf4>
		}
#ifdef FEATURE_USART_LIN_SLAVE
		else if (error_code & SERCOM_USART_STATUS_ISF) {
    198c:	230b      	movs	r3, #11
    198e:	18fb      	adds	r3, r7, r3
    1990:	781b      	ldrb	r3, [r3, #0]
    1992:	2210      	movs	r2, #16
    1994:	4013      	ands	r3, r2
    1996:	d009      	beq.n	19ac <usart_read_wait+0xc8>
			/* Clear flag by writing 1 to it  and
			 *  return with an error code */
			usart_hw->STATUS.reg |= SERCOM_USART_STATUS_ISF;
    1998:	68fb      	ldr	r3, [r7, #12]
    199a:	8b5b      	ldrh	r3, [r3, #26]
    199c:	b29b      	uxth	r3, r3
    199e:	2210      	movs	r2, #16
    19a0:	4313      	orrs	r3, r2
    19a2:	b29a      	uxth	r2, r3
    19a4:	68fb      	ldr	r3, [r7, #12]
    19a6:	835a      	strh	r2, [r3, #26]

			return STATUS_ERR_PROTOCOL;
    19a8:	2342      	movs	r3, #66	; 0x42
    19aa:	e015      	b.n	19d8 <usart_read_wait+0xf4>
		}
#endif
#ifdef FEATURE_USART_COLLISION_DECTION
		else if (error_code & SERCOM_USART_STATUS_COLL) {
    19ac:	230b      	movs	r3, #11
    19ae:	18fb      	adds	r3, r7, r3
    19b0:	781b      	ldrb	r3, [r3, #0]
    19b2:	2220      	movs	r2, #32
    19b4:	4013      	ands	r3, r2
    19b6:	d009      	beq.n	19cc <usart_read_wait+0xe8>
			/* Clear flag by writing 1 to it
			 *  return with an error code */
			usart_hw->STATUS.reg |= SERCOM_USART_STATUS_COLL;
    19b8:	68fb      	ldr	r3, [r7, #12]
    19ba:	8b5b      	ldrh	r3, [r3, #26]
    19bc:	b29b      	uxth	r3, r3
    19be:	2220      	movs	r2, #32
    19c0:	4313      	orrs	r3, r2
    19c2:	b29a      	uxth	r2, r3
    19c4:	68fb      	ldr	r3, [r7, #12]
    19c6:	835a      	strh	r2, [r3, #26]

			return STATUS_ERR_PACKET_COLLISION;
    19c8:	2341      	movs	r3, #65	; 0x41
    19ca:	e005      	b.n	19d8 <usart_read_wait+0xf4>
		}
#endif
	}

	/* Read data from USART module */
	*rx_data = usart_hw->DATA.reg;
    19cc:	68fb      	ldr	r3, [r7, #12]
    19ce:	8d1b      	ldrh	r3, [r3, #40]	; 0x28
    19d0:	b29a      	uxth	r2, r3
    19d2:	683b      	ldr	r3, [r7, #0]
    19d4:	801a      	strh	r2, [r3, #0]

	return STATUS_OK;
    19d6:	2300      	movs	r3, #0
}
    19d8:	1c18      	adds	r0, r3, #0
    19da:	46bd      	mov	sp, r7
    19dc:	b004      	add	sp, #16
    19de:	bd80      	pop	{r7, pc}
    19e0:	00001309 	.word	0x00001309

000019e4 <usart_is_syncing>:
 * \retval false  Peripheral is not busy syncing and can be read/written without
 *                stalling the bus.
 */
static inline bool usart_is_syncing(
		const struct usart_module *const module)
{
    19e4:	b580      	push	{r7, lr}
    19e6:	b084      	sub	sp, #16
    19e8:	af00      	add	r7, sp, #0
    19ea:	6078      	str	r0, [r7, #4]
	/* Sanity check arguments */
	Assert(module);
	Assert(module->hw);

	SercomUsart *const usart_hw = &(module->hw->USART);
    19ec:	687b      	ldr	r3, [r7, #4]
    19ee:	681b      	ldr	r3, [r3, #0]
    19f0:	60fb      	str	r3, [r7, #12]

#ifdef FEATURE_USART_SYNC_SCHEME_V2
	return (usart_hw->SYNCBUSY.reg);
    19f2:	68fb      	ldr	r3, [r7, #12]
    19f4:	69db      	ldr	r3, [r3, #28]
    19f6:	1e5a      	subs	r2, r3, #1
    19f8:	4193      	sbcs	r3, r2
    19fa:	b2db      	uxtb	r3, r3
#else
	return (usart_hw->STATUS.reg & SERCOM_USART_STATUS_SYNCBUSY);
#endif
}
    19fc:	1c18      	adds	r0, r3, #0
    19fe:	46bd      	mov	sp, r7
    1a00:	b004      	add	sp, #16
    1a02:	bd80      	pop	{r7, pc}

00001a04 <_usart_wait_for_sync>:
 * \internal
 * Waits until synchronization is complete
 */
static inline void _usart_wait_for_sync(
		const struct usart_module *const module)
{
    1a04:	b580      	push	{r7, lr}
    1a06:	b082      	sub	sp, #8
    1a08:	af00      	add	r7, sp, #0
    1a0a:	6078      	str	r0, [r7, #4]
	/* Sanity check. */
	Assert(module);

	while (usart_is_syncing(module)) {
    1a0c:	46c0      	nop			; (mov r8, r8)
    1a0e:	687b      	ldr	r3, [r7, #4]
    1a10:	1c18      	adds	r0, r3, #0
    1a12:	4b03      	ldr	r3, [pc, #12]	; (1a20 <_usart_wait_for_sync+0x1c>)
    1a14:	4798      	blx	r3
    1a16:	1e03      	subs	r3, r0, #0
    1a18:	d1f9      	bne.n	1a0e <_usart_wait_for_sync+0xa>
		/* Wait until the synchronization is complete */
	}
}
    1a1a:	46bd      	mov	sp, r7
    1a1c:	b002      	add	sp, #8
    1a1e:	bd80      	pop	{r7, pc}
    1a20:	000019e5 	.word	0x000019e5

00001a24 <_usart_interrupt_handler>:
 * \param[in]  instance  ID of the SERCOM instance calling the interrupt
 *                       handler.
 */
void _usart_interrupt_handler(
		uint8_t instance)
{
    1a24:	b580      	push	{r7, lr}
    1a26:	b088      	sub	sp, #32
    1a28:	af00      	add	r7, sp, #0
    1a2a:	1c02      	adds	r2, r0, #0
    1a2c:	1dfb      	adds	r3, r7, #7
    1a2e:	701a      	strb	r2, [r3, #0]
	uint8_t error_code;


	/* Get device instance from the look-up table */
	struct usart_module *module
		= (struct usart_module *)_sercom_instances[instance];
    1a30:	1dfb      	adds	r3, r7, #7
    1a32:	781a      	ldrb	r2, [r3, #0]
	uint16_t callback_status;
	uint8_t error_code;


	/* Get device instance from the look-up table */
	struct usart_module *module
    1a34:	4bb0      	ldr	r3, [pc, #704]	; (1cf8 <_usart_interrupt_handler+0x2d4>)
    1a36:	0092      	lsls	r2, r2, #2
    1a38:	58d3      	ldr	r3, [r2, r3]
    1a3a:	61bb      	str	r3, [r7, #24]
		= (struct usart_module *)_sercom_instances[instance];

	/* Pointer to the hardware module instance */
	SercomUsart *const usart_hw
		= &(module->hw->USART);
    1a3c:	69bb      	ldr	r3, [r7, #24]
    1a3e:	681b      	ldr	r3, [r3, #0]
	/* Get device instance from the look-up table */
	struct usart_module *module
		= (struct usart_module *)_sercom_instances[instance];

	/* Pointer to the hardware module instance */
	SercomUsart *const usart_hw
    1a40:	617b      	str	r3, [r7, #20]
		= &(module->hw->USART);

	/* Wait for the synchronization to complete */
	_usart_wait_for_sync(module);
    1a42:	69bb      	ldr	r3, [r7, #24]
    1a44:	1c18      	adds	r0, r3, #0
    1a46:	4bad      	ldr	r3, [pc, #692]	; (1cfc <_usart_interrupt_handler+0x2d8>)
    1a48:	4798      	blx	r3

	/* Read and mask interrupt flag register */
	interrupt_status = usart_hw->INTFLAG.reg;
    1a4a:	697b      	ldr	r3, [r7, #20]
    1a4c:	7e1b      	ldrb	r3, [r3, #24]
    1a4e:	b2da      	uxtb	r2, r3
    1a50:	2312      	movs	r3, #18
    1a52:	18fb      	adds	r3, r7, r3
    1a54:	801a      	strh	r2, [r3, #0]
	interrupt_status &= usart_hw->INTENSET.reg;
    1a56:	697b      	ldr	r3, [r7, #20]
    1a58:	7d9b      	ldrb	r3, [r3, #22]
    1a5a:	b2db      	uxtb	r3, r3
    1a5c:	b29a      	uxth	r2, r3
    1a5e:	2312      	movs	r3, #18
    1a60:	18fb      	adds	r3, r7, r3
    1a62:	2112      	movs	r1, #18
    1a64:	1879      	adds	r1, r7, r1
    1a66:	8809      	ldrh	r1, [r1, #0]
    1a68:	400a      	ands	r2, r1
    1a6a:	801a      	strh	r2, [r3, #0]
	callback_status = module->callback_reg_mask &
    1a6c:	69bb      	ldr	r3, [r7, #24]
    1a6e:	2230      	movs	r2, #48	; 0x30
    1a70:	5c9b      	ldrb	r3, [r3, r2]
			module->callback_enable_mask;
    1a72:	69ba      	ldr	r2, [r7, #24]
    1a74:	2131      	movs	r1, #49	; 0x31
    1a76:	5c52      	ldrb	r2, [r2, r1]
	_usart_wait_for_sync(module);

	/* Read and mask interrupt flag register */
	interrupt_status = usart_hw->INTFLAG.reg;
	interrupt_status &= usart_hw->INTENSET.reg;
	callback_status = module->callback_reg_mask &
    1a78:	4013      	ands	r3, r2
    1a7a:	b2da      	uxtb	r2, r3
    1a7c:	2310      	movs	r3, #16
    1a7e:	18fb      	adds	r3, r7, r3
    1a80:	801a      	strh	r2, [r3, #0]
			module->callback_enable_mask;

	/* Check if a DATA READY interrupt has occurred,
	 * and if there is more to transfer */
	if (interrupt_status & SERCOM_USART_INTFLAG_DRE) {
    1a82:	2312      	movs	r3, #18
    1a84:	18fb      	adds	r3, r7, r3
    1a86:	881b      	ldrh	r3, [r3, #0]
    1a88:	2201      	movs	r2, #1
    1a8a:	4013      	ands	r3, r2
    1a8c:	d044      	beq.n	1b18 <_usart_interrupt_handler+0xf4>
		if (module->remaining_tx_buffer_length) {
    1a8e:	69bb      	ldr	r3, [r7, #24]
    1a90:	8ddb      	ldrh	r3, [r3, #46]	; 0x2e
    1a92:	b29b      	uxth	r3, r3
    1a94:	2b00      	cmp	r3, #0
    1a96:	d03c      	beq.n	1b12 <_usart_interrupt_handler+0xee>
			/* Write value will be at least 8-bits long */
			uint16_t data_to_send = *(module->tx_buffer_ptr);
    1a98:	69bb      	ldr	r3, [r7, #24]
    1a9a:	6a9b      	ldr	r3, [r3, #40]	; 0x28
    1a9c:	781b      	ldrb	r3, [r3, #0]
    1a9e:	b2da      	uxtb	r2, r3
    1aa0:	231c      	movs	r3, #28
    1aa2:	18fb      	adds	r3, r7, r3
    1aa4:	801a      	strh	r2, [r3, #0]
			/* Increment 8-bit pointer */
			(module->tx_buffer_ptr)++;
    1aa6:	69bb      	ldr	r3, [r7, #24]
    1aa8:	6a9b      	ldr	r3, [r3, #40]	; 0x28
    1aaa:	1c5a      	adds	r2, r3, #1
    1aac:	69bb      	ldr	r3, [r7, #24]
    1aae:	629a      	str	r2, [r3, #40]	; 0x28

			if (module->character_size == USART_CHARACTER_SIZE_9BIT) {
    1ab0:	69bb      	ldr	r3, [r7, #24]
    1ab2:	795b      	ldrb	r3, [r3, #5]
    1ab4:	2b01      	cmp	r3, #1
    1ab6:	d112      	bne.n	1ade <_usart_interrupt_handler+0xba>
				data_to_send |= (*(module->tx_buffer_ptr) << 8);
    1ab8:	69bb      	ldr	r3, [r7, #24]
    1aba:	6a9b      	ldr	r3, [r3, #40]	; 0x28
    1abc:	781b      	ldrb	r3, [r3, #0]
    1abe:	b2db      	uxtb	r3, r3
    1ac0:	021b      	lsls	r3, r3, #8
    1ac2:	b29a      	uxth	r2, r3
    1ac4:	231c      	movs	r3, #28
    1ac6:	18fb      	adds	r3, r7, r3
    1ac8:	881b      	ldrh	r3, [r3, #0]
    1aca:	4313      	orrs	r3, r2
    1acc:	b29a      	uxth	r2, r3
    1ace:	231c      	movs	r3, #28
    1ad0:	18fb      	adds	r3, r7, r3
    1ad2:	801a      	strh	r2, [r3, #0]
				/* Increment 8-bit pointer */
				(module->tx_buffer_ptr)++;
    1ad4:	69bb      	ldr	r3, [r7, #24]
    1ad6:	6a9b      	ldr	r3, [r3, #40]	; 0x28
    1ad8:	1c5a      	adds	r2, r3, #1
    1ada:	69bb      	ldr	r3, [r7, #24]
    1adc:	629a      	str	r2, [r3, #40]	; 0x28
			}
			/* Write the data to send */
			usart_hw->DATA.reg = (data_to_send & SERCOM_USART_DATA_MASK);
    1ade:	231c      	movs	r3, #28
    1ae0:	18fb      	adds	r3, r7, r3
    1ae2:	881b      	ldrh	r3, [r3, #0]
    1ae4:	05db      	lsls	r3, r3, #23
    1ae6:	0ddb      	lsrs	r3, r3, #23
    1ae8:	b29a      	uxth	r2, r3
    1aea:	697b      	ldr	r3, [r7, #20]
    1aec:	851a      	strh	r2, [r3, #40]	; 0x28

			if (--(module->remaining_tx_buffer_length) == 0) {
    1aee:	69bb      	ldr	r3, [r7, #24]
    1af0:	8ddb      	ldrh	r3, [r3, #46]	; 0x2e
    1af2:	b29b      	uxth	r3, r3
    1af4:	3b01      	subs	r3, #1
    1af6:	b29b      	uxth	r3, r3
    1af8:	69ba      	ldr	r2, [r7, #24]
    1afa:	1c19      	adds	r1, r3, #0
    1afc:	85d1      	strh	r1, [r2, #46]	; 0x2e
    1afe:	2b00      	cmp	r3, #0
    1b00:	d106      	bne.n	1b10 <_usart_interrupt_handler+0xec>
				/* Disable the Data Register Empty Interrupt */
				usart_hw->INTENCLR.reg = SERCOM_USART_INTFLAG_DRE;
    1b02:	697b      	ldr	r3, [r7, #20]
    1b04:	2201      	movs	r2, #1
    1b06:	751a      	strb	r2, [r3, #20]
				/* Enable Transmission Complete interrupt */
				usart_hw->INTENSET.reg = SERCOM_USART_INTFLAG_TXC;
    1b08:	697b      	ldr	r3, [r7, #20]
    1b0a:	2202      	movs	r2, #2
    1b0c:	759a      	strb	r2, [r3, #22]
    1b0e:	e003      	b.n	1b18 <_usart_interrupt_handler+0xf4>
    1b10:	e002      	b.n	1b18 <_usart_interrupt_handler+0xf4>

			}
		} else {
			usart_hw->INTENCLR.reg = SERCOM_USART_INTFLAG_DRE;
    1b12:	697b      	ldr	r3, [r7, #20]
    1b14:	2201      	movs	r2, #1
    1b16:	751a      	strb	r2, [r3, #20]

	/* Check if the Transmission Complete interrupt has occurred and
	 * that the transmit buffer is empty */
	}

	if (interrupt_status & SERCOM_USART_INTFLAG_TXC) {
    1b18:	2312      	movs	r3, #18
    1b1a:	18fb      	adds	r3, r7, r3
    1b1c:	881b      	ldrh	r3, [r3, #0]
    1b1e:	2202      	movs	r2, #2
    1b20:	4013      	ands	r3, r2
    1b22:	d011      	beq.n	1b48 <_usart_interrupt_handler+0x124>

		/* Disable TX Complete Interrupt, and set STATUS_OK */
		usart_hw->INTENCLR.reg = SERCOM_USART_INTFLAG_TXC;
    1b24:	697b      	ldr	r3, [r7, #20]
    1b26:	2202      	movs	r2, #2
    1b28:	751a      	strb	r2, [r3, #20]
		module->tx_status = STATUS_OK;
    1b2a:	69bb      	ldr	r3, [r7, #24]
    1b2c:	2233      	movs	r2, #51	; 0x33
    1b2e:	2100      	movs	r1, #0
    1b30:	5499      	strb	r1, [r3, r2]

		/* Run callback if registered and enabled */
		if (callback_status & (1 << USART_CALLBACK_BUFFER_TRANSMITTED)) {
    1b32:	2310      	movs	r3, #16
    1b34:	18fb      	adds	r3, r7, r3
    1b36:	881b      	ldrh	r3, [r3, #0]
    1b38:	2201      	movs	r2, #1
    1b3a:	4013      	ands	r3, r2
    1b3c:	d004      	beq.n	1b48 <_usart_interrupt_handler+0x124>
			(*(module->callback[USART_CALLBACK_BUFFER_TRANSMITTED]))(module);
    1b3e:	69bb      	ldr	r3, [r7, #24]
    1b40:	68db      	ldr	r3, [r3, #12]
    1b42:	69ba      	ldr	r2, [r7, #24]
    1b44:	1c10      	adds	r0, r2, #0
    1b46:	4798      	blx	r3

	/* Check if the Receive Complete interrupt has occurred, and that
	 * there's more data to receive */
	}

	if (interrupt_status & SERCOM_USART_INTFLAG_RXC) {
    1b48:	2312      	movs	r3, #18
    1b4a:	18fb      	adds	r3, r7, r3
    1b4c:	881b      	ldrh	r3, [r3, #0]
    1b4e:	2204      	movs	r2, #4
    1b50:	4013      	ands	r3, r2
    1b52:	d100      	bne.n	1b56 <_usart_interrupt_handler+0x132>
    1b54:	e0d7      	b.n	1d06 <_usart_interrupt_handler+0x2e2>

		if (module->remaining_rx_buffer_length) {
    1b56:	69bb      	ldr	r3, [r7, #24]
    1b58:	8d9b      	ldrh	r3, [r3, #44]	; 0x2c
    1b5a:	b29b      	uxth	r3, r3
    1b5c:	2b00      	cmp	r3, #0
    1b5e:	d100      	bne.n	1b62 <_usart_interrupt_handler+0x13e>
    1b60:	e0ce      	b.n	1d00 <_usart_interrupt_handler+0x2dc>
			/* Read out the status code and mask away all but the 4 LSBs*/
			error_code = (uint8_t)(usart_hw->STATUS.reg & SERCOM_USART_STATUS_MASK);
    1b62:	697b      	ldr	r3, [r7, #20]
    1b64:	8b5b      	ldrh	r3, [r3, #26]
    1b66:	b29b      	uxth	r3, r3
    1b68:	b2da      	uxtb	r2, r3
    1b6a:	231f      	movs	r3, #31
    1b6c:	18fb      	adds	r3, r7, r3
    1b6e:	213f      	movs	r1, #63	; 0x3f
    1b70:	400a      	ands	r2, r1
    1b72:	701a      	strb	r2, [r3, #0]
#if !SAMD20
			/* CTS status should not be considered as an error */
			if(error_code & SERCOM_USART_STATUS_CTS) {
    1b74:	231f      	movs	r3, #31
    1b76:	18fb      	adds	r3, r7, r3
    1b78:	781b      	ldrb	r3, [r3, #0]
    1b7a:	2208      	movs	r2, #8
    1b7c:	4013      	ands	r3, r2
    1b7e:	d007      	beq.n	1b90 <_usart_interrupt_handler+0x16c>
				error_code &= ~SERCOM_USART_STATUS_CTS;
    1b80:	231f      	movs	r3, #31
    1b82:	18fb      	adds	r3, r7, r3
    1b84:	221f      	movs	r2, #31
    1b86:	18ba      	adds	r2, r7, r2
    1b88:	7812      	ldrb	r2, [r2, #0]
    1b8a:	2108      	movs	r1, #8
    1b8c:	438a      	bics	r2, r1
    1b8e:	701a      	strb	r2, [r3, #0]
			}
#endif
			/* Check if an error has occurred during the receiving */
			if (error_code) {
    1b90:	231f      	movs	r3, #31
    1b92:	18fb      	adds	r3, r7, r3
    1b94:	781b      	ldrb	r3, [r3, #0]
    1b96:	2b00      	cmp	r3, #0
    1b98:	d100      	bne.n	1b9c <_usart_interrupt_handler+0x178>
    1b9a:	e069      	b.n	1c70 <_usart_interrupt_handler+0x24c>
				/* Check which error occurred */
				if (error_code & SERCOM_USART_STATUS_FERR) {
    1b9c:	231f      	movs	r3, #31
    1b9e:	18fb      	adds	r3, r7, r3
    1ba0:	781b      	ldrb	r3, [r3, #0]
    1ba2:	2202      	movs	r2, #2
    1ba4:	4013      	ands	r3, r2
    1ba6:	d00c      	beq.n	1bc2 <_usart_interrupt_handler+0x19e>
					/* Store the error code and clear flag by writing 1 to it */
					module->rx_status = STATUS_ERR_BAD_FORMAT;
    1ba8:	69bb      	ldr	r3, [r7, #24]
    1baa:	2232      	movs	r2, #50	; 0x32
    1bac:	211a      	movs	r1, #26
    1bae:	5499      	strb	r1, [r3, r2]
					usart_hw->STATUS.reg |= SERCOM_USART_STATUS_FERR;
    1bb0:	697b      	ldr	r3, [r7, #20]
    1bb2:	8b5b      	ldrh	r3, [r3, #26]
    1bb4:	b29b      	uxth	r3, r3
    1bb6:	2202      	movs	r2, #2
    1bb8:	4313      	orrs	r3, r2
    1bba:	b29a      	uxth	r2, r3
    1bbc:	697b      	ldr	r3, [r7, #20]
    1bbe:	835a      	strh	r2, [r3, #26]
    1bc0:	e04a      	b.n	1c58 <_usart_interrupt_handler+0x234>
				} else if (error_code & SERCOM_USART_STATUS_BUFOVF) {
    1bc2:	231f      	movs	r3, #31
    1bc4:	18fb      	adds	r3, r7, r3
    1bc6:	781b      	ldrb	r3, [r3, #0]
    1bc8:	2204      	movs	r2, #4
    1bca:	4013      	ands	r3, r2
    1bcc:	d00c      	beq.n	1be8 <_usart_interrupt_handler+0x1c4>
					/* Store the error code and clear flag by writing 1 to it */
					module->rx_status = STATUS_ERR_OVERFLOW;
    1bce:	69bb      	ldr	r3, [r7, #24]
    1bd0:	2232      	movs	r2, #50	; 0x32
    1bd2:	211e      	movs	r1, #30
    1bd4:	5499      	strb	r1, [r3, r2]
					usart_hw->STATUS.reg |= SERCOM_USART_STATUS_BUFOVF;
    1bd6:	697b      	ldr	r3, [r7, #20]
    1bd8:	8b5b      	ldrh	r3, [r3, #26]
    1bda:	b29b      	uxth	r3, r3
    1bdc:	2204      	movs	r2, #4
    1bde:	4313      	orrs	r3, r2
    1be0:	b29a      	uxth	r2, r3
    1be2:	697b      	ldr	r3, [r7, #20]
    1be4:	835a      	strh	r2, [r3, #26]
    1be6:	e037      	b.n	1c58 <_usart_interrupt_handler+0x234>
				} else if (error_code & SERCOM_USART_STATUS_PERR) {
    1be8:	231f      	movs	r3, #31
    1bea:	18fb      	adds	r3, r7, r3
    1bec:	781b      	ldrb	r3, [r3, #0]
    1bee:	2201      	movs	r2, #1
    1bf0:	4013      	ands	r3, r2
    1bf2:	d00c      	beq.n	1c0e <_usart_interrupt_handler+0x1ea>
					/* Store the error code and clear flag by writing 1 to it */
					module->rx_status = STATUS_ERR_BAD_DATA;
    1bf4:	69bb      	ldr	r3, [r7, #24]
    1bf6:	2232      	movs	r2, #50	; 0x32
    1bf8:	2113      	movs	r1, #19
    1bfa:	5499      	strb	r1, [r3, r2]
					usart_hw->STATUS.reg |= SERCOM_USART_STATUS_PERR;
    1bfc:	697b      	ldr	r3, [r7, #20]
    1bfe:	8b5b      	ldrh	r3, [r3, #26]
    1c00:	b29b      	uxth	r3, r3
    1c02:	2201      	movs	r2, #1
    1c04:	4313      	orrs	r3, r2
    1c06:	b29a      	uxth	r2, r3
    1c08:	697b      	ldr	r3, [r7, #20]
    1c0a:	835a      	strh	r2, [r3, #26]
    1c0c:	e024      	b.n	1c58 <_usart_interrupt_handler+0x234>
				}
#ifdef FEATURE_USART_LIN_SLAVE
				else if (error_code & SERCOM_USART_STATUS_ISF) {
    1c0e:	231f      	movs	r3, #31
    1c10:	18fb      	adds	r3, r7, r3
    1c12:	781b      	ldrb	r3, [r3, #0]
    1c14:	2210      	movs	r2, #16
    1c16:	4013      	ands	r3, r2
    1c18:	d00c      	beq.n	1c34 <_usart_interrupt_handler+0x210>
					/* Store the error code and clear flag by writing 1 to it */
					module->rx_status = STATUS_ERR_PROTOCOL;
    1c1a:	69bb      	ldr	r3, [r7, #24]
    1c1c:	2232      	movs	r2, #50	; 0x32
    1c1e:	2142      	movs	r1, #66	; 0x42
    1c20:	5499      	strb	r1, [r3, r2]
					usart_hw->STATUS.reg |= SERCOM_USART_STATUS_ISF;
    1c22:	697b      	ldr	r3, [r7, #20]
    1c24:	8b5b      	ldrh	r3, [r3, #26]
    1c26:	b29b      	uxth	r3, r3
    1c28:	2210      	movs	r2, #16
    1c2a:	4313      	orrs	r3, r2
    1c2c:	b29a      	uxth	r2, r3
    1c2e:	697b      	ldr	r3, [r7, #20]
    1c30:	835a      	strh	r2, [r3, #26]
    1c32:	e011      	b.n	1c58 <_usart_interrupt_handler+0x234>
				}
#endif
#ifdef FEATURE_USART_COLLISION_DECTION
				else if (error_code & SERCOM_USART_STATUS_COLL) {
    1c34:	231f      	movs	r3, #31
    1c36:	18fb      	adds	r3, r7, r3
    1c38:	781b      	ldrb	r3, [r3, #0]
    1c3a:	2220      	movs	r2, #32
    1c3c:	4013      	ands	r3, r2
    1c3e:	d00b      	beq.n	1c58 <_usart_interrupt_handler+0x234>
					/* Store the error code and clear flag by writing 1 to it */
					module->rx_status = STATUS_ERR_PACKET_COLLISION;
    1c40:	69bb      	ldr	r3, [r7, #24]
    1c42:	2232      	movs	r2, #50	; 0x32
    1c44:	2141      	movs	r1, #65	; 0x41
    1c46:	5499      	strb	r1, [r3, r2]
					usart_hw->STATUS.reg |= SERCOM_USART_STATUS_COLL;
    1c48:	697b      	ldr	r3, [r7, #20]
    1c4a:	8b5b      	ldrh	r3, [r3, #26]
    1c4c:	b29b      	uxth	r3, r3
    1c4e:	2220      	movs	r2, #32
    1c50:	4313      	orrs	r3, r2
    1c52:	b29a      	uxth	r2, r3
    1c54:	697b      	ldr	r3, [r7, #20]
    1c56:	835a      	strh	r2, [r3, #26]
				}
#endif

				/* Run callback if registered and enabled */
				if (callback_status
						& (1 << USART_CALLBACK_ERROR)) {
    1c58:	2310      	movs	r3, #16
    1c5a:	18fb      	adds	r3, r7, r3
    1c5c:	881b      	ldrh	r3, [r3, #0]
    1c5e:	2204      	movs	r2, #4
    1c60:	4013      	ands	r3, r2
					usart_hw->STATUS.reg |= SERCOM_USART_STATUS_COLL;
				}
#endif

				/* Run callback if registered and enabled */
				if (callback_status
    1c62:	d050      	beq.n	1d06 <_usart_interrupt_handler+0x2e2>
						& (1 << USART_CALLBACK_ERROR)) {
					(*(module->callback[USART_CALLBACK_ERROR]))(module);
    1c64:	69bb      	ldr	r3, [r7, #24]
    1c66:	695b      	ldr	r3, [r3, #20]
    1c68:	69ba      	ldr	r2, [r7, #24]
    1c6a:	1c10      	adds	r0, r2, #0
    1c6c:	4798      	blx	r3
    1c6e:	e04a      	b.n	1d06 <_usart_interrupt_handler+0x2e2>

			} else {

				/* Read current packet from DATA register,
				 * increment buffer pointer and decrement buffer length */
				uint16_t received_data = (usart_hw->DATA.reg & SERCOM_USART_DATA_MASK);
    1c70:	697b      	ldr	r3, [r7, #20]
    1c72:	8d1b      	ldrh	r3, [r3, #40]	; 0x28
    1c74:	b29a      	uxth	r2, r3
    1c76:	230e      	movs	r3, #14
    1c78:	18fb      	adds	r3, r7, r3
    1c7a:	05d2      	lsls	r2, r2, #23
    1c7c:	0dd2      	lsrs	r2, r2, #23
    1c7e:	801a      	strh	r2, [r3, #0]

				/* Read value will be at least 8-bits long */
				*(module->rx_buffer_ptr) = received_data;
    1c80:	69bb      	ldr	r3, [r7, #24]
    1c82:	6a5b      	ldr	r3, [r3, #36]	; 0x24
    1c84:	220e      	movs	r2, #14
    1c86:	18ba      	adds	r2, r7, r2
    1c88:	8812      	ldrh	r2, [r2, #0]
    1c8a:	b2d2      	uxtb	r2, r2
    1c8c:	701a      	strb	r2, [r3, #0]
				/* Increment 8-bit pointer */
				module->rx_buffer_ptr += 1;
    1c8e:	69bb      	ldr	r3, [r7, #24]
    1c90:	6a5b      	ldr	r3, [r3, #36]	; 0x24
    1c92:	1c5a      	adds	r2, r3, #1
    1c94:	69bb      	ldr	r3, [r7, #24]
    1c96:	625a      	str	r2, [r3, #36]	; 0x24

				if (module->character_size == USART_CHARACTER_SIZE_9BIT) {
    1c98:	69bb      	ldr	r3, [r7, #24]
    1c9a:	795b      	ldrb	r3, [r3, #5]
    1c9c:	2b01      	cmp	r3, #1
    1c9e:	d10d      	bne.n	1cbc <_usart_interrupt_handler+0x298>
					/* 9-bit data, write next received byte to the buffer */
					*(module->rx_buffer_ptr) = (received_data >> 8);
    1ca0:	69bb      	ldr	r3, [r7, #24]
    1ca2:	6a5b      	ldr	r3, [r3, #36]	; 0x24
    1ca4:	220e      	movs	r2, #14
    1ca6:	18ba      	adds	r2, r7, r2
    1ca8:	8812      	ldrh	r2, [r2, #0]
    1caa:	0a12      	lsrs	r2, r2, #8
    1cac:	b292      	uxth	r2, r2
    1cae:	b2d2      	uxtb	r2, r2
    1cb0:	701a      	strb	r2, [r3, #0]
					/* Increment 8-bit pointer */
					module->rx_buffer_ptr += 1;
    1cb2:	69bb      	ldr	r3, [r7, #24]
    1cb4:	6a5b      	ldr	r3, [r3, #36]	; 0x24
    1cb6:	1c5a      	adds	r2, r3, #1
    1cb8:	69bb      	ldr	r3, [r7, #24]
    1cba:	625a      	str	r2, [r3, #36]	; 0x24
				}

				/* Check if the last character have been received */
				if(--(module->remaining_rx_buffer_length) == 0) {
    1cbc:	69bb      	ldr	r3, [r7, #24]
    1cbe:	8d9b      	ldrh	r3, [r3, #44]	; 0x2c
    1cc0:	b29b      	uxth	r3, r3
    1cc2:	3b01      	subs	r3, #1
    1cc4:	b29b      	uxth	r3, r3
    1cc6:	69ba      	ldr	r2, [r7, #24]
    1cc8:	1c19      	adds	r1, r3, #0
    1cca:	8591      	strh	r1, [r2, #44]	; 0x2c
    1ccc:	2b00      	cmp	r3, #0
    1cce:	d112      	bne.n	1cf6 <_usart_interrupt_handler+0x2d2>
					/* Disable RX Complete Interrupt,
					 * and set STATUS_OK */
					usart_hw->INTENCLR.reg = SERCOM_USART_INTFLAG_RXC;
    1cd0:	697b      	ldr	r3, [r7, #20]
    1cd2:	2204      	movs	r2, #4
    1cd4:	751a      	strb	r2, [r3, #20]
					module->rx_status = STATUS_OK;
    1cd6:	69bb      	ldr	r3, [r7, #24]
    1cd8:	2232      	movs	r2, #50	; 0x32
    1cda:	2100      	movs	r1, #0
    1cdc:	5499      	strb	r1, [r3, r2]

					/* Run callback if registered and enabled */
					if (callback_status
							& (1 << USART_CALLBACK_BUFFER_RECEIVED)) {
    1cde:	2310      	movs	r3, #16
    1ce0:	18fb      	adds	r3, r7, r3
    1ce2:	881b      	ldrh	r3, [r3, #0]
    1ce4:	2202      	movs	r2, #2
    1ce6:	4013      	ands	r3, r2
					 * and set STATUS_OK */
					usart_hw->INTENCLR.reg = SERCOM_USART_INTFLAG_RXC;
					module->rx_status = STATUS_OK;

					/* Run callback if registered and enabled */
					if (callback_status
    1ce8:	d005      	beq.n	1cf6 <_usart_interrupt_handler+0x2d2>
							& (1 << USART_CALLBACK_BUFFER_RECEIVED)) {
						(*(module->callback[USART_CALLBACK_BUFFER_RECEIVED]))(module);
    1cea:	69bb      	ldr	r3, [r7, #24]
    1cec:	691b      	ldr	r3, [r3, #16]
    1cee:	69ba      	ldr	r2, [r7, #24]
    1cf0:	1c10      	adds	r0, r2, #0
    1cf2:	4798      	blx	r3
    1cf4:	e007      	b.n	1d06 <_usart_interrupt_handler+0x2e2>
    1cf6:	e006      	b.n	1d06 <_usart_interrupt_handler+0x2e2>
    1cf8:	200001d4 	.word	0x200001d4
    1cfc:	00001a05 	.word	0x00001a05
					}
				}
			}
		} else {
			/* This should not happen. Disable Receive Complete interrupt. */
			usart_hw->INTENCLR.reg = SERCOM_USART_INTFLAG_RXC;
    1d00:	697b      	ldr	r3, [r7, #20]
    1d02:	2204      	movs	r2, #4
    1d04:	751a      	strb	r2, [r3, #20]
		}
	}

#ifdef FEATURE_USART_HARDWARE_FLOW_CONTROL
	if (interrupt_status & SERCOM_USART_INTFLAG_CTSIC) {
    1d06:	2312      	movs	r3, #18
    1d08:	18fb      	adds	r3, r7, r3
    1d0a:	881b      	ldrh	r3, [r3, #0]
    1d0c:	2210      	movs	r2, #16
    1d0e:	4013      	ands	r3, r2
    1d10:	d010      	beq.n	1d34 <_usart_interrupt_handler+0x310>
		/* Disable interrupts */
		usart_hw->INTENCLR.reg = SERCOM_USART_INTENCLR_CTSIC;
    1d12:	697b      	ldr	r3, [r7, #20]
    1d14:	2210      	movs	r2, #16
    1d16:	751a      	strb	r2, [r3, #20]
		/* Clear interrupt flag */
		usart_hw->INTFLAG.reg = SERCOM_USART_INTFLAG_CTSIC;
    1d18:	697b      	ldr	r3, [r7, #20]
    1d1a:	2210      	movs	r2, #16
    1d1c:	761a      	strb	r2, [r3, #24]

		/* Run callback if registered and enabled */
		if (callback_status & (1 << USART_CALLBACK_CTS_INPUT_CHANGE)) {
    1d1e:	2310      	movs	r3, #16
    1d20:	18fb      	adds	r3, r7, r3
    1d22:	881b      	ldrh	r3, [r3, #0]
    1d24:	2210      	movs	r2, #16
    1d26:	4013      	ands	r3, r2
    1d28:	d004      	beq.n	1d34 <_usart_interrupt_handler+0x310>
			(*(module->callback[USART_CALLBACK_CTS_INPUT_CHANGE]))(module);
    1d2a:	69bb      	ldr	r3, [r7, #24]
    1d2c:	69db      	ldr	r3, [r3, #28]
    1d2e:	69ba      	ldr	r2, [r7, #24]
    1d30:	1c10      	adds	r0, r2, #0
    1d32:	4798      	blx	r3
		}
	}
#endif

#ifdef FEATURE_USART_LIN_SLAVE
	if (interrupt_status & SERCOM_USART_INTFLAG_RXBRK) {
    1d34:	2312      	movs	r3, #18
    1d36:	18fb      	adds	r3, r7, r3
    1d38:	881b      	ldrh	r3, [r3, #0]
    1d3a:	2220      	movs	r2, #32
    1d3c:	4013      	ands	r3, r2
    1d3e:	d010      	beq.n	1d62 <_usart_interrupt_handler+0x33e>
		/* Disable interrupts */
		usart_hw->INTENCLR.reg = SERCOM_USART_INTENCLR_RXBRK;
    1d40:	697b      	ldr	r3, [r7, #20]
    1d42:	2220      	movs	r2, #32
    1d44:	751a      	strb	r2, [r3, #20]
		/* Clear interrupt flag */
		usart_hw->INTFLAG.reg = SERCOM_USART_INTFLAG_RXBRK;
    1d46:	697b      	ldr	r3, [r7, #20]
    1d48:	2220      	movs	r2, #32
    1d4a:	761a      	strb	r2, [r3, #24]

		/* Run callback if registered and enabled */
		if (callback_status & (1 << USART_CALLBACK_BREAK_RECEIVED)) {
    1d4c:	2310      	movs	r3, #16
    1d4e:	18fb      	adds	r3, r7, r3
    1d50:	881b      	ldrh	r3, [r3, #0]
    1d52:	2208      	movs	r2, #8
    1d54:	4013      	ands	r3, r2
    1d56:	d004      	beq.n	1d62 <_usart_interrupt_handler+0x33e>
			(*(module->callback[USART_CALLBACK_BREAK_RECEIVED]))(module);
    1d58:	69bb      	ldr	r3, [r7, #24]
    1d5a:	699b      	ldr	r3, [r3, #24]
    1d5c:	69ba      	ldr	r2, [r7, #24]
    1d5e:	1c10      	adds	r0, r2, #0
    1d60:	4798      	blx	r3
		}
	}
#endif

#ifdef FEATURE_USART_START_FRAME_DECTION
	if (interrupt_status & SERCOM_USART_INTFLAG_RXS) {
    1d62:	2312      	movs	r3, #18
    1d64:	18fb      	adds	r3, r7, r3
    1d66:	881b      	ldrh	r3, [r3, #0]
    1d68:	2208      	movs	r2, #8
    1d6a:	4013      	ands	r3, r2
    1d6c:	d010      	beq.n	1d90 <_usart_interrupt_handler+0x36c>
		/* Disable interrupts */
		usart_hw->INTENCLR.reg = SERCOM_USART_INTENCLR_RXS;
    1d6e:	697b      	ldr	r3, [r7, #20]
    1d70:	2208      	movs	r2, #8
    1d72:	751a      	strb	r2, [r3, #20]
		/* Clear interrupt flag */
		usart_hw->INTFLAG.reg = SERCOM_USART_INTFLAG_RXS;
    1d74:	697b      	ldr	r3, [r7, #20]
    1d76:	2208      	movs	r2, #8
    1d78:	761a      	strb	r2, [r3, #24]

		/* Run callback if registered and enabled */
		if (callback_status & (1 << USART_CALLBACK_START_RECEIVED)) {
    1d7a:	2310      	movs	r3, #16
    1d7c:	18fb      	adds	r3, r7, r3
    1d7e:	881b      	ldrh	r3, [r3, #0]
    1d80:	2220      	movs	r2, #32
    1d82:	4013      	ands	r3, r2
    1d84:	d004      	beq.n	1d90 <_usart_interrupt_handler+0x36c>
			(*(module->callback[USART_CALLBACK_START_RECEIVED]))(module);
    1d86:	69bb      	ldr	r3, [r7, #24]
    1d88:	6a1b      	ldr	r3, [r3, #32]
    1d8a:	69ba      	ldr	r2, [r7, #24]
    1d8c:	1c10      	adds	r0, r2, #0
    1d8e:	4798      	blx	r3
		}
	}
#endif
}
    1d90:	46bd      	mov	sp, r7
    1d92:	b008      	add	sp, #32
    1d94:	bd80      	pop	{r7, pc}
    1d96:	46c0      	nop			; (mov r8, r8)

00001d98 <_read>:
int __attribute__((weak))
_read (int file, char * ptr, int len); // Remove GCC compiler warning

int __attribute__((weak))
_read (int file, char * ptr, int len)
{
    1d98:	b580      	push	{r7, lr}
    1d9a:	b086      	sub	sp, #24
    1d9c:	af00      	add	r7, sp, #0
    1d9e:	60f8      	str	r0, [r7, #12]
    1da0:	60b9      	str	r1, [r7, #8]
    1da2:	607a      	str	r2, [r7, #4]
	int nChars = 0;
    1da4:	2300      	movs	r3, #0
    1da6:	617b      	str	r3, [r7, #20]

	if (file != 0) {
    1da8:	68fb      	ldr	r3, [r7, #12]
    1daa:	2b00      	cmp	r3, #0
    1dac:	d002      	beq.n	1db4 <_read+0x1c>
		return -1;
    1dae:	2301      	movs	r3, #1
    1db0:	425b      	negs	r3, r3
    1db2:	e015      	b.n	1de0 <_read+0x48>
	}

	for (; len > 0; --len) {
    1db4:	e010      	b.n	1dd8 <_read+0x40>
		ptr_get(stdio_base, ptr);
    1db6:	4b0c      	ldr	r3, [pc, #48]	; (1de8 <_read+0x50>)
    1db8:	681a      	ldr	r2, [r3, #0]
    1dba:	4b0c      	ldr	r3, [pc, #48]	; (1dec <_read+0x54>)
    1dbc:	6819      	ldr	r1, [r3, #0]
    1dbe:	68bb      	ldr	r3, [r7, #8]
    1dc0:	1c08      	adds	r0, r1, #0
    1dc2:	1c19      	adds	r1, r3, #0
    1dc4:	4790      	blx	r2
		ptr++;
    1dc6:	68bb      	ldr	r3, [r7, #8]
    1dc8:	3301      	adds	r3, #1
    1dca:	60bb      	str	r3, [r7, #8]
		nChars++;
    1dcc:	697b      	ldr	r3, [r7, #20]
    1dce:	3301      	adds	r3, #1
    1dd0:	617b      	str	r3, [r7, #20]

	if (file != 0) {
		return -1;
	}

	for (; len > 0; --len) {
    1dd2:	687b      	ldr	r3, [r7, #4]
    1dd4:	3b01      	subs	r3, #1
    1dd6:	607b      	str	r3, [r7, #4]
    1dd8:	687b      	ldr	r3, [r7, #4]
    1dda:	2b00      	cmp	r3, #0
    1ddc:	dceb      	bgt.n	1db6 <_read+0x1e>
		ptr_get(stdio_base, ptr);
		ptr++;
		nChars++;
	}
	return nChars;
    1dde:	697b      	ldr	r3, [r7, #20]
}
    1de0:	1c18      	adds	r0, r3, #0
    1de2:	46bd      	mov	sp, r7
    1de4:	b006      	add	sp, #24
    1de6:	bd80      	pop	{r7, pc}
    1de8:	200001ec 	.word	0x200001ec
    1dec:	200001f4 	.word	0x200001f4

00001df0 <_write>:
int __attribute__((weak))
_write (int file, char * ptr, int len);

int __attribute__((weak))
_write (int file, char * ptr, int len)
{
    1df0:	b580      	push	{r7, lr}
    1df2:	b086      	sub	sp, #24
    1df4:	af00      	add	r7, sp, #0
    1df6:	60f8      	str	r0, [r7, #12]
    1df8:	60b9      	str	r1, [r7, #8]
    1dfa:	607a      	str	r2, [r7, #4]
	int nChars = 0;
    1dfc:	2300      	movs	r3, #0
    1dfe:	617b      	str	r3, [r7, #20]

	if ((file != 1) && (file != 2) && (file!=3)) {
    1e00:	68fb      	ldr	r3, [r7, #12]
    1e02:	2b01      	cmp	r3, #1
    1e04:	d008      	beq.n	1e18 <_write+0x28>
    1e06:	68fb      	ldr	r3, [r7, #12]
    1e08:	2b02      	cmp	r3, #2
    1e0a:	d005      	beq.n	1e18 <_write+0x28>
    1e0c:	68fb      	ldr	r3, [r7, #12]
    1e0e:	2b03      	cmp	r3, #3
    1e10:	d002      	beq.n	1e18 <_write+0x28>
		return -1;
    1e12:	2301      	movs	r3, #1
    1e14:	425b      	negs	r3, r3
    1e16:	e019      	b.n	1e4c <_write+0x5c>
	}

	for (; len != 0; --len) {
    1e18:	e014      	b.n	1e44 <_write+0x54>
		if (ptr_put(stdio_base, *ptr++) < 0) {
    1e1a:	4b0e      	ldr	r3, [pc, #56]	; (1e54 <_write+0x64>)
    1e1c:	681a      	ldr	r2, [r3, #0]
    1e1e:	4b0e      	ldr	r3, [pc, #56]	; (1e58 <_write+0x68>)
    1e20:	6818      	ldr	r0, [r3, #0]
    1e22:	68bb      	ldr	r3, [r7, #8]
    1e24:	1c59      	adds	r1, r3, #1
    1e26:	60b9      	str	r1, [r7, #8]
    1e28:	781b      	ldrb	r3, [r3, #0]
    1e2a:	1c19      	adds	r1, r3, #0
    1e2c:	4790      	blx	r2
    1e2e:	1e03      	subs	r3, r0, #0
    1e30:	da02      	bge.n	1e38 <_write+0x48>
			return -1;
    1e32:	2301      	movs	r3, #1
    1e34:	425b      	negs	r3, r3
    1e36:	e009      	b.n	1e4c <_write+0x5c>
		}
		++nChars;
    1e38:	697b      	ldr	r3, [r7, #20]
    1e3a:	3301      	adds	r3, #1
    1e3c:	617b      	str	r3, [r7, #20]

	if ((file != 1) && (file != 2) && (file!=3)) {
		return -1;
	}

	for (; len != 0; --len) {
    1e3e:	687b      	ldr	r3, [r7, #4]
    1e40:	3b01      	subs	r3, #1
    1e42:	607b      	str	r3, [r7, #4]
    1e44:	687b      	ldr	r3, [r7, #4]
    1e46:	2b00      	cmp	r3, #0
    1e48:	d1e7      	bne.n	1e1a <_write+0x2a>
		if (ptr_put(stdio_base, *ptr++) < 0) {
			return -1;
		}
		++nChars;
	}
	return nChars;
    1e4a:	697b      	ldr	r3, [r7, #20]
}
    1e4c:	1c18      	adds	r0, r3, #0
    1e4e:	46bd      	mov	sp, r7
    1e50:	b006      	add	sp, #24
    1e52:	bd80      	pop	{r7, pc}
    1e54:	200001f0 	.word	0x200001f0
    1e58:	200001f4 	.word	0x200001f4

00001e5c <SVC_Handler>:
	for( ;; );
}
/*-----------------------------------------------------------*/

void vPortSVCHandler( void )
{
    1e5c:	b580      	push	{r7, lr}
    1e5e:	af00      	add	r7, sp, #0
	/* This function is no longer used, but retained for backward
	compatibility. */
}
    1e60:	46bd      	mov	sp, r7
    1e62:	bd80      	pop	{r7, pc}

00001e64 <ulSetInterruptMaskFromISR>:
}
/*-----------------------------------------------------------*/

uint32_t ulSetInterruptMaskFromISR( void )
{
	__asm volatile(
    1e64:	f3ef 8010 	mrs	r0, PRIMASK
    1e68:	b672      	cpsid	i
    1e6a:	4770      	bx	lr
					" cpsid i			\n"
					" bx lr				  "
				  );

	/* To avoid compiler warnings.  This line will never be reached. */
	return 0;
    1e6c:	2300      	movs	r3, #0
}
    1e6e:	1c18      	adds	r0, r3, #0

00001e70 <vClearInterruptMaskFromISR>:
/*-----------------------------------------------------------*/

void vClearInterruptMaskFromISR( uint32_t ulMask )
{
	__asm volatile(
    1e70:	f380 8810 	msr	PRIMASK, r0
    1e74:	4770      	bx	lr
    1e76:	46c0      	nop			; (mov r8, r8)

00001e78 <PendSV_Handler>:

void xPortPendSVHandler( void )
{
	/* This is a naked function. */

	__asm volatile
    1e78:	f3ef 8009 	mrs	r0, PSP
    1e7c:	4b0e      	ldr	r3, [pc, #56]	; (1eb8 <pxCurrentTCBConst>)
    1e7e:	681a      	ldr	r2, [r3, #0]
    1e80:	3820      	subs	r0, #32
    1e82:	6010      	str	r0, [r2, #0]
    1e84:	c0f0      	stmia	r0!, {r4, r5, r6, r7}
    1e86:	4644      	mov	r4, r8
    1e88:	464d      	mov	r5, r9
    1e8a:	4656      	mov	r6, sl
    1e8c:	465f      	mov	r7, fp
    1e8e:	c0f0      	stmia	r0!, {r4, r5, r6, r7}
    1e90:	b508      	push	{r3, lr}
    1e92:	b672      	cpsid	i
    1e94:	f000 f936 	bl	2104 <vTaskSwitchContext>
    1e98:	b662      	cpsie	i
    1e9a:	bc0c      	pop	{r2, r3}
    1e9c:	6811      	ldr	r1, [r2, #0]
    1e9e:	6808      	ldr	r0, [r1, #0]
    1ea0:	3010      	adds	r0, #16
    1ea2:	c8f0      	ldmia	r0!, {r4, r5, r6, r7}
    1ea4:	46a0      	mov	r8, r4
    1ea6:	46a9      	mov	r9, r5
    1ea8:	46b2      	mov	sl, r6
    1eaa:	46bb      	mov	fp, r7
    1eac:	f380 8809 	msr	PSP, r0
    1eb0:	3820      	subs	r0, #32
    1eb2:	c8f0      	ldmia	r0!, {r4, r5, r6, r7}
    1eb4:	4718      	bx	r3
    1eb6:	46c0      	nop			; (mov r8, r8)

00001eb8 <pxCurrentTCBConst>:
    1eb8:	200000b8 	.word	0x200000b8

00001ebc <SysTick_Handler>:
	);
}
/*-----------------------------------------------------------*/

void xPortSysTickHandler( void )
{
    1ebc:	b580      	push	{r7, lr}
    1ebe:	b082      	sub	sp, #8
    1ec0:	af00      	add	r7, sp, #0
uint32_t ulPreviousMask;

	ulPreviousMask = portSET_INTERRUPT_MASK_FROM_ISR();
    1ec2:	4b09      	ldr	r3, [pc, #36]	; (1ee8 <SysTick_Handler+0x2c>)
    1ec4:	4798      	blx	r3
    1ec6:	1c03      	adds	r3, r0, #0
    1ec8:	607b      	str	r3, [r7, #4]
	{
		/* Increment the RTOS tick. */
		if( xTaskIncrementTick() != pdFALSE )
    1eca:	4b08      	ldr	r3, [pc, #32]	; (1eec <SysTick_Handler+0x30>)
    1ecc:	4798      	blx	r3
    1ece:	1e03      	subs	r3, r0, #0
    1ed0:	d003      	beq.n	1eda <SysTick_Handler+0x1e>
		{
			/* Pend a context switch. */
			*(portNVIC_INT_CTRL) = portNVIC_PENDSVSET;
    1ed2:	4b07      	ldr	r3, [pc, #28]	; (1ef0 <SysTick_Handler+0x34>)
    1ed4:	2280      	movs	r2, #128	; 0x80
    1ed6:	0552      	lsls	r2, r2, #21
    1ed8:	601a      	str	r2, [r3, #0]
		}
	}
	portCLEAR_INTERRUPT_MASK_FROM_ISR( ulPreviousMask );
    1eda:	687b      	ldr	r3, [r7, #4]
    1edc:	1c18      	adds	r0, r3, #0
    1ede:	4b05      	ldr	r3, [pc, #20]	; (1ef4 <SysTick_Handler+0x38>)
    1ee0:	4798      	blx	r3
}
    1ee2:	46bd      	mov	sp, r7
    1ee4:	b002      	add	sp, #8
    1ee6:	bd80      	pop	{r7, pc}
    1ee8:	00001e65 	.word	0x00001e65
    1eec:	00001f8d 	.word	0x00001f8d
    1ef0:	e000ed04 	.word	0xe000ed04
    1ef4:	00001e71 	.word	0x00001e71

00001ef8 <vListInsertEnd>:
	pxItem->pvContainer = NULL;
}
/*-----------------------------------------------------------*/

void vListInsertEnd( List_t * const pxList, ListItem_t * const pxNewListItem )
{
    1ef8:	b580      	push	{r7, lr}
    1efa:	b084      	sub	sp, #16
    1efc:	af00      	add	r7, sp, #0
    1efe:	6078      	str	r0, [r7, #4]
    1f00:	6039      	str	r1, [r7, #0]
ListItem_t * const pxIndex = pxList->pxIndex;
    1f02:	687b      	ldr	r3, [r7, #4]
    1f04:	685b      	ldr	r3, [r3, #4]
    1f06:	60fb      	str	r3, [r7, #12]

	/* Insert a new list item into pxList, but rather than sort the list,
	makes the new list item the last item to be removed by a call to
	listGET_OWNER_OF_NEXT_ENTRY(). */
	pxNewListItem->pxNext = pxIndex;
    1f08:	683b      	ldr	r3, [r7, #0]
    1f0a:	68fa      	ldr	r2, [r7, #12]
    1f0c:	605a      	str	r2, [r3, #4]
	pxNewListItem->pxPrevious = pxIndex->pxPrevious;
    1f0e:	68fb      	ldr	r3, [r7, #12]
    1f10:	689a      	ldr	r2, [r3, #8]
    1f12:	683b      	ldr	r3, [r7, #0]
    1f14:	609a      	str	r2, [r3, #8]
	pxIndex->pxPrevious->pxNext = pxNewListItem;
    1f16:	68fb      	ldr	r3, [r7, #12]
    1f18:	689b      	ldr	r3, [r3, #8]
    1f1a:	683a      	ldr	r2, [r7, #0]
    1f1c:	605a      	str	r2, [r3, #4]
	pxIndex->pxPrevious = pxNewListItem;
    1f1e:	68fb      	ldr	r3, [r7, #12]
    1f20:	683a      	ldr	r2, [r7, #0]
    1f22:	609a      	str	r2, [r3, #8]

	/* Remember which list the item is in. */
	pxNewListItem->pvContainer = ( void * ) pxList;
    1f24:	683b      	ldr	r3, [r7, #0]
    1f26:	687a      	ldr	r2, [r7, #4]
    1f28:	611a      	str	r2, [r3, #16]

	( pxList->uxNumberOfItems )++;
    1f2a:	687b      	ldr	r3, [r7, #4]
    1f2c:	681b      	ldr	r3, [r3, #0]
    1f2e:	1c5a      	adds	r2, r3, #1
    1f30:	687b      	ldr	r3, [r7, #4]
    1f32:	601a      	str	r2, [r3, #0]
}
    1f34:	46bd      	mov	sp, r7
    1f36:	b004      	add	sp, #16
    1f38:	bd80      	pop	{r7, pc}
    1f3a:	46c0      	nop			; (mov r8, r8)

00001f3c <uxListRemove>:
	( pxList->uxNumberOfItems )++;
}
/*-----------------------------------------------------------*/

UBaseType_t uxListRemove( ListItem_t * const pxItemToRemove )
{
    1f3c:	b580      	push	{r7, lr}
    1f3e:	b084      	sub	sp, #16
    1f40:	af00      	add	r7, sp, #0
    1f42:	6078      	str	r0, [r7, #4]
/* The list item knows which list it is in.  Obtain the list from the list
item. */
List_t * const pxList = ( List_t * ) pxItemToRemove->pvContainer;
    1f44:	687b      	ldr	r3, [r7, #4]
    1f46:	691b      	ldr	r3, [r3, #16]
    1f48:	60fb      	str	r3, [r7, #12]

	pxItemToRemove->pxNext->pxPrevious = pxItemToRemove->pxPrevious;
    1f4a:	687b      	ldr	r3, [r7, #4]
    1f4c:	685b      	ldr	r3, [r3, #4]
    1f4e:	687a      	ldr	r2, [r7, #4]
    1f50:	6892      	ldr	r2, [r2, #8]
    1f52:	609a      	str	r2, [r3, #8]
	pxItemToRemove->pxPrevious->pxNext = pxItemToRemove->pxNext;
    1f54:	687b      	ldr	r3, [r7, #4]
    1f56:	689b      	ldr	r3, [r3, #8]
    1f58:	687a      	ldr	r2, [r7, #4]
    1f5a:	6852      	ldr	r2, [r2, #4]
    1f5c:	605a      	str	r2, [r3, #4]

	/* Make sure the index is left pointing to a valid item. */
	if( pxList->pxIndex == pxItemToRemove )
    1f5e:	68fb      	ldr	r3, [r7, #12]
    1f60:	685a      	ldr	r2, [r3, #4]
    1f62:	687b      	ldr	r3, [r7, #4]
    1f64:	429a      	cmp	r2, r3
    1f66:	d103      	bne.n	1f70 <uxListRemove+0x34>
	{
		pxList->pxIndex = pxItemToRemove->pxPrevious;
    1f68:	687b      	ldr	r3, [r7, #4]
    1f6a:	689a      	ldr	r2, [r3, #8]
    1f6c:	68fb      	ldr	r3, [r7, #12]
    1f6e:	605a      	str	r2, [r3, #4]
	else
	{
		mtCOVERAGE_TEST_MARKER();
	}

	pxItemToRemove->pvContainer = NULL;
    1f70:	687b      	ldr	r3, [r7, #4]
    1f72:	2200      	movs	r2, #0
    1f74:	611a      	str	r2, [r3, #16]
	( pxList->uxNumberOfItems )--;
    1f76:	68fb      	ldr	r3, [r7, #12]
    1f78:	681b      	ldr	r3, [r3, #0]
    1f7a:	1e5a      	subs	r2, r3, #1
    1f7c:	68fb      	ldr	r3, [r7, #12]
    1f7e:	601a      	str	r2, [r3, #0]

	return pxList->uxNumberOfItems;
    1f80:	68fb      	ldr	r3, [r7, #12]
    1f82:	681b      	ldr	r3, [r3, #0]
}
    1f84:	1c18      	adds	r0, r3, #0
    1f86:	46bd      	mov	sp, r7
    1f88:	b004      	add	sp, #16
    1f8a:	bd80      	pop	{r7, pc}

00001f8c <xTaskIncrementTick>:

#endif /* configUSE_TICKLESS_IDLE */
/*----------------------------------------------------------*/

BaseType_t xTaskIncrementTick( void )
{
    1f8c:	b580      	push	{r7, lr}
    1f8e:	b086      	sub	sp, #24
    1f90:	af00      	add	r7, sp, #0
TCB_t * pxTCB;
TickType_t xItemValue;
BaseType_t xSwitchRequired = pdFALSE;
    1f92:	2300      	movs	r3, #0
    1f94:	617b      	str	r3, [r7, #20]

	/* Called by the portable layer each time a tick interrupt occurs.
	Increments the tick then checks to see if the new tick value will cause any
	tasks to be unblocked. */
	traceTASK_INCREMENT_TICK( xTickCount );
	if( uxSchedulerSuspended == ( UBaseType_t ) pdFALSE )
    1f96:	4b4d      	ldr	r3, [pc, #308]	; (20cc <STACK_SIZE+0xcc>)
    1f98:	681b      	ldr	r3, [r3, #0]
    1f9a:	2b00      	cmp	r3, #0
    1f9c:	d000      	beq.n	1fa0 <xTaskIncrementTick+0x14>
    1f9e:	e084      	b.n	20aa <STACK_SIZE+0xaa>
	{
		/* Increment the RTOS tick, switching the delayed and overflowed
		delayed lists if it wraps to 0. */
		++xTickCount;
    1fa0:	4b4b      	ldr	r3, [pc, #300]	; (20d0 <STACK_SIZE+0xd0>)
    1fa2:	681b      	ldr	r3, [r3, #0]
    1fa4:	1c5a      	adds	r2, r3, #1
    1fa6:	4b4a      	ldr	r3, [pc, #296]	; (20d0 <STACK_SIZE+0xd0>)
    1fa8:	601a      	str	r2, [r3, #0]

		{
			/* Minor optimisation.  The tick count cannot change in this
			block. */
			const TickType_t xConstTickCount = xTickCount;
    1faa:	4b49      	ldr	r3, [pc, #292]	; (20d0 <STACK_SIZE+0xd0>)
    1fac:	681b      	ldr	r3, [r3, #0]
    1fae:	613b      	str	r3, [r7, #16]

			if( xConstTickCount == ( TickType_t ) 0U )
    1fb0:	693b      	ldr	r3, [r7, #16]
    1fb2:	2b00      	cmp	r3, #0
    1fb4:	d117      	bne.n	1fe6 <xTaskIncrementTick+0x5a>
			{
				taskSWITCH_DELAYED_LISTS();
    1fb6:	4b47      	ldr	r3, [pc, #284]	; (20d4 <STACK_SIZE+0xd4>)
    1fb8:	681b      	ldr	r3, [r3, #0]
    1fba:	681b      	ldr	r3, [r3, #0]
    1fbc:	2b00      	cmp	r3, #0
    1fbe:	d001      	beq.n	1fc4 <xTaskIncrementTick+0x38>
    1fc0:	b672      	cpsid	i
    1fc2:	e7fe      	b.n	1fc2 <xTaskIncrementTick+0x36>
    1fc4:	4b43      	ldr	r3, [pc, #268]	; (20d4 <STACK_SIZE+0xd4>)
    1fc6:	681b      	ldr	r3, [r3, #0]
    1fc8:	60fb      	str	r3, [r7, #12]
    1fca:	4b43      	ldr	r3, [pc, #268]	; (20d8 <STACK_SIZE+0xd8>)
    1fcc:	681a      	ldr	r2, [r3, #0]
    1fce:	4b41      	ldr	r3, [pc, #260]	; (20d4 <STACK_SIZE+0xd4>)
    1fd0:	601a      	str	r2, [r3, #0]
    1fd2:	4b41      	ldr	r3, [pc, #260]	; (20d8 <STACK_SIZE+0xd8>)
    1fd4:	68fa      	ldr	r2, [r7, #12]
    1fd6:	601a      	str	r2, [r3, #0]
    1fd8:	4b40      	ldr	r3, [pc, #256]	; (20dc <STACK_SIZE+0xdc>)
    1fda:	681b      	ldr	r3, [r3, #0]
    1fdc:	1c5a      	adds	r2, r3, #1
    1fde:	4b3f      	ldr	r3, [pc, #252]	; (20dc <STACK_SIZE+0xdc>)
    1fe0:	601a      	str	r2, [r3, #0]
    1fe2:	4b3f      	ldr	r3, [pc, #252]	; (20e0 <STACK_SIZE+0xe0>)
    1fe4:	4798      	blx	r3

			/* See if this tick has made a timeout expire.  Tasks are stored in
			the	queue in the order of their wake time - meaning once one task
			has been found whose block time has not expired there is no need to
			look any further	down the list. */
			if( xConstTickCount >= xNextTaskUnblockTime )
    1fe6:	4b3f      	ldr	r3, [pc, #252]	; (20e4 <STACK_SIZE+0xe4>)
    1fe8:	681b      	ldr	r3, [r3, #0]
    1fea:	693a      	ldr	r2, [r7, #16]
    1fec:	429a      	cmp	r2, r3
    1fee:	d34e      	bcc.n	208e <STACK_SIZE+0x8e>
			{
				for( ;; )
				{
					if( listLIST_IS_EMPTY( pxDelayedTaskList ) != pdFALSE )
    1ff0:	4b38      	ldr	r3, [pc, #224]	; (20d4 <STACK_SIZE+0xd4>)
    1ff2:	681b      	ldr	r3, [r3, #0]
    1ff4:	681b      	ldr	r3, [r3, #0]
    1ff6:	2b00      	cmp	r3, #0
    1ff8:	d101      	bne.n	1ffe <xTaskIncrementTick+0x72>
    1ffa:	2301      	movs	r3, #1
    1ffc:	e000      	b.n	2000 <STACK_SIZE>
    1ffe:	2300      	movs	r3, #0
    2000:	2b00      	cmp	r3, #0
    2002:	d004      	beq.n	200e <STACK_SIZE+0xe>
						/* The delayed list is empty.  Set xNextTaskUnblockTime
						to the maximum possible value so it is extremely
						unlikely that the
						if( xTickCount >= xNextTaskUnblockTime ) test will pass
						next time through. */
						xNextTaskUnblockTime = portMAX_DELAY;
    2004:	4b37      	ldr	r3, [pc, #220]	; (20e4 <STACK_SIZE+0xe4>)
    2006:	2201      	movs	r2, #1
    2008:	4252      	negs	r2, r2
    200a:	601a      	str	r2, [r3, #0]
						break;
    200c:	e03f      	b.n	208e <STACK_SIZE+0x8e>
					{
						/* The delayed list is not empty, get the value of the
						item at the head of the delayed list.  This is the time
						at which the task at the head of the delayed list must
						be removed from the Blocked state. */
						pxTCB = ( TCB_t * ) listGET_OWNER_OF_HEAD_ENTRY( pxDelayedTaskList );
    200e:	4b31      	ldr	r3, [pc, #196]	; (20d4 <STACK_SIZE+0xd4>)
    2010:	681b      	ldr	r3, [r3, #0]
    2012:	68db      	ldr	r3, [r3, #12]
    2014:	68db      	ldr	r3, [r3, #12]
    2016:	60bb      	str	r3, [r7, #8]
						xItemValue = listGET_LIST_ITEM_VALUE( &( pxTCB->xGenericListItem ) );
    2018:	68bb      	ldr	r3, [r7, #8]
    201a:	685b      	ldr	r3, [r3, #4]
    201c:	607b      	str	r3, [r7, #4]

						if( xConstTickCount < xItemValue )
    201e:	693a      	ldr	r2, [r7, #16]
    2020:	687b      	ldr	r3, [r7, #4]
    2022:	429a      	cmp	r2, r3
    2024:	d203      	bcs.n	202e <STACK_SIZE+0x2e>
							/* It is not time to unblock this item yet, but the
							item value is the time at which the task at the head
							of the blocked list must be removed from the Blocked
							state -	so record the item value in
							xNextTaskUnblockTime. */
							xNextTaskUnblockTime = xItemValue;
    2026:	4b2f      	ldr	r3, [pc, #188]	; (20e4 <STACK_SIZE+0xe4>)
    2028:	687a      	ldr	r2, [r7, #4]
    202a:	601a      	str	r2, [r3, #0]
							break;
    202c:	e02f      	b.n	208e <STACK_SIZE+0x8e>
						{
							mtCOVERAGE_TEST_MARKER();
						}

						/* It is time to remove the item from the Blocked state. */
						( void ) uxListRemove( &( pxTCB->xGenericListItem ) );
    202e:	68bb      	ldr	r3, [r7, #8]
    2030:	3304      	adds	r3, #4
    2032:	1c18      	adds	r0, r3, #0
    2034:	4b2c      	ldr	r3, [pc, #176]	; (20e8 <STACK_SIZE+0xe8>)
    2036:	4798      	blx	r3

						/* Is the task waiting on an event also?  If so remove
						it from the event list. */
						if( listLIST_ITEM_CONTAINER( &( pxTCB->xEventListItem ) ) != NULL )
    2038:	68bb      	ldr	r3, [r7, #8]
    203a:	6a9b      	ldr	r3, [r3, #40]	; 0x28
    203c:	2b00      	cmp	r3, #0
    203e:	d004      	beq.n	204a <STACK_SIZE+0x4a>
						{
							( void ) uxListRemove( &( pxTCB->xEventListItem ) );
    2040:	68bb      	ldr	r3, [r7, #8]
    2042:	3318      	adds	r3, #24
    2044:	1c18      	adds	r0, r3, #0
    2046:	4b28      	ldr	r3, [pc, #160]	; (20e8 <STACK_SIZE+0xe8>)
    2048:	4798      	blx	r3
							mtCOVERAGE_TEST_MARKER();
						}

						/* Place the unblocked task into the appropriate ready
						list. */
						prvAddTaskToReadyList( pxTCB );
    204a:	68bb      	ldr	r3, [r7, #8]
    204c:	6ada      	ldr	r2, [r3, #44]	; 0x2c
    204e:	4b27      	ldr	r3, [pc, #156]	; (20ec <STACK_SIZE+0xec>)
    2050:	681b      	ldr	r3, [r3, #0]
    2052:	429a      	cmp	r2, r3
    2054:	d903      	bls.n	205e <STACK_SIZE+0x5e>
    2056:	68bb      	ldr	r3, [r7, #8]
    2058:	6ada      	ldr	r2, [r3, #44]	; 0x2c
    205a:	4b24      	ldr	r3, [pc, #144]	; (20ec <STACK_SIZE+0xec>)
    205c:	601a      	str	r2, [r3, #0]
    205e:	68bb      	ldr	r3, [r7, #8]
    2060:	6ada      	ldr	r2, [r3, #44]	; 0x2c
    2062:	1c13      	adds	r3, r2, #0
    2064:	009b      	lsls	r3, r3, #2
    2066:	189b      	adds	r3, r3, r2
    2068:	009b      	lsls	r3, r3, #2
    206a:	4a21      	ldr	r2, [pc, #132]	; (20f0 <STACK_SIZE+0xf0>)
    206c:	189a      	adds	r2, r3, r2
    206e:	68bb      	ldr	r3, [r7, #8]
    2070:	3304      	adds	r3, #4
    2072:	1c10      	adds	r0, r2, #0
    2074:	1c19      	adds	r1, r3, #0
    2076:	4b1f      	ldr	r3, [pc, #124]	; (20f4 <STACK_SIZE+0xf4>)
    2078:	4798      	blx	r3
						{
							/* Preemption is on, but a context switch should
							only be performed if the unblocked task has a
							priority that is equal to or higher than the
							currently executing task. */
							if( pxTCB->uxPriority >= pxCurrentTCB->uxPriority )
    207a:	68bb      	ldr	r3, [r7, #8]
    207c:	6ada      	ldr	r2, [r3, #44]	; 0x2c
    207e:	4b1e      	ldr	r3, [pc, #120]	; (20f8 <STACK_SIZE+0xf8>)
    2080:	681b      	ldr	r3, [r3, #0]
    2082:	6adb      	ldr	r3, [r3, #44]	; 0x2c
    2084:	429a      	cmp	r2, r3
    2086:	d301      	bcc.n	208c <STACK_SIZE+0x8c>
							{
								xSwitchRequired = pdTRUE;
    2088:	2301      	movs	r3, #1
    208a:	617b      	str	r3, [r7, #20]
								mtCOVERAGE_TEST_MARKER();
							}
						}
						#endif /* configUSE_PREEMPTION */
					}
				}
    208c:	e7b0      	b.n	1ff0 <xTaskIncrementTick+0x64>
		/* Tasks of equal priority to the currently running task will share
		processing time (time slice) if preemption is on, and the application
		writer has not explicitly turned time slicing off. */
		#if ( ( configUSE_PREEMPTION == 1 ) && ( configUSE_TIME_SLICING == 1 ) )
		{
			if( listCURRENT_LIST_LENGTH( &( pxReadyTasksLists[ pxCurrentTCB->uxPriority ] ) ) > ( UBaseType_t ) 1 )
    208e:	4b1a      	ldr	r3, [pc, #104]	; (20f8 <STACK_SIZE+0xf8>)
    2090:	681b      	ldr	r3, [r3, #0]
    2092:	6ada      	ldr	r2, [r3, #44]	; 0x2c
    2094:	4916      	ldr	r1, [pc, #88]	; (20f0 <STACK_SIZE+0xf0>)
    2096:	1c13      	adds	r3, r2, #0
    2098:	009b      	lsls	r3, r3, #2
    209a:	189b      	adds	r3, r3, r2
    209c:	009b      	lsls	r3, r3, #2
    209e:	585b      	ldr	r3, [r3, r1]
    20a0:	2b01      	cmp	r3, #1
    20a2:	d907      	bls.n	20b4 <STACK_SIZE+0xb4>
			{
				xSwitchRequired = pdTRUE;
    20a4:	2301      	movs	r3, #1
    20a6:	617b      	str	r3, [r7, #20]
    20a8:	e004      	b.n	20b4 <STACK_SIZE+0xb4>
		}
		#endif /* configUSE_TICK_HOOK */
	}
	else
	{
		++uxPendedTicks;
    20aa:	4b14      	ldr	r3, [pc, #80]	; (20fc <STACK_SIZE+0xfc>)
    20ac:	681b      	ldr	r3, [r3, #0]
    20ae:	1c5a      	adds	r2, r3, #1
    20b0:	4b12      	ldr	r3, [pc, #72]	; (20fc <STACK_SIZE+0xfc>)
    20b2:	601a      	str	r2, [r3, #0]
		#endif
	}

	#if ( configUSE_PREEMPTION == 1 )
	{
		if( xYieldPending != pdFALSE )
    20b4:	4b12      	ldr	r3, [pc, #72]	; (2100 <STACK_SIZE+0x100>)
    20b6:	681b      	ldr	r3, [r3, #0]
    20b8:	2b00      	cmp	r3, #0
    20ba:	d001      	beq.n	20c0 <STACK_SIZE+0xc0>
		{
			xSwitchRequired = pdTRUE;
    20bc:	2301      	movs	r3, #1
    20be:	617b      	str	r3, [r7, #20]
			mtCOVERAGE_TEST_MARKER();
		}
	}
	#endif /* configUSE_PREEMPTION */

	return xSwitchRequired;
    20c0:	697b      	ldr	r3, [r7, #20]
}
    20c2:	1c18      	adds	r0, r3, #0
    20c4:	46bd      	mov	sp, r7
    20c6:	b006      	add	sp, #24
    20c8:	bd80      	pop	{r7, pc}
    20ca:	46c0      	nop			; (mov r8, r8)
    20cc:	2000013c 	.word	0x2000013c
    20d0:	20000128 	.word	0x20000128
    20d4:	20000120 	.word	0x20000120
    20d8:	20000124 	.word	0x20000124
    20dc:	20000138 	.word	0x20000138
    20e0:	000021a5 	.word	0x000021a5
    20e4:	20000004 	.word	0x20000004
    20e8:	00001f3d 	.word	0x00001f3d
    20ec:	2000012c 	.word	0x2000012c
    20f0:	200000bc 	.word	0x200000bc
    20f4:	00001ef9 	.word	0x00001ef9
    20f8:	200000b8 	.word	0x200000b8
    20fc:	20000130 	.word	0x20000130
    2100:	20000134 	.word	0x20000134

00002104 <vTaskSwitchContext>:

#endif /* configUSE_APPLICATION_TASK_TAG */
/*-----------------------------------------------------------*/

void vTaskSwitchContext( void )
{
    2104:	b580      	push	{r7, lr}
    2106:	b082      	sub	sp, #8
    2108:	af00      	add	r7, sp, #0
	if( uxSchedulerSuspended != ( UBaseType_t ) pdFALSE )
    210a:	4b21      	ldr	r3, [pc, #132]	; (2190 <vTaskSwitchContext+0x8c>)
    210c:	681b      	ldr	r3, [r3, #0]
    210e:	2b00      	cmp	r3, #0
    2110:	d003      	beq.n	211a <vTaskSwitchContext+0x16>
	{
		/* The scheduler is currently suspended - do not allow a context
		switch. */
		xYieldPending = pdTRUE;
    2112:	4b20      	ldr	r3, [pc, #128]	; (2194 <vTaskSwitchContext+0x90>)
    2114:	2201      	movs	r2, #1
    2116:	601a      	str	r2, [r3, #0]
    2118:	e036      	b.n	2188 <vTaskSwitchContext+0x84>
	}
	else
	{
		xYieldPending = pdFALSE;
    211a:	4b1e      	ldr	r3, [pc, #120]	; (2194 <vTaskSwitchContext+0x90>)
    211c:	2200      	movs	r2, #0
    211e:	601a      	str	r2, [r3, #0]
		#endif /* configGENERATE_RUN_TIME_STATS */

		taskFIRST_CHECK_FOR_STACK_OVERFLOW();
		taskSECOND_CHECK_FOR_STACK_OVERFLOW();

		taskSELECT_HIGHEST_PRIORITY_TASK();
    2120:	e00a      	b.n	2138 <vTaskSwitchContext+0x34>
    2122:	4b1d      	ldr	r3, [pc, #116]	; (2198 <vTaskSwitchContext+0x94>)
    2124:	681b      	ldr	r3, [r3, #0]
    2126:	2b00      	cmp	r3, #0
    2128:	d101      	bne.n	212e <vTaskSwitchContext+0x2a>
    212a:	b672      	cpsid	i
    212c:	e7fe      	b.n	212c <vTaskSwitchContext+0x28>
    212e:	4b1a      	ldr	r3, [pc, #104]	; (2198 <vTaskSwitchContext+0x94>)
    2130:	681b      	ldr	r3, [r3, #0]
    2132:	1e5a      	subs	r2, r3, #1
    2134:	4b18      	ldr	r3, [pc, #96]	; (2198 <vTaskSwitchContext+0x94>)
    2136:	601a      	str	r2, [r3, #0]
    2138:	4b17      	ldr	r3, [pc, #92]	; (2198 <vTaskSwitchContext+0x94>)
    213a:	681a      	ldr	r2, [r3, #0]
    213c:	4917      	ldr	r1, [pc, #92]	; (219c <vTaskSwitchContext+0x98>)
    213e:	1c13      	adds	r3, r2, #0
    2140:	009b      	lsls	r3, r3, #2
    2142:	189b      	adds	r3, r3, r2
    2144:	009b      	lsls	r3, r3, #2
    2146:	585b      	ldr	r3, [r3, r1]
    2148:	2b00      	cmp	r3, #0
    214a:	d0ea      	beq.n	2122 <vTaskSwitchContext+0x1e>
    214c:	4b12      	ldr	r3, [pc, #72]	; (2198 <vTaskSwitchContext+0x94>)
    214e:	681a      	ldr	r2, [r3, #0]
    2150:	1c13      	adds	r3, r2, #0
    2152:	009b      	lsls	r3, r3, #2
    2154:	189b      	adds	r3, r3, r2
    2156:	009b      	lsls	r3, r3, #2
    2158:	4a10      	ldr	r2, [pc, #64]	; (219c <vTaskSwitchContext+0x98>)
    215a:	189b      	adds	r3, r3, r2
    215c:	607b      	str	r3, [r7, #4]
    215e:	687b      	ldr	r3, [r7, #4]
    2160:	685b      	ldr	r3, [r3, #4]
    2162:	685a      	ldr	r2, [r3, #4]
    2164:	687b      	ldr	r3, [r7, #4]
    2166:	605a      	str	r2, [r3, #4]
    2168:	687b      	ldr	r3, [r7, #4]
    216a:	685a      	ldr	r2, [r3, #4]
    216c:	687b      	ldr	r3, [r7, #4]
    216e:	3308      	adds	r3, #8
    2170:	429a      	cmp	r2, r3
    2172:	d104      	bne.n	217e <vTaskSwitchContext+0x7a>
    2174:	687b      	ldr	r3, [r7, #4]
    2176:	685b      	ldr	r3, [r3, #4]
    2178:	685a      	ldr	r2, [r3, #4]
    217a:	687b      	ldr	r3, [r7, #4]
    217c:	605a      	str	r2, [r3, #4]
    217e:	687b      	ldr	r3, [r7, #4]
    2180:	685b      	ldr	r3, [r3, #4]
    2182:	68da      	ldr	r2, [r3, #12]
    2184:	4b06      	ldr	r3, [pc, #24]	; (21a0 <vTaskSwitchContext+0x9c>)
    2186:	601a      	str	r2, [r3, #0]
			structure specific to this task. */
			_impure_ptr = &( pxCurrentTCB->xNewLib_reent );
		}
		#endif /* configUSE_NEWLIB_REENTRANT */
	}
}
    2188:	46bd      	mov	sp, r7
    218a:	b002      	add	sp, #8
    218c:	bd80      	pop	{r7, pc}
    218e:	46c0      	nop			; (mov r8, r8)
    2190:	2000013c 	.word	0x2000013c
    2194:	20000134 	.word	0x20000134
    2198:	2000012c 	.word	0x2000012c
    219c:	200000bc 	.word	0x200000bc
    21a0:	200000b8 	.word	0x200000b8

000021a4 <prvResetNextTaskUnblockTime>:

#endif /* INCLUDE_vTaskDelete */
/*-----------------------------------------------------------*/

static void prvResetNextTaskUnblockTime( void )
{
    21a4:	b580      	push	{r7, lr}
    21a6:	b082      	sub	sp, #8
    21a8:	af00      	add	r7, sp, #0
TCB_t *pxTCB;

	if( listLIST_IS_EMPTY( pxDelayedTaskList ) != pdFALSE )
    21aa:	4b0d      	ldr	r3, [pc, #52]	; (21e0 <prvResetNextTaskUnblockTime+0x3c>)
    21ac:	681b      	ldr	r3, [r3, #0]
    21ae:	681b      	ldr	r3, [r3, #0]
    21b0:	2b00      	cmp	r3, #0
    21b2:	d101      	bne.n	21b8 <prvResetNextTaskUnblockTime+0x14>
    21b4:	2301      	movs	r3, #1
    21b6:	e000      	b.n	21ba <prvResetNextTaskUnblockTime+0x16>
    21b8:	2300      	movs	r3, #0
    21ba:	2b00      	cmp	r3, #0
    21bc:	d004      	beq.n	21c8 <prvResetNextTaskUnblockTime+0x24>
		/* The new current delayed list is empty.  Set
		xNextTaskUnblockTime to the maximum possible value so it is
		extremely unlikely that the
		if( xTickCount >= xNextTaskUnblockTime ) test will pass until
		there is an item in the delayed list. */
		xNextTaskUnblockTime = portMAX_DELAY;
    21be:	4b09      	ldr	r3, [pc, #36]	; (21e4 <prvResetNextTaskUnblockTime+0x40>)
    21c0:	2201      	movs	r2, #1
    21c2:	4252      	negs	r2, r2
    21c4:	601a      	str	r2, [r3, #0]
    21c6:	e008      	b.n	21da <prvResetNextTaskUnblockTime+0x36>
	{
		/* The new current delayed list is not empty, get the value of
		the item at the head of the delayed list.  This is the time at
		which the task at the head of the delayed list should be removed
		from the Blocked state. */
		( pxTCB ) = ( TCB_t * ) listGET_OWNER_OF_HEAD_ENTRY( pxDelayedTaskList );
    21c8:	4b05      	ldr	r3, [pc, #20]	; (21e0 <prvResetNextTaskUnblockTime+0x3c>)
    21ca:	681b      	ldr	r3, [r3, #0]
    21cc:	68db      	ldr	r3, [r3, #12]
    21ce:	68db      	ldr	r3, [r3, #12]
    21d0:	607b      	str	r3, [r7, #4]
		xNextTaskUnblockTime = listGET_LIST_ITEM_VALUE( &( ( pxTCB )->xGenericListItem ) );
    21d2:	687b      	ldr	r3, [r7, #4]
    21d4:	685a      	ldr	r2, [r3, #4]
    21d6:	4b03      	ldr	r3, [pc, #12]	; (21e4 <prvResetNextTaskUnblockTime+0x40>)
    21d8:	601a      	str	r2, [r3, #0]
	}
}
    21da:	46bd      	mov	sp, r7
    21dc:	b002      	add	sp, #8
    21de:	bd80      	pop	{r7, pc}
    21e0:	20000120 	.word	0x20000120
    21e4:	20000004 	.word	0x20000004

000021e8 <system_pinmux_get_group_from_gpio_pin>:
 *
 * \return Base address of the associated PORT module.
 */
static inline PortGroup* system_pinmux_get_group_from_gpio_pin(
		const uint8_t gpio_pin)
{
    21e8:	b580      	push	{r7, lr}
    21ea:	b084      	sub	sp, #16
    21ec:	af00      	add	r7, sp, #0
    21ee:	1c02      	adds	r2, r0, #0
    21f0:	1dfb      	adds	r3, r7, #7
    21f2:	701a      	strb	r2, [r3, #0]
	uint8_t port_index  = (gpio_pin / 128);
    21f4:	230f      	movs	r3, #15
    21f6:	18fb      	adds	r3, r7, r3
    21f8:	1dfa      	adds	r2, r7, #7
    21fa:	7812      	ldrb	r2, [r2, #0]
    21fc:	09d2      	lsrs	r2, r2, #7
    21fe:	701a      	strb	r2, [r3, #0]
	uint8_t group_index = (gpio_pin / 32);
    2200:	230e      	movs	r3, #14
    2202:	18fb      	adds	r3, r7, r3
    2204:	1dfa      	adds	r2, r7, #7
    2206:	7812      	ldrb	r2, [r2, #0]
    2208:	0952      	lsrs	r2, r2, #5
    220a:	701a      	strb	r2, [r3, #0]

	/* Array of available ports. */
	Port *const ports[PORT_INST_NUM] = PORT_INSTS;
    220c:	4b0d      	ldr	r3, [pc, #52]	; (2244 <system_pinmux_get_group_from_gpio_pin+0x5c>)
    220e:	60bb      	str	r3, [r7, #8]

	if (port_index < PORT_INST_NUM) {
    2210:	230f      	movs	r3, #15
    2212:	18fb      	adds	r3, r7, r3
    2214:	781b      	ldrb	r3, [r3, #0]
    2216:	2b00      	cmp	r3, #0
    2218:	d10f      	bne.n	223a <system_pinmux_get_group_from_gpio_pin+0x52>
		return &(ports[port_index]->Group[group_index]);
    221a:	230f      	movs	r3, #15
    221c:	18fb      	adds	r3, r7, r3
    221e:	781b      	ldrb	r3, [r3, #0]
    2220:	009b      	lsls	r3, r3, #2
    2222:	2210      	movs	r2, #16
    2224:	4694      	mov	ip, r2
    2226:	44bc      	add	ip, r7
    2228:	4463      	add	r3, ip
    222a:	3b08      	subs	r3, #8
    222c:	681a      	ldr	r2, [r3, #0]
    222e:	230e      	movs	r3, #14
    2230:	18fb      	adds	r3, r7, r3
    2232:	781b      	ldrb	r3, [r3, #0]
    2234:	01db      	lsls	r3, r3, #7
    2236:	18d3      	adds	r3, r2, r3
    2238:	e000      	b.n	223c <system_pinmux_get_group_from_gpio_pin+0x54>
	} else {
		Assert(false);
		return NULL;
    223a:	2300      	movs	r3, #0
	}
}
    223c:	1c18      	adds	r0, r3, #0
    223e:	46bd      	mov	sp, r7
    2240:	b004      	add	sp, #16
    2242:	bd80      	pop	{r7, pc}
    2244:	41004400 	.word	0x41004400

00002248 <port_get_group_from_gpio_pin>:
 *
 *  \return Base address of the associated PORT module.
 */
static inline PortGroup* port_get_group_from_gpio_pin(
		const uint8_t gpio_pin)
{
    2248:	b580      	push	{r7, lr}
    224a:	b082      	sub	sp, #8
    224c:	af00      	add	r7, sp, #0
    224e:	1c02      	adds	r2, r0, #0
    2250:	1dfb      	adds	r3, r7, #7
    2252:	701a      	strb	r2, [r3, #0]
	return system_pinmux_get_group_from_gpio_pin(gpio_pin);
    2254:	1dfb      	adds	r3, r7, #7
    2256:	781b      	ldrb	r3, [r3, #0]
    2258:	1c18      	adds	r0, r3, #0
    225a:	4b03      	ldr	r3, [pc, #12]	; (2268 <port_get_group_from_gpio_pin+0x20>)
    225c:	4798      	blx	r3
    225e:	1c03      	adds	r3, r0, #0
}
    2260:	1c18      	adds	r0, r3, #0
    2262:	46bd      	mov	sp, r7
    2264:	b002      	add	sp, #8
    2266:	bd80      	pop	{r7, pc}
    2268:	000021e9 	.word	0x000021e9

0000226c <port_get_config_defaults>:
 *
 *  \param[out] config  Configuration structure to initialize to default values.
 */
static inline void port_get_config_defaults(
		struct port_config *const config)
{
    226c:	b580      	push	{r7, lr}
    226e:	b082      	sub	sp, #8
    2270:	af00      	add	r7, sp, #0
    2272:	6078      	str	r0, [r7, #4]
	/* Sanity check arguments */
	Assert(config);

	/* Default configuration values */
	config->direction  = PORT_PIN_DIR_INPUT;
    2274:	687b      	ldr	r3, [r7, #4]
    2276:	2200      	movs	r2, #0
    2278:	701a      	strb	r2, [r3, #0]
	config->input_pull = PORT_PIN_PULL_UP;
    227a:	687b      	ldr	r3, [r7, #4]
    227c:	2201      	movs	r2, #1
    227e:	705a      	strb	r2, [r3, #1]
	config->powersave  = false;
    2280:	687b      	ldr	r3, [r7, #4]
    2282:	2200      	movs	r2, #0
    2284:	709a      	strb	r2, [r3, #2]
}
    2286:	46bd      	mov	sp, r7
    2288:	b002      	add	sp, #8
    228a:	bd80      	pop	{r7, pc}

0000228c <port_pin_set_output_level>:
 *  \param[in] level     Logical level to set the given pin to.
 */
static inline void port_pin_set_output_level(
		const uint8_t gpio_pin,
		const bool level)
{
    228c:	b580      	push	{r7, lr}
    228e:	b084      	sub	sp, #16
    2290:	af00      	add	r7, sp, #0
    2292:	1c02      	adds	r2, r0, #0
    2294:	1dfb      	adds	r3, r7, #7
    2296:	701a      	strb	r2, [r3, #0]
    2298:	1dbb      	adds	r3, r7, #6
    229a:	1c0a      	adds	r2, r1, #0
    229c:	701a      	strb	r2, [r3, #0]
	PortGroup *const port_base = port_get_group_from_gpio_pin(gpio_pin);
    229e:	1dfb      	adds	r3, r7, #7
    22a0:	781b      	ldrb	r3, [r3, #0]
    22a2:	1c18      	adds	r0, r3, #0
    22a4:	4b0c      	ldr	r3, [pc, #48]	; (22d8 <port_pin_set_output_level+0x4c>)
    22a6:	4798      	blx	r3
    22a8:	1c03      	adds	r3, r0, #0
    22aa:	60fb      	str	r3, [r7, #12]
	uint32_t pin_mask  = (1UL << (gpio_pin % 32));
    22ac:	1dfb      	adds	r3, r7, #7
    22ae:	781b      	ldrb	r3, [r3, #0]
    22b0:	221f      	movs	r2, #31
    22b2:	4013      	ands	r3, r2
    22b4:	2201      	movs	r2, #1
    22b6:	409a      	lsls	r2, r3
    22b8:	1c13      	adds	r3, r2, #0
    22ba:	60bb      	str	r3, [r7, #8]

	/* Set the pin to high or low atomically based on the requested level */
	if (level) {
    22bc:	1dbb      	adds	r3, r7, #6
    22be:	781b      	ldrb	r3, [r3, #0]
    22c0:	2b00      	cmp	r3, #0
    22c2:	d003      	beq.n	22cc <port_pin_set_output_level+0x40>
		port_base->OUTSET.reg = pin_mask;
    22c4:	68fb      	ldr	r3, [r7, #12]
    22c6:	68ba      	ldr	r2, [r7, #8]
    22c8:	619a      	str	r2, [r3, #24]
    22ca:	e002      	b.n	22d2 <port_pin_set_output_level+0x46>
	} else {
		port_base->OUTCLR.reg = pin_mask;
    22cc:	68fb      	ldr	r3, [r7, #12]
    22ce:	68ba      	ldr	r2, [r7, #8]
    22d0:	615a      	str	r2, [r3, #20]
	}
}
    22d2:	46bd      	mov	sp, r7
    22d4:	b004      	add	sp, #16
    22d6:	bd80      	pop	{r7, pc}
    22d8:	00002249 	.word	0x00002249

000022dc <system_board_init>:
void board_init(void);
#  pragma weak board_init=system_board_init
#endif

void system_board_init(void)
{
    22dc:	b580      	push	{r7, lr}
    22de:	b082      	sub	sp, #8
    22e0:	af00      	add	r7, sp, #0
	struct port_config pin_conf;
	port_get_config_defaults(&pin_conf);
    22e2:	1d3b      	adds	r3, r7, #4
    22e4:	1c18      	adds	r0, r3, #0
    22e6:	4b0e      	ldr	r3, [pc, #56]	; (2320 <system_board_init+0x44>)
    22e8:	4798      	blx	r3

	/* Configure LEDs as outputs, turn them off */
	pin_conf.direction  = PORT_PIN_DIR_OUTPUT;
    22ea:	1d3b      	adds	r3, r7, #4
    22ec:	2201      	movs	r2, #1
    22ee:	701a      	strb	r2, [r3, #0]
	port_pin_set_config(LED_0_PIN, &pin_conf);
    22f0:	1d3b      	adds	r3, r7, #4
    22f2:	203e      	movs	r0, #62	; 0x3e
    22f4:	1c19      	adds	r1, r3, #0
    22f6:	4b0b      	ldr	r3, [pc, #44]	; (2324 <system_board_init+0x48>)
    22f8:	4798      	blx	r3
	port_pin_set_output_level(LED_0_PIN, LED_0_INACTIVE);
    22fa:	203e      	movs	r0, #62	; 0x3e
    22fc:	2101      	movs	r1, #1
    22fe:	4b0a      	ldr	r3, [pc, #40]	; (2328 <system_board_init+0x4c>)
    2300:	4798      	blx	r3

	/* Set buttons as inputs */
	pin_conf.direction  = PORT_PIN_DIR_INPUT;
    2302:	1d3b      	adds	r3, r7, #4
    2304:	2200      	movs	r2, #0
    2306:	701a      	strb	r2, [r3, #0]
	pin_conf.input_pull = PORT_PIN_PULL_UP;
    2308:	1d3b      	adds	r3, r7, #4
    230a:	2201      	movs	r2, #1
    230c:	705a      	strb	r2, [r3, #1]
	port_pin_set_config(BUTTON_0_PIN, &pin_conf);
    230e:	1d3b      	adds	r3, r7, #4
    2310:	200f      	movs	r0, #15
    2312:	1c19      	adds	r1, r3, #0
    2314:	4b03      	ldr	r3, [pc, #12]	; (2324 <system_board_init+0x48>)
    2316:	4798      	blx	r3
	port_pin_set_output_level(AT86RFX_RST_PIN, true);
	port_pin_set_output_level(AT86RFX_SLP_PIN, true);
	pin_conf.direction  = PORT_PIN_DIR_INPUT;
	port_pin_set_config(AT86RFX_SPI_MISO, &pin_conf);
#endif	
}
    2318:	46bd      	mov	sp, r7
    231a:	b002      	add	sp, #8
    231c:	bd80      	pop	{r7, pc}
    231e:	46c0      	nop			; (mov r8, r8)
    2320:	0000226d 	.word	0x0000226d
    2324:	00002355 	.word	0x00002355
    2328:	0000228d 	.word	0x0000228d

0000232c <system_pinmux_get_config_defaults>:
 *
 * \param[out] config  Configuration structure to initialize to default values
 */
static inline void system_pinmux_get_config_defaults(
		struct system_pinmux_config *const config)
{
    232c:	b580      	push	{r7, lr}
    232e:	b082      	sub	sp, #8
    2330:	af00      	add	r7, sp, #0
    2332:	6078      	str	r0, [r7, #4]
	/* Sanity check arguments */
	Assert(config);

	/* Default configuration values */
	config->mux_position = SYSTEM_PINMUX_GPIO;
    2334:	687b      	ldr	r3, [r7, #4]
    2336:	2280      	movs	r2, #128	; 0x80
    2338:	701a      	strb	r2, [r3, #0]
	config->direction    = SYSTEM_PINMUX_PIN_DIR_INPUT;
    233a:	687b      	ldr	r3, [r7, #4]
    233c:	2200      	movs	r2, #0
    233e:	705a      	strb	r2, [r3, #1]
	config->input_pull   = SYSTEM_PINMUX_PIN_PULL_UP;
    2340:	687b      	ldr	r3, [r7, #4]
    2342:	2201      	movs	r2, #1
    2344:	709a      	strb	r2, [r3, #2]
	config->powersave    = false;
    2346:	687b      	ldr	r3, [r7, #4]
    2348:	2200      	movs	r2, #0
    234a:	70da      	strb	r2, [r3, #3]
}
    234c:	46bd      	mov	sp, r7
    234e:	b002      	add	sp, #8
    2350:	bd80      	pop	{r7, pc}
    2352:	46c0      	nop			; (mov r8, r8)

00002354 <port_pin_set_config>:
 *  \param[in] config    Configuration settings for the pin.
 */
void port_pin_set_config(
		const uint8_t gpio_pin,
		const struct port_config *const config)
{
    2354:	b580      	push	{r7, lr}
    2356:	b084      	sub	sp, #16
    2358:	af00      	add	r7, sp, #0
    235a:	1c02      	adds	r2, r0, #0
    235c:	6039      	str	r1, [r7, #0]
    235e:	1dfb      	adds	r3, r7, #7
    2360:	701a      	strb	r2, [r3, #0]
	/* Sanity check arguments */
	Assert(config);

	struct system_pinmux_config pinmux_config;
	system_pinmux_get_config_defaults(&pinmux_config);
    2362:	230c      	movs	r3, #12
    2364:	18fb      	adds	r3, r7, r3
    2366:	1c18      	adds	r0, r3, #0
    2368:	4b0f      	ldr	r3, [pc, #60]	; (23a8 <port_pin_set_config+0x54>)
    236a:	4798      	blx	r3

	pinmux_config.mux_position = SYSTEM_PINMUX_GPIO;
    236c:	230c      	movs	r3, #12
    236e:	18fb      	adds	r3, r7, r3
    2370:	2280      	movs	r2, #128	; 0x80
    2372:	701a      	strb	r2, [r3, #0]
	pinmux_config.direction    = (enum system_pinmux_pin_dir)config->direction;
    2374:	683b      	ldr	r3, [r7, #0]
    2376:	781a      	ldrb	r2, [r3, #0]
    2378:	230c      	movs	r3, #12
    237a:	18fb      	adds	r3, r7, r3
    237c:	705a      	strb	r2, [r3, #1]
	pinmux_config.input_pull   = (enum system_pinmux_pin_pull)config->input_pull;
    237e:	683b      	ldr	r3, [r7, #0]
    2380:	785a      	ldrb	r2, [r3, #1]
    2382:	230c      	movs	r3, #12
    2384:	18fb      	adds	r3, r7, r3
    2386:	709a      	strb	r2, [r3, #2]
	pinmux_config.powersave    = config->powersave;
    2388:	683b      	ldr	r3, [r7, #0]
    238a:	789a      	ldrb	r2, [r3, #2]
    238c:	230c      	movs	r3, #12
    238e:	18fb      	adds	r3, r7, r3
    2390:	70da      	strb	r2, [r3, #3]

	system_pinmux_pin_set_config(gpio_pin, &pinmux_config);
    2392:	1dfb      	adds	r3, r7, #7
    2394:	781a      	ldrb	r2, [r3, #0]
    2396:	230c      	movs	r3, #12
    2398:	18fb      	adds	r3, r7, r3
    239a:	1c10      	adds	r0, r2, #0
    239c:	1c19      	adds	r1, r3, #0
    239e:	4b03      	ldr	r3, [pc, #12]	; (23ac <port_pin_set_config+0x58>)
    23a0:	4798      	blx	r3
}
    23a2:	46bd      	mov	sp, r7
    23a4:	b004      	add	sp, #16
    23a6:	bd80      	pop	{r7, pc}
    23a8:	0000232d 	.word	0x0000232d
    23ac:	00002dc5 	.word	0x00002dc5

000023b0 <system_gclk_gen_get_config_defaults>:
 *
 * \param[out] config  Configuration structure to initialize to default values
 */
static inline void system_gclk_gen_get_config_defaults(
		struct system_gclk_gen_config *const config)
{
    23b0:	b580      	push	{r7, lr}
    23b2:	b082      	sub	sp, #8
    23b4:	af00      	add	r7, sp, #0
    23b6:	6078      	str	r0, [r7, #4]
	/* Sanity check arguments */
	Assert(config);

	/* Default configuration values */
	config->division_factor    = 1;
    23b8:	687b      	ldr	r3, [r7, #4]
    23ba:	2201      	movs	r2, #1
    23bc:	605a      	str	r2, [r3, #4]
	config->high_when_disabled = false;
    23be:	687b      	ldr	r3, [r7, #4]
    23c0:	2200      	movs	r2, #0
    23c2:	705a      	strb	r2, [r3, #1]
	config->source_clock       = GCLK_SOURCE_OSC8M;
    23c4:	687b      	ldr	r3, [r7, #4]
    23c6:	2206      	movs	r2, #6
    23c8:	701a      	strb	r2, [r3, #0]
	config->run_in_standby     = false;
    23ca:	687b      	ldr	r3, [r7, #4]
    23cc:	2200      	movs	r2, #0
    23ce:	721a      	strb	r2, [r3, #8]
	config->output_enable      = false;
    23d0:	687b      	ldr	r3, [r7, #4]
    23d2:	2200      	movs	r2, #0
    23d4:	725a      	strb	r2, [r3, #9]
}
    23d6:	46bd      	mov	sp, r7
    23d8:	b002      	add	sp, #8
    23da:	bd80      	pop	{r7, pc}

000023dc <system_clock_source_osc8m_get_config_defaults>:
 *
 * \param[out] config  Configuration structure to fill with default values
 */
static inline void system_clock_source_osc8m_get_config_defaults(
		struct system_clock_source_osc8m_config *const config)
{
    23dc:	b580      	push	{r7, lr}
    23de:	b082      	sub	sp, #8
    23e0:	af00      	add	r7, sp, #0
    23e2:	6078      	str	r0, [r7, #4]
	Assert(config);

	config->prescaler       = SYSTEM_OSC8M_DIV_8;
    23e4:	687b      	ldr	r3, [r7, #4]
    23e6:	2203      	movs	r2, #3
    23e8:	701a      	strb	r2, [r3, #0]
	config->run_in_standby  = false;
    23ea:	687b      	ldr	r3, [r7, #4]
    23ec:	2200      	movs	r2, #0
    23ee:	705a      	strb	r2, [r3, #1]
	config->on_demand       = true;
    23f0:	687b      	ldr	r3, [r7, #4]
    23f2:	2201      	movs	r2, #1
    23f4:	709a      	strb	r2, [r3, #2]
}
    23f6:	46bd      	mov	sp, r7
    23f8:	b002      	add	sp, #8
    23fa:	bd80      	pop	{r7, pc}

000023fc <system_cpu_clock_set_divider>:
 *
 * \param[in] divider  CPU clock divider to set
 */
static inline void system_cpu_clock_set_divider(
		const enum system_main_clock_div divider)
{
    23fc:	b580      	push	{r7, lr}
    23fe:	b082      	sub	sp, #8
    2400:	af00      	add	r7, sp, #0
    2402:	1c02      	adds	r2, r0, #0
    2404:	1dfb      	adds	r3, r7, #7
    2406:	701a      	strb	r2, [r3, #0]
	Assert(((uint32_t)divider & PM_CPUSEL_CPUDIV_Msk) == divider);
	PM->CPUSEL.reg = (uint32_t)divider;
    2408:	4a03      	ldr	r2, [pc, #12]	; (2418 <system_cpu_clock_set_divider+0x1c>)
    240a:	1dfb      	adds	r3, r7, #7
    240c:	781b      	ldrb	r3, [r3, #0]
    240e:	7213      	strb	r3, [r2, #8]
}
    2410:	46bd      	mov	sp, r7
    2412:	b002      	add	sp, #8
    2414:	bd80      	pop	{r7, pc}
    2416:	46c0      	nop			; (mov r8, r8)
    2418:	40000400 	.word	0x40000400

0000241c <system_apb_clock_set_divider>:
 * \retval STATUS_OK               The APBx clock was set successfully
 */
static inline enum status_code system_apb_clock_set_divider(
		const enum system_clock_apb_bus bus,
		const enum system_main_clock_div divider)
{
    241c:	b580      	push	{r7, lr}
    241e:	b082      	sub	sp, #8
    2420:	af00      	add	r7, sp, #0
    2422:	1c02      	adds	r2, r0, #0
    2424:	1dfb      	adds	r3, r7, #7
    2426:	701a      	strb	r2, [r3, #0]
    2428:	1dbb      	adds	r3, r7, #6
    242a:	1c0a      	adds	r2, r1, #0
    242c:	701a      	strb	r2, [r3, #0]
	switch (bus) {
    242e:	1dfb      	adds	r3, r7, #7
    2430:	781b      	ldrb	r3, [r3, #0]
    2432:	2b01      	cmp	r3, #1
    2434:	d008      	beq.n	2448 <system_apb_clock_set_divider+0x2c>
    2436:	2b02      	cmp	r3, #2
    2438:	d00b      	beq.n	2452 <system_apb_clock_set_divider+0x36>
    243a:	2b00      	cmp	r3, #0
    243c:	d10e      	bne.n	245c <system_apb_clock_set_divider+0x40>
		case SYSTEM_CLOCK_APB_APBA:
			PM->APBASEL.reg = (uint32_t)divider;
    243e:	4a0b      	ldr	r2, [pc, #44]	; (246c <system_apb_clock_set_divider+0x50>)
    2440:	1dbb      	adds	r3, r7, #6
    2442:	781b      	ldrb	r3, [r3, #0]
    2444:	7253      	strb	r3, [r2, #9]
			break;
    2446:	e00b      	b.n	2460 <system_apb_clock_set_divider+0x44>
		case SYSTEM_CLOCK_APB_APBB:
			PM->APBBSEL.reg = (uint32_t)divider;
    2448:	4a08      	ldr	r2, [pc, #32]	; (246c <system_apb_clock_set_divider+0x50>)
    244a:	1dbb      	adds	r3, r7, #6
    244c:	781b      	ldrb	r3, [r3, #0]
    244e:	7293      	strb	r3, [r2, #10]
			break;
    2450:	e006      	b.n	2460 <system_apb_clock_set_divider+0x44>
		case SYSTEM_CLOCK_APB_APBC:
			PM->APBCSEL.reg = (uint32_t)divider;
    2452:	4a06      	ldr	r2, [pc, #24]	; (246c <system_apb_clock_set_divider+0x50>)
    2454:	1dbb      	adds	r3, r7, #6
    2456:	781b      	ldrb	r3, [r3, #0]
    2458:	72d3      	strb	r3, [r2, #11]
			break;
    245a:	e001      	b.n	2460 <system_apb_clock_set_divider+0x44>
		default:
			Assert(false);
			return STATUS_ERR_INVALID_ARG;
    245c:	2317      	movs	r3, #23
    245e:	e000      	b.n	2462 <system_apb_clock_set_divider+0x46>
	}

	return STATUS_OK;
    2460:	2300      	movs	r3, #0
}
    2462:	1c18      	adds	r0, r3, #0
    2464:	46bd      	mov	sp, r7
    2466:	b002      	add	sp, #8
    2468:	bd80      	pop	{r7, pc}
    246a:	46c0      	nop			; (mov r8, r8)
    246c:	40000400 	.word	0x40000400

00002470 <system_flash_set_waitstates>:
 * can be found in the electrical characteristics of the device.
 *
 * \param[in] wait_states Number of wait states to use for internal flash
 */
static inline void system_flash_set_waitstates(uint8_t wait_states)
{
    2470:	b580      	push	{r7, lr}
    2472:	b082      	sub	sp, #8
    2474:	af00      	add	r7, sp, #0
    2476:	1c02      	adds	r2, r0, #0
    2478:	1dfb      	adds	r3, r7, #7
    247a:	701a      	strb	r2, [r3, #0]
	Assert(NVMCTRL_CTRLB_RWS((uint32_t)wait_states) ==
			((uint32_t)wait_states << NVMCTRL_CTRLB_RWS_Pos));

	NVMCTRL->CTRLB.bit.RWS = wait_states;
    247c:	4b08      	ldr	r3, [pc, #32]	; (24a0 <system_flash_set_waitstates+0x30>)
    247e:	1dfa      	adds	r2, r7, #7
    2480:	7812      	ldrb	r2, [r2, #0]
    2482:	210f      	movs	r1, #15
    2484:	400a      	ands	r2, r1
    2486:	b2d2      	uxtb	r2, r2
    2488:	210f      	movs	r1, #15
    248a:	400a      	ands	r2, r1
    248c:	0052      	lsls	r2, r2, #1
    248e:	6859      	ldr	r1, [r3, #4]
    2490:	201e      	movs	r0, #30
    2492:	4381      	bics	r1, r0
    2494:	430a      	orrs	r2, r1
    2496:	605a      	str	r2, [r3, #4]
}
    2498:	46bd      	mov	sp, r7
    249a:	b002      	add	sp, #8
    249c:	bd80      	pop	{r7, pc}
    249e:	46c0      	nop			; (mov r8, r8)
    24a0:	41004000 	.word	0x41004000

000024a4 <_system_dfll_wait_for_sync>:
/**
 * \internal
 * \brief Wait for sync to the DFLL control registers
 */
static inline void _system_dfll_wait_for_sync(void)
{
    24a4:	b580      	push	{r7, lr}
    24a6:	af00      	add	r7, sp, #0
	while (!(SYSCTRL->PCLKSR.reg & SYSCTRL_PCLKSR_DFLLRDY)) {
    24a8:	46c0      	nop			; (mov r8, r8)
    24aa:	4b03      	ldr	r3, [pc, #12]	; (24b8 <_system_dfll_wait_for_sync+0x14>)
    24ac:	68db      	ldr	r3, [r3, #12]
    24ae:	2210      	movs	r2, #16
    24b0:	4013      	ands	r3, r2
    24b2:	d0fa      	beq.n	24aa <_system_dfll_wait_for_sync+0x6>
		/* Wait for DFLL sync */
	}
}
    24b4:	46bd      	mov	sp, r7
    24b6:	bd80      	pop	{r7, pc}
    24b8:	40000800 	.word	0x40000800

000024bc <_system_clock_source_dfll_set_config_errata_9905>:
		/* Wait for OSC32K sync */
	}
}

static inline void _system_clock_source_dfll_set_config_errata_9905(void)
{
    24bc:	b580      	push	{r7, lr}
    24be:	af00      	add	r7, sp, #0

	/* Disable ONDEMAND mode while writing configurations */
	SYSCTRL->DFLLCTRL.reg = _system_clock_inst.dfll.control & ~SYSCTRL_DFLLCTRL_ONDEMAND;
    24c0:	4a0c      	ldr	r2, [pc, #48]	; (24f4 <_system_clock_source_dfll_set_config_errata_9905+0x38>)
    24c2:	4b0d      	ldr	r3, [pc, #52]	; (24f8 <_system_clock_source_dfll_set_config_errata_9905+0x3c>)
    24c4:	681b      	ldr	r3, [r3, #0]
    24c6:	b29b      	uxth	r3, r3
    24c8:	2180      	movs	r1, #128	; 0x80
    24ca:	438b      	bics	r3, r1
    24cc:	b29b      	uxth	r3, r3
    24ce:	8493      	strh	r3, [r2, #36]	; 0x24
	_system_dfll_wait_for_sync();
    24d0:	4b0a      	ldr	r3, [pc, #40]	; (24fc <_system_clock_source_dfll_set_config_errata_9905+0x40>)
    24d2:	4798      	blx	r3

	SYSCTRL->DFLLMUL.reg = _system_clock_inst.dfll.mul;
    24d4:	4a07      	ldr	r2, [pc, #28]	; (24f4 <_system_clock_source_dfll_set_config_errata_9905+0x38>)
    24d6:	4b08      	ldr	r3, [pc, #32]	; (24f8 <_system_clock_source_dfll_set_config_errata_9905+0x3c>)
    24d8:	689b      	ldr	r3, [r3, #8]
    24da:	62d3      	str	r3, [r2, #44]	; 0x2c
	SYSCTRL->DFLLVAL.reg = _system_clock_inst.dfll.val;
    24dc:	4a05      	ldr	r2, [pc, #20]	; (24f4 <_system_clock_source_dfll_set_config_errata_9905+0x38>)
    24de:	4b06      	ldr	r3, [pc, #24]	; (24f8 <_system_clock_source_dfll_set_config_errata_9905+0x3c>)
    24e0:	685b      	ldr	r3, [r3, #4]
    24e2:	6293      	str	r3, [r2, #40]	; 0x28

	/* Write full configuration to DFLL control register */
	SYSCTRL->DFLLCTRL.reg = _system_clock_inst.dfll.control;
    24e4:	4a03      	ldr	r2, [pc, #12]	; (24f4 <_system_clock_source_dfll_set_config_errata_9905+0x38>)
    24e6:	4b04      	ldr	r3, [pc, #16]	; (24f8 <_system_clock_source_dfll_set_config_errata_9905+0x3c>)
    24e8:	681b      	ldr	r3, [r3, #0]
    24ea:	b29b      	uxth	r3, r3
    24ec:	8493      	strh	r3, [r2, #36]	; 0x24
}
    24ee:	46bd      	mov	sp, r7
    24f0:	bd80      	pop	{r7, pc}
    24f2:	46c0      	nop			; (mov r8, r8)
    24f4:	40000800 	.word	0x40000800
    24f8:	20000140 	.word	0x20000140
    24fc:	000024a5 	.word	0x000024a5

00002500 <system_clock_source_get_hz>:
 *
 * \returns Frequency of the given clock source, in Hz.
 */
uint32_t system_clock_source_get_hz(
		const enum system_clock_source clock_source)
{
    2500:	b580      	push	{r7, lr}
    2502:	b082      	sub	sp, #8
    2504:	af00      	add	r7, sp, #0
    2506:	1c02      	adds	r2, r0, #0
    2508:	1dfb      	adds	r3, r7, #7
    250a:	701a      	strb	r2, [r3, #0]
	switch (clock_source) {
    250c:	1dfb      	adds	r3, r7, #7
    250e:	781b      	ldrb	r3, [r3, #0]
    2510:	2b08      	cmp	r3, #8
    2512:	d842      	bhi.n	259a <system_clock_source_get_hz+0x9a>
    2514:	009a      	lsls	r2, r3, #2
    2516:	4b23      	ldr	r3, [pc, #140]	; (25a4 <system_clock_source_get_hz+0xa4>)
    2518:	18d3      	adds	r3, r2, r3
    251a:	681b      	ldr	r3, [r3, #0]
    251c:	469f      	mov	pc, r3
	case SYSTEM_CLOCK_SOURCE_XOSC:
		return _system_clock_inst.xosc.frequency;
    251e:	4b22      	ldr	r3, [pc, #136]	; (25a8 <system_clock_source_get_hz+0xa8>)
    2520:	691b      	ldr	r3, [r3, #16]
    2522:	e03b      	b.n	259c <system_clock_source_get_hz+0x9c>

	case SYSTEM_CLOCK_SOURCE_OSC8M:
		return 8000000UL >> SYSCTRL->OSC8M.bit.PRESC;
    2524:	4b21      	ldr	r3, [pc, #132]	; (25ac <system_clock_source_get_hz+0xac>)
    2526:	6a1b      	ldr	r3, [r3, #32]
    2528:	0a1b      	lsrs	r3, r3, #8
    252a:	1c1a      	adds	r2, r3, #0
    252c:	2303      	movs	r3, #3
    252e:	4013      	ands	r3, r2
    2530:	b2db      	uxtb	r3, r3
    2532:	1c1a      	adds	r2, r3, #0
    2534:	4b1e      	ldr	r3, [pc, #120]	; (25b0 <system_clock_source_get_hz+0xb0>)
    2536:	40d3      	lsrs	r3, r2
    2538:	e030      	b.n	259c <system_clock_source_get_hz+0x9c>

	case SYSTEM_CLOCK_SOURCE_OSC32K:
		return 32768UL;
    253a:	2380      	movs	r3, #128	; 0x80
    253c:	021b      	lsls	r3, r3, #8
    253e:	e02d      	b.n	259c <system_clock_source_get_hz+0x9c>

	case SYSTEM_CLOCK_SOURCE_ULP32K:
		return 32768UL;
    2540:	2380      	movs	r3, #128	; 0x80
    2542:	021b      	lsls	r3, r3, #8
    2544:	e02a      	b.n	259c <system_clock_source_get_hz+0x9c>

	case SYSTEM_CLOCK_SOURCE_XOSC32K:
		return _system_clock_inst.xosc32k.frequency;
    2546:	4b18      	ldr	r3, [pc, #96]	; (25a8 <system_clock_source_get_hz+0xa8>)
    2548:	695b      	ldr	r3, [r3, #20]
    254a:	e027      	b.n	259c <system_clock_source_get_hz+0x9c>

	case SYSTEM_CLOCK_SOURCE_DFLL:

		/* Check if the DFLL has been configured */
		if (!(_system_clock_inst.dfll.control & SYSCTRL_DFLLCTRL_ENABLE))
    254c:	4b16      	ldr	r3, [pc, #88]	; (25a8 <system_clock_source_get_hz+0xa8>)
    254e:	681b      	ldr	r3, [r3, #0]
    2550:	2202      	movs	r2, #2
    2552:	4013      	ands	r3, r2
    2554:	d101      	bne.n	255a <system_clock_source_get_hz+0x5a>
			return 0;
    2556:	2300      	movs	r3, #0
    2558:	e020      	b.n	259c <system_clock_source_get_hz+0x9c>

		/* Make sure that the DFLL module is ready */
		_system_dfll_wait_for_sync();
    255a:	4b16      	ldr	r3, [pc, #88]	; (25b4 <system_clock_source_get_hz+0xb4>)
    255c:	4798      	blx	r3

		/* Check if operating in closed loop mode */
		if (_system_clock_inst.dfll.control & SYSCTRL_DFLLCTRL_MODE) {
    255e:	4b12      	ldr	r3, [pc, #72]	; (25a8 <system_clock_source_get_hz+0xa8>)
    2560:	681b      	ldr	r3, [r3, #0]
    2562:	2204      	movs	r2, #4
    2564:	4013      	ands	r3, r2
    2566:	d009      	beq.n	257c <system_clock_source_get_hz+0x7c>
			return system_gclk_chan_get_hz(SYSCTRL_GCLK_ID_DFLL48) *
    2568:	2000      	movs	r0, #0
    256a:	4b13      	ldr	r3, [pc, #76]	; (25b8 <system_clock_source_get_hz+0xb8>)
    256c:	4798      	blx	r3
    256e:	1c02      	adds	r2, r0, #0
					(_system_clock_inst.dfll.mul & 0xffff);
    2570:	4b0d      	ldr	r3, [pc, #52]	; (25a8 <system_clock_source_get_hz+0xa8>)
    2572:	689b      	ldr	r3, [r3, #8]
    2574:	041b      	lsls	r3, r3, #16
    2576:	0c1b      	lsrs	r3, r3, #16
		/* Make sure that the DFLL module is ready */
		_system_dfll_wait_for_sync();

		/* Check if operating in closed loop mode */
		if (_system_clock_inst.dfll.control & SYSCTRL_DFLLCTRL_MODE) {
			return system_gclk_chan_get_hz(SYSCTRL_GCLK_ID_DFLL48) *
    2578:	4353      	muls	r3, r2
    257a:	e00f      	b.n	259c <system_clock_source_get_hz+0x9c>
					(_system_clock_inst.dfll.mul & 0xffff);
		}

		return 48000000UL;
    257c:	4b0f      	ldr	r3, [pc, #60]	; (25bc <system_clock_source_get_hz+0xbc>)
    257e:	e00d      	b.n	259c <system_clock_source_get_hz+0x9c>

#ifdef FEATURE_SYSTEM_CLOCK_DPLL
	case SYSTEM_CLOCK_SOURCE_DPLL:
		if (!(SYSCTRL->DPLLSTATUS.reg & SYSCTRL_DPLLSTATUS_ENABLE)) {
    2580:	4a0a      	ldr	r2, [pc, #40]	; (25ac <system_clock_source_get_hz+0xac>)
    2582:	2350      	movs	r3, #80	; 0x50
    2584:	5cd3      	ldrb	r3, [r2, r3]
    2586:	b2db      	uxtb	r3, r3
    2588:	1c1a      	adds	r2, r3, #0
    258a:	2304      	movs	r3, #4
    258c:	4013      	ands	r3, r2
    258e:	d101      	bne.n	2594 <system_clock_source_get_hz+0x94>
			return 0;
    2590:	2300      	movs	r3, #0
    2592:	e003      	b.n	259c <system_clock_source_get_hz+0x9c>
		}

		return _system_clock_inst.dpll.frequency;
    2594:	4b04      	ldr	r3, [pc, #16]	; (25a8 <system_clock_source_get_hz+0xa8>)
    2596:	68db      	ldr	r3, [r3, #12]
    2598:	e000      	b.n	259c <system_clock_source_get_hz+0x9c>
#endif

	default:
		return 0;
    259a:	2300      	movs	r3, #0
	}
}
    259c:	1c18      	adds	r0, r3, #0
    259e:	46bd      	mov	sp, r7
    25a0:	b002      	add	sp, #8
    25a2:	bd80      	pop	{r7, pc}
    25a4:	00007530 	.word	0x00007530
    25a8:	20000140 	.word	0x20000140
    25ac:	40000800 	.word	0x40000800
    25b0:	007a1200 	.word	0x007a1200
    25b4:	000024a5 	.word	0x000024a5
    25b8:	00002bfd 	.word	0x00002bfd
    25bc:	02dc6c00 	.word	0x02dc6c00

000025c0 <system_clock_source_osc8m_set_config>:
 *
 * \param[in] config  OSC8M configuration structure containing the new config
 */
void system_clock_source_osc8m_set_config(
		struct system_clock_source_osc8m_config *const config)
{
    25c0:	b580      	push	{r7, lr}
    25c2:	b084      	sub	sp, #16
    25c4:	af00      	add	r7, sp, #0
    25c6:	6078      	str	r0, [r7, #4]
	SYSCTRL_OSC8M_Type temp = SYSCTRL->OSC8M;
    25c8:	4b1a      	ldr	r3, [pc, #104]	; (2634 <system_clock_source_osc8m_set_config+0x74>)
    25ca:	6a1b      	ldr	r3, [r3, #32]
    25cc:	60fb      	str	r3, [r7, #12]

	/* Use temporary struct to reduce register access */
	temp.bit.PRESC    = config->prescaler;
    25ce:	687b      	ldr	r3, [r7, #4]
    25d0:	781b      	ldrb	r3, [r3, #0]
    25d2:	1c1a      	adds	r2, r3, #0
    25d4:	2303      	movs	r3, #3
    25d6:	4013      	ands	r3, r2
    25d8:	b2da      	uxtb	r2, r3
    25da:	230d      	movs	r3, #13
    25dc:	18fb      	adds	r3, r7, r3
    25de:	2103      	movs	r1, #3
    25e0:	400a      	ands	r2, r1
    25e2:	1c10      	adds	r0, r2, #0
    25e4:	781a      	ldrb	r2, [r3, #0]
    25e6:	2103      	movs	r1, #3
    25e8:	438a      	bics	r2, r1
    25ea:	1c11      	adds	r1, r2, #0
    25ec:	1c02      	adds	r2, r0, #0
    25ee:	430a      	orrs	r2, r1
    25f0:	701a      	strb	r2, [r3, #0]
	temp.bit.ONDEMAND = config->on_demand;
    25f2:	687b      	ldr	r3, [r7, #4]
    25f4:	789a      	ldrb	r2, [r3, #2]
    25f6:	230c      	movs	r3, #12
    25f8:	18fb      	adds	r3, r7, r3
    25fa:	01d0      	lsls	r0, r2, #7
    25fc:	781a      	ldrb	r2, [r3, #0]
    25fe:	217f      	movs	r1, #127	; 0x7f
    2600:	400a      	ands	r2, r1
    2602:	1c11      	adds	r1, r2, #0
    2604:	1c02      	adds	r2, r0, #0
    2606:	430a      	orrs	r2, r1
    2608:	701a      	strb	r2, [r3, #0]
	temp.bit.RUNSTDBY = config->run_in_standby;
    260a:	687b      	ldr	r3, [r7, #4]
    260c:	785a      	ldrb	r2, [r3, #1]
    260e:	230c      	movs	r3, #12
    2610:	18fb      	adds	r3, r7, r3
    2612:	2101      	movs	r1, #1
    2614:	400a      	ands	r2, r1
    2616:	0190      	lsls	r0, r2, #6
    2618:	781a      	ldrb	r2, [r3, #0]
    261a:	2140      	movs	r1, #64	; 0x40
    261c:	438a      	bics	r2, r1
    261e:	1c11      	adds	r1, r2, #0
    2620:	1c02      	adds	r2, r0, #0
    2622:	430a      	orrs	r2, r1
    2624:	701a      	strb	r2, [r3, #0]

	SYSCTRL->OSC8M = temp;
    2626:	4b03      	ldr	r3, [pc, #12]	; (2634 <system_clock_source_osc8m_set_config+0x74>)
    2628:	68fa      	ldr	r2, [r7, #12]
    262a:	621a      	str	r2, [r3, #32]
}
    262c:	46bd      	mov	sp, r7
    262e:	b004      	add	sp, #16
    2630:	bd80      	pop	{r7, pc}
    2632:	46c0      	nop			; (mov r8, r8)
    2634:	40000800 	.word	0x40000800

00002638 <system_clock_source_enable>:
 * \retval STATUS_ERR_INVALID_ARG  The clock source is not available on this
 *                                 device
 */
enum status_code system_clock_source_enable(
		const enum system_clock_source clock_source)
{
    2638:	b580      	push	{r7, lr}
    263a:	b082      	sub	sp, #8
    263c:	af00      	add	r7, sp, #0
    263e:	1c02      	adds	r2, r0, #0
    2640:	1dfb      	adds	r3, r7, #7
    2642:	701a      	strb	r2, [r3, #0]
	switch (clock_source) {
    2644:	1dfb      	adds	r3, r7, #7
    2646:	781b      	ldrb	r3, [r3, #0]
    2648:	2b08      	cmp	r3, #8
    264a:	d83b      	bhi.n	26c4 <system_clock_source_enable+0x8c>
    264c:	009a      	lsls	r2, r3, #2
    264e:	4b21      	ldr	r3, [pc, #132]	; (26d4 <system_clock_source_enable+0x9c>)
    2650:	18d3      	adds	r3, r2, r3
    2652:	681b      	ldr	r3, [r3, #0]
    2654:	469f      	mov	pc, r3
	case SYSTEM_CLOCK_SOURCE_OSC8M:
		SYSCTRL->OSC8M.reg |= SYSCTRL_OSC8M_ENABLE;
    2656:	4b20      	ldr	r3, [pc, #128]	; (26d8 <system_clock_source_enable+0xa0>)
    2658:	4a1f      	ldr	r2, [pc, #124]	; (26d8 <system_clock_source_enable+0xa0>)
    265a:	6a12      	ldr	r2, [r2, #32]
    265c:	2102      	movs	r1, #2
    265e:	430a      	orrs	r2, r1
    2660:	621a      	str	r2, [r3, #32]
		return STATUS_OK;
    2662:	2300      	movs	r3, #0
    2664:	e031      	b.n	26ca <system_clock_source_enable+0x92>

	case SYSTEM_CLOCK_SOURCE_OSC32K:
		SYSCTRL->OSC32K.reg |= SYSCTRL_OSC32K_ENABLE;
    2666:	4b1c      	ldr	r3, [pc, #112]	; (26d8 <system_clock_source_enable+0xa0>)
    2668:	4a1b      	ldr	r2, [pc, #108]	; (26d8 <system_clock_source_enable+0xa0>)
    266a:	6992      	ldr	r2, [r2, #24]
    266c:	2102      	movs	r1, #2
    266e:	430a      	orrs	r2, r1
    2670:	619a      	str	r2, [r3, #24]
		break;
    2672:	e029      	b.n	26c8 <system_clock_source_enable+0x90>

	case SYSTEM_CLOCK_SOURCE_XOSC:
		SYSCTRL->XOSC.reg |= SYSCTRL_XOSC_ENABLE;
    2674:	4a18      	ldr	r2, [pc, #96]	; (26d8 <system_clock_source_enable+0xa0>)
    2676:	4b18      	ldr	r3, [pc, #96]	; (26d8 <system_clock_source_enable+0xa0>)
    2678:	8a1b      	ldrh	r3, [r3, #16]
    267a:	b29b      	uxth	r3, r3
    267c:	2102      	movs	r1, #2
    267e:	430b      	orrs	r3, r1
    2680:	b29b      	uxth	r3, r3
    2682:	8213      	strh	r3, [r2, #16]
		break;
    2684:	e020      	b.n	26c8 <system_clock_source_enable+0x90>

	case SYSTEM_CLOCK_SOURCE_XOSC32K:
		SYSCTRL->XOSC32K.reg |= SYSCTRL_XOSC32K_ENABLE;
    2686:	4a14      	ldr	r2, [pc, #80]	; (26d8 <system_clock_source_enable+0xa0>)
    2688:	4b13      	ldr	r3, [pc, #76]	; (26d8 <system_clock_source_enable+0xa0>)
    268a:	8a9b      	ldrh	r3, [r3, #20]
    268c:	b29b      	uxth	r3, r3
    268e:	2102      	movs	r1, #2
    2690:	430b      	orrs	r3, r1
    2692:	b29b      	uxth	r3, r3
    2694:	8293      	strh	r3, [r2, #20]
		break;
    2696:	e017      	b.n	26c8 <system_clock_source_enable+0x90>

	case SYSTEM_CLOCK_SOURCE_DFLL:
		_system_clock_inst.dfll.control |= SYSCTRL_DFLLCTRL_ENABLE;
    2698:	4b10      	ldr	r3, [pc, #64]	; (26dc <system_clock_source_enable+0xa4>)
    269a:	681b      	ldr	r3, [r3, #0]
    269c:	2202      	movs	r2, #2
    269e:	431a      	orrs	r2, r3
    26a0:	4b0e      	ldr	r3, [pc, #56]	; (26dc <system_clock_source_enable+0xa4>)
    26a2:	601a      	str	r2, [r3, #0]
		_system_clock_source_dfll_set_config_errata_9905();
    26a4:	4b0e      	ldr	r3, [pc, #56]	; (26e0 <system_clock_source_enable+0xa8>)
    26a6:	4798      	blx	r3
		break;
    26a8:	e00e      	b.n	26c8 <system_clock_source_enable+0x90>

#ifdef FEATURE_SYSTEM_CLOCK_DPLL
	case SYSTEM_CLOCK_SOURCE_DPLL:
		SYSCTRL->DPLLCTRLA.reg |= SYSCTRL_DPLLCTRLA_ENABLE;
    26aa:	4a0b      	ldr	r2, [pc, #44]	; (26d8 <system_clock_source_enable+0xa0>)
    26ac:	490a      	ldr	r1, [pc, #40]	; (26d8 <system_clock_source_enable+0xa0>)
    26ae:	2344      	movs	r3, #68	; 0x44
    26b0:	5ccb      	ldrb	r3, [r1, r3]
    26b2:	b2db      	uxtb	r3, r3
    26b4:	2102      	movs	r1, #2
    26b6:	430b      	orrs	r3, r1
    26b8:	b2d9      	uxtb	r1, r3
    26ba:	2344      	movs	r3, #68	; 0x44
    26bc:	54d1      	strb	r1, [r2, r3]
		break;
    26be:	e003      	b.n	26c8 <system_clock_source_enable+0x90>
#endif

	case SYSTEM_CLOCK_SOURCE_ULP32K:
		/* Always enabled */
		return STATUS_OK;
    26c0:	2300      	movs	r3, #0
    26c2:	e002      	b.n	26ca <system_clock_source_enable+0x92>

	default:
		Assert(false);
		return STATUS_ERR_INVALID_ARG;
    26c4:	2317      	movs	r3, #23
    26c6:	e000      	b.n	26ca <system_clock_source_enable+0x92>
	}

	return STATUS_OK;
    26c8:	2300      	movs	r3, #0
}
    26ca:	1c18      	adds	r0, r3, #0
    26cc:	46bd      	mov	sp, r7
    26ce:	b002      	add	sp, #8
    26d0:	bd80      	pop	{r7, pc}
    26d2:	46c0      	nop			; (mov r8, r8)
    26d4:	00007554 	.word	0x00007554
    26d8:	40000800 	.word	0x40000800
    26dc:	20000140 	.word	0x20000140
    26e0:	000024bd 	.word	0x000024bd

000026e4 <system_clock_init>:
 * This function will apply the settings in conf_clocks.h when run from the user
 * application. All clock sources and GCLK generators are running when this function
 * returns.
 */
void system_clock_init(void)
{
    26e4:	b580      	push	{r7, lr}
    26e6:	b09c      	sub	sp, #112	; 0x70
    26e8:	af00      	add	r7, sp, #0
	/* Various bits in the INTFLAG register can be set to one at startup.
	   This will ensure that these bits are cleared */
	SYSCTRL->INTFLAG.reg = SYSCTRL_INTFLAG_BOD33RDY | SYSCTRL_INTFLAG_BOD33DET |
    26ea:	4b24      	ldr	r3, [pc, #144]	; (277c <system_clock_init+0x98>)
    26ec:	22c2      	movs	r2, #194	; 0xc2
    26ee:	00d2      	lsls	r2, r2, #3
    26f0:	609a      	str	r2, [r3, #8]
			SYSCTRL_INTFLAG_DFLLRDY;

	system_flash_set_waitstates(CONF_CLOCK_FLASH_WAIT_STATES);
    26f2:	2000      	movs	r0, #0
    26f4:	4b22      	ldr	r3, [pc, #136]	; (2780 <system_clock_init+0x9c>)
    26f6:	4798      	blx	r3
#endif


	/* OSC8M */
	struct system_clock_source_osc8m_config osc8m_conf;
	system_clock_source_osc8m_get_config_defaults(&osc8m_conf);
    26f8:	236c      	movs	r3, #108	; 0x6c
    26fa:	18fb      	adds	r3, r7, r3
    26fc:	1c18      	adds	r0, r3, #0
    26fe:	4b21      	ldr	r3, [pc, #132]	; (2784 <system_clock_init+0xa0>)
    2700:	4798      	blx	r3

	osc8m_conf.prescaler       = CONF_CLOCK_OSC8M_PRESCALER;
    2702:	236c      	movs	r3, #108	; 0x6c
    2704:	18fb      	adds	r3, r7, r3
    2706:	2200      	movs	r2, #0
    2708:	701a      	strb	r2, [r3, #0]
	osc8m_conf.on_demand       = CONF_CLOCK_OSC8M_ON_DEMAND;
    270a:	236c      	movs	r3, #108	; 0x6c
    270c:	18fb      	adds	r3, r7, r3
    270e:	2201      	movs	r2, #1
    2710:	709a      	strb	r2, [r3, #2]
	osc8m_conf.run_in_standby  = CONF_CLOCK_OSC8M_RUN_IN_STANDBY;
    2712:	236c      	movs	r3, #108	; 0x6c
    2714:	18fb      	adds	r3, r7, r3
    2716:	2200      	movs	r2, #0
    2718:	705a      	strb	r2, [r3, #1]

	system_clock_source_osc8m_set_config(&osc8m_conf);
    271a:	236c      	movs	r3, #108	; 0x6c
    271c:	18fb      	adds	r3, r7, r3
    271e:	1c18      	adds	r0, r3, #0
    2720:	4b19      	ldr	r3, [pc, #100]	; (2788 <system_clock_init+0xa4>)
    2722:	4798      	blx	r3
	system_clock_source_enable(SYSTEM_CLOCK_SOURCE_OSC8M);
    2724:	2006      	movs	r0, #6
    2726:	4b19      	ldr	r3, [pc, #100]	; (278c <system_clock_init+0xa8>)
    2728:	4798      	blx	r3


	/* GCLK */
#if CONF_CLOCK_CONFIGURE_GCLK == true
	system_gclk_init();
    272a:	4b19      	ldr	r3, [pc, #100]	; (2790 <system_clock_init+0xac>)
    272c:	4798      	blx	r3

#  endif
#endif

	/* CPU and BUS clocks */
	system_cpu_clock_set_divider(CONF_CLOCK_CPU_DIVIDER);
    272e:	2000      	movs	r0, #0
    2730:	4b18      	ldr	r3, [pc, #96]	; (2794 <system_clock_init+0xb0>)
    2732:	4798      	blx	r3

#ifdef FEATURE_SYSTEM_CLOCK_FAILURE_DETECT
	system_main_clock_set_failure_detect(CONF_CLOCK_CPU_CLOCK_FAILURE_DETECT);
#endif

	system_apb_clock_set_divider(SYSTEM_CLOCK_APB_APBA, CONF_CLOCK_APBA_DIVIDER);
    2734:	2000      	movs	r0, #0
    2736:	2100      	movs	r1, #0
    2738:	4b17      	ldr	r3, [pc, #92]	; (2798 <system_clock_init+0xb4>)
    273a:	4798      	blx	r3
	system_apb_clock_set_divider(SYSTEM_CLOCK_APB_APBB, CONF_CLOCK_APBB_DIVIDER);
    273c:	2001      	movs	r0, #1
    273e:	2100      	movs	r1, #0
    2740:	4b15      	ldr	r3, [pc, #84]	; (2798 <system_clock_init+0xb4>)
    2742:	4798      	blx	r3

	/* GCLK 0 */
#if CONF_CLOCK_CONFIGURE_GCLK == true
	/* Configure the main GCLK last as it might depend on other generators */
	_CONF_CLOCK_GCLK_CONFIG(0, ~);
    2744:	1c3b      	adds	r3, r7, #0
    2746:	1c18      	adds	r0, r3, #0
    2748:	4b14      	ldr	r3, [pc, #80]	; (279c <system_clock_init+0xb8>)
    274a:	4798      	blx	r3
    274c:	1c3b      	adds	r3, r7, #0
    274e:	2206      	movs	r2, #6
    2750:	701a      	strb	r2, [r3, #0]
    2752:	1c3b      	adds	r3, r7, #0
    2754:	2201      	movs	r2, #1
    2756:	605a      	str	r2, [r3, #4]
    2758:	1c3b      	adds	r3, r7, #0
    275a:	2200      	movs	r2, #0
    275c:	721a      	strb	r2, [r3, #8]
    275e:	1c3b      	adds	r3, r7, #0
    2760:	2200      	movs	r2, #0
    2762:	725a      	strb	r2, [r3, #9]
    2764:	1c3b      	adds	r3, r7, #0
    2766:	2000      	movs	r0, #0
    2768:	1c19      	adds	r1, r3, #0
    276a:	4b0d      	ldr	r3, [pc, #52]	; (27a0 <system_clock_init+0xbc>)
    276c:	4798      	blx	r3
    276e:	2000      	movs	r0, #0
    2770:	4b0c      	ldr	r3, [pc, #48]	; (27a4 <system_clock_init+0xc0>)
    2772:	4798      	blx	r3
#endif
}
    2774:	46bd      	mov	sp, r7
    2776:	b01c      	add	sp, #112	; 0x70
    2778:	bd80      	pop	{r7, pc}
    277a:	46c0      	nop			; (mov r8, r8)
    277c:	40000800 	.word	0x40000800
    2780:	00002471 	.word	0x00002471
    2784:	000023dd 	.word	0x000023dd
    2788:	000025c1 	.word	0x000025c1
    278c:	00002639 	.word	0x00002639
    2790:	00002849 	.word	0x00002849
    2794:	000023fd 	.word	0x000023fd
    2798:	0000241d 	.word	0x0000241d
    279c:	000023b1 	.word	0x000023b1
    27a0:	00002879 	.word	0x00002879
    27a4:	00002999 	.word	0x00002999

000027a8 <system_gclk_is_syncing>:
 *
 * \retval true if the module has completed synchronization
 * \retval false if the module synchronization is ongoing
 */
static inline bool system_gclk_is_syncing(void)
{
    27a8:	b580      	push	{r7, lr}
    27aa:	af00      	add	r7, sp, #0
	if (GCLK->STATUS.reg & GCLK_STATUS_SYNCBUSY) {
    27ac:	4b06      	ldr	r3, [pc, #24]	; (27c8 <system_gclk_is_syncing+0x20>)
    27ae:	785b      	ldrb	r3, [r3, #1]
    27b0:	b2db      	uxtb	r3, r3
    27b2:	b2db      	uxtb	r3, r3
    27b4:	b25b      	sxtb	r3, r3
    27b6:	2b00      	cmp	r3, #0
    27b8:	da01      	bge.n	27be <system_gclk_is_syncing+0x16>
		return true;
    27ba:	2301      	movs	r3, #1
    27bc:	e000      	b.n	27c0 <system_gclk_is_syncing+0x18>
	}

	return false;
    27be:	2300      	movs	r3, #0
}
    27c0:	1c18      	adds	r0, r3, #0
    27c2:	46bd      	mov	sp, r7
    27c4:	bd80      	pop	{r7, pc}
    27c6:	46c0      	nop			; (mov r8, r8)
    27c8:	40000c00 	.word	0x40000c00

000027cc <system_apb_clock_set_mask>:
 * \retval STATUS_OK               The clock mask was set successfully
 */
static inline enum status_code system_apb_clock_set_mask(
		const enum system_clock_apb_bus bus,
		const uint32_t mask)
{
    27cc:	b580      	push	{r7, lr}
    27ce:	b082      	sub	sp, #8
    27d0:	af00      	add	r7, sp, #0
    27d2:	1c02      	adds	r2, r0, #0
    27d4:	6039      	str	r1, [r7, #0]
    27d6:	1dfb      	adds	r3, r7, #7
    27d8:	701a      	strb	r2, [r3, #0]
	switch (bus) {
    27da:	1dfb      	adds	r3, r7, #7
    27dc:	781b      	ldrb	r3, [r3, #0]
    27de:	2b01      	cmp	r3, #1
    27e0:	d00a      	beq.n	27f8 <system_apb_clock_set_mask+0x2c>
    27e2:	2b02      	cmp	r3, #2
    27e4:	d00f      	beq.n	2806 <system_apb_clock_set_mask+0x3a>
    27e6:	2b00      	cmp	r3, #0
    27e8:	d114      	bne.n	2814 <system_apb_clock_set_mask+0x48>
		case SYSTEM_CLOCK_APB_APBA:
			PM->APBAMASK.reg |= mask;
    27ea:	4b0e      	ldr	r3, [pc, #56]	; (2824 <system_apb_clock_set_mask+0x58>)
    27ec:	4a0d      	ldr	r2, [pc, #52]	; (2824 <system_apb_clock_set_mask+0x58>)
    27ee:	6991      	ldr	r1, [r2, #24]
    27f0:	683a      	ldr	r2, [r7, #0]
    27f2:	430a      	orrs	r2, r1
    27f4:	619a      	str	r2, [r3, #24]
			break;
    27f6:	e00f      	b.n	2818 <system_apb_clock_set_mask+0x4c>

		case SYSTEM_CLOCK_APB_APBB:
			PM->APBBMASK.reg |= mask;
    27f8:	4b0a      	ldr	r3, [pc, #40]	; (2824 <system_apb_clock_set_mask+0x58>)
    27fa:	4a0a      	ldr	r2, [pc, #40]	; (2824 <system_apb_clock_set_mask+0x58>)
    27fc:	69d1      	ldr	r1, [r2, #28]
    27fe:	683a      	ldr	r2, [r7, #0]
    2800:	430a      	orrs	r2, r1
    2802:	61da      	str	r2, [r3, #28]
			break;
    2804:	e008      	b.n	2818 <system_apb_clock_set_mask+0x4c>

		case SYSTEM_CLOCK_APB_APBC:
			PM->APBCMASK.reg |= mask;
    2806:	4b07      	ldr	r3, [pc, #28]	; (2824 <system_apb_clock_set_mask+0x58>)
    2808:	4a06      	ldr	r2, [pc, #24]	; (2824 <system_apb_clock_set_mask+0x58>)
    280a:	6a11      	ldr	r1, [r2, #32]
    280c:	683a      	ldr	r2, [r7, #0]
    280e:	430a      	orrs	r2, r1
    2810:	621a      	str	r2, [r3, #32]
			break;
    2812:	e001      	b.n	2818 <system_apb_clock_set_mask+0x4c>

		default:
			Assert(false);
			return STATUS_ERR_INVALID_ARG;
    2814:	2317      	movs	r3, #23
    2816:	e000      	b.n	281a <system_apb_clock_set_mask+0x4e>

	}

	return STATUS_OK;
    2818:	2300      	movs	r3, #0
}
    281a:	1c18      	adds	r0, r3, #0
    281c:	46bd      	mov	sp, r7
    281e:	b002      	add	sp, #8
    2820:	bd80      	pop	{r7, pc}
    2822:	46c0      	nop			; (mov r8, r8)
    2824:	40000400 	.word	0x40000400

00002828 <system_interrupt_enter_critical_section>:
 * count of the critical section nesting will be kept, so that global interrupts
 * are only re-enabled upon leaving the outermost nested critical section.
 *
 */
static inline void system_interrupt_enter_critical_section(void)
{
    2828:	b580      	push	{r7, lr}
    282a:	af00      	add	r7, sp, #0
	cpu_irq_enter_critical();
    282c:	4b01      	ldr	r3, [pc, #4]	; (2834 <system_interrupt_enter_critical_section+0xc>)
    282e:	4798      	blx	r3
}
    2830:	46bd      	mov	sp, r7
    2832:	bd80      	pop	{r7, pc}
    2834:	00000111 	.word	0x00000111

00002838 <system_interrupt_leave_critical_section>:
 * count of the critical section nesting will be kept, so that global interrupts
 * are only re-enabled upon leaving the outermost nested critical section.
 *
 */
static inline void system_interrupt_leave_critical_section(void)
{
    2838:	b580      	push	{r7, lr}
    283a:	af00      	add	r7, sp, #0
	cpu_irq_leave_critical();
    283c:	4b01      	ldr	r3, [pc, #4]	; (2844 <system_interrupt_leave_critical_section+0xc>)
    283e:	4798      	blx	r3
}
    2840:	46bd      	mov	sp, r7
    2842:	bd80      	pop	{r7, pc}
    2844:	00000161 	.word	0x00000161

00002848 <system_gclk_init>:
 *
 * Initializes the Generic Clock module, disabling and resetting all active
 * Generic Clock Generators and Channels to their power-on default values.
 */
void system_gclk_init(void)
{
    2848:	b580      	push	{r7, lr}
    284a:	af00      	add	r7, sp, #0
	/* Turn on the digital interface clock */
	system_apb_clock_set_mask(SYSTEM_CLOCK_APB_APBA, PM_APBAMASK_GCLK);
    284c:	2000      	movs	r0, #0
    284e:	2108      	movs	r1, #8
    2850:	4b07      	ldr	r3, [pc, #28]	; (2870 <system_gclk_init+0x28>)
    2852:	4798      	blx	r3

	/* Software reset the module to ensure it is re-initialized correctly */
	GCLK->CTRL.reg = GCLK_CTRL_SWRST;
    2854:	4b07      	ldr	r3, [pc, #28]	; (2874 <system_gclk_init+0x2c>)
    2856:	2201      	movs	r2, #1
    2858:	701a      	strb	r2, [r3, #0]
	while (GCLK->CTRL.reg & GCLK_CTRL_SWRST) {
    285a:	46c0      	nop			; (mov r8, r8)
    285c:	4b05      	ldr	r3, [pc, #20]	; (2874 <system_gclk_init+0x2c>)
    285e:	781b      	ldrb	r3, [r3, #0]
    2860:	b2db      	uxtb	r3, r3
    2862:	1c1a      	adds	r2, r3, #0
    2864:	2301      	movs	r3, #1
    2866:	4013      	ands	r3, r2
    2868:	d1f8      	bne.n	285c <system_gclk_init+0x14>
		/* Wait for reset to complete */
	}
}
    286a:	46bd      	mov	sp, r7
    286c:	bd80      	pop	{r7, pc}
    286e:	46c0      	nop			; (mov r8, r8)
    2870:	000027cd 	.word	0x000027cd
    2874:	40000c00 	.word	0x40000c00

00002878 <system_gclk_gen_set_config>:
 * \param[in] config     Configuration settings for the generator
 */
void system_gclk_gen_set_config(
		const uint8_t generator,
		struct system_gclk_gen_config *const config)
{
    2878:	b580      	push	{r7, lr}
    287a:	b086      	sub	sp, #24
    287c:	af00      	add	r7, sp, #0
    287e:	1c02      	adds	r2, r0, #0
    2880:	6039      	str	r1, [r7, #0]
    2882:	1dfb      	adds	r3, r7, #7
    2884:	701a      	strb	r2, [r3, #0]
	/* Sanity check arguments */
	Assert(config);

	/* Cache new register configurations to minimize sync requirements. */
	uint32_t new_genctrl_config = (generator << GCLK_GENCTRL_ID_Pos);
    2886:	1dfb      	adds	r3, r7, #7
    2888:	781b      	ldrb	r3, [r3, #0]
    288a:	617b      	str	r3, [r7, #20]
	uint32_t new_gendiv_config  = (generator << GCLK_GENDIV_ID_Pos);
    288c:	1dfb      	adds	r3, r7, #7
    288e:	781b      	ldrb	r3, [r3, #0]
    2890:	613b      	str	r3, [r7, #16]

	/* Select the requested source clock for the generator */
	new_genctrl_config |= config->source_clock << GCLK_GENCTRL_SRC_Pos;
    2892:	683b      	ldr	r3, [r7, #0]
    2894:	781b      	ldrb	r3, [r3, #0]
    2896:	021b      	lsls	r3, r3, #8
    2898:	1c1a      	adds	r2, r3, #0
    289a:	697b      	ldr	r3, [r7, #20]
    289c:	4313      	orrs	r3, r2
    289e:	617b      	str	r3, [r7, #20]

	/* Configure the clock to be either high or low when disabled */
	if (config->high_when_disabled) {
    28a0:	683b      	ldr	r3, [r7, #0]
    28a2:	785b      	ldrb	r3, [r3, #1]
    28a4:	2b00      	cmp	r3, #0
    28a6:	d004      	beq.n	28b2 <system_gclk_gen_set_config+0x3a>
		new_genctrl_config |= GCLK_GENCTRL_OOV;
    28a8:	697b      	ldr	r3, [r7, #20]
    28aa:	2280      	movs	r2, #128	; 0x80
    28ac:	02d2      	lsls	r2, r2, #11
    28ae:	4313      	orrs	r3, r2
    28b0:	617b      	str	r3, [r7, #20]
	}

	/* Configure if the clock output to I/O pin should be enabled. */
	if (config->output_enable) {
    28b2:	683b      	ldr	r3, [r7, #0]
    28b4:	7a5b      	ldrb	r3, [r3, #9]
    28b6:	2b00      	cmp	r3, #0
    28b8:	d004      	beq.n	28c4 <system_gclk_gen_set_config+0x4c>
		new_genctrl_config |= GCLK_GENCTRL_OE;
    28ba:	697b      	ldr	r3, [r7, #20]
    28bc:	2280      	movs	r2, #128	; 0x80
    28be:	0312      	lsls	r2, r2, #12
    28c0:	4313      	orrs	r3, r2
    28c2:	617b      	str	r3, [r7, #20]
	}

	/* Set division factor */
	if (config->division_factor > 1) {
    28c4:	683b      	ldr	r3, [r7, #0]
    28c6:	685b      	ldr	r3, [r3, #4]
    28c8:	2b01      	cmp	r3, #1
    28ca:	d92c      	bls.n	2926 <system_gclk_gen_set_config+0xae>
		/* Check if division is a power of two */
		if (((config->division_factor & (config->division_factor - 1)) == 0)) {
    28cc:	683b      	ldr	r3, [r7, #0]
    28ce:	685a      	ldr	r2, [r3, #4]
    28d0:	683b      	ldr	r3, [r7, #0]
    28d2:	685b      	ldr	r3, [r3, #4]
    28d4:	3b01      	subs	r3, #1
    28d6:	4013      	ands	r3, r2
    28d8:	d11a      	bne.n	2910 <system_gclk_gen_set_config+0x98>
			/* Determine the index of the highest bit set to get the
			 * division factor that must be loaded into the division
			 * register */

			uint32_t div2_count = 0;
    28da:	2300      	movs	r3, #0
    28dc:	60fb      	str	r3, [r7, #12]

			uint32_t mask;
			for (mask = (1UL << 1); mask < config->division_factor;
    28de:	2302      	movs	r3, #2
    28e0:	60bb      	str	r3, [r7, #8]
    28e2:	e005      	b.n	28f0 <system_gclk_gen_set_config+0x78>
						mask <<= 1) {
				div2_count++;
    28e4:	68fb      	ldr	r3, [r7, #12]
    28e6:	3301      	adds	r3, #1
    28e8:	60fb      	str	r3, [r7, #12]

			uint32_t div2_count = 0;

			uint32_t mask;
			for (mask = (1UL << 1); mask < config->division_factor;
						mask <<= 1) {
    28ea:	68bb      	ldr	r3, [r7, #8]
    28ec:	005b      	lsls	r3, r3, #1
    28ee:	60bb      	str	r3, [r7, #8]
			 * register */

			uint32_t div2_count = 0;

			uint32_t mask;
			for (mask = (1UL << 1); mask < config->division_factor;
    28f0:	683b      	ldr	r3, [r7, #0]
    28f2:	685a      	ldr	r2, [r3, #4]
    28f4:	68bb      	ldr	r3, [r7, #8]
    28f6:	429a      	cmp	r2, r3
    28f8:	d8f4      	bhi.n	28e4 <system_gclk_gen_set_config+0x6c>
						mask <<= 1) {
				div2_count++;
			}

			/* Set binary divider power of 2 division factor */
			new_gendiv_config  |= div2_count << GCLK_GENDIV_DIV_Pos;
    28fa:	68fb      	ldr	r3, [r7, #12]
    28fc:	021b      	lsls	r3, r3, #8
    28fe:	693a      	ldr	r2, [r7, #16]
    2900:	4313      	orrs	r3, r2
    2902:	613b      	str	r3, [r7, #16]
			new_genctrl_config |= GCLK_GENCTRL_DIVSEL;
    2904:	697b      	ldr	r3, [r7, #20]
    2906:	2280      	movs	r2, #128	; 0x80
    2908:	0352      	lsls	r2, r2, #13
    290a:	4313      	orrs	r3, r2
    290c:	617b      	str	r3, [r7, #20]
    290e:	e00a      	b.n	2926 <system_gclk_gen_set_config+0xae>
		} else {
			/* Set integer division factor */

			new_gendiv_config  |=
					(config->division_factor) << GCLK_GENDIV_DIV_Pos;
    2910:	683b      	ldr	r3, [r7, #0]
    2912:	685b      	ldr	r3, [r3, #4]
    2914:	021b      	lsls	r3, r3, #8
			new_gendiv_config  |= div2_count << GCLK_GENDIV_DIV_Pos;
			new_genctrl_config |= GCLK_GENCTRL_DIVSEL;
		} else {
			/* Set integer division factor */

			new_gendiv_config  |=
    2916:	693a      	ldr	r2, [r7, #16]
    2918:	4313      	orrs	r3, r2
    291a:	613b      	str	r3, [r7, #16]
					(config->division_factor) << GCLK_GENDIV_DIV_Pos;

			/* Enable non-binary division with increased duty cycle accuracy */
			new_genctrl_config |= GCLK_GENCTRL_IDC;
    291c:	697b      	ldr	r3, [r7, #20]
    291e:	2280      	movs	r2, #128	; 0x80
    2920:	0292      	lsls	r2, r2, #10
    2922:	4313      	orrs	r3, r2
    2924:	617b      	str	r3, [r7, #20]
		}

	}

	/* Enable or disable the clock in standby mode */
	if (config->run_in_standby) {
    2926:	683b      	ldr	r3, [r7, #0]
    2928:	7a1b      	ldrb	r3, [r3, #8]
    292a:	2b00      	cmp	r3, #0
    292c:	d004      	beq.n	2938 <system_gclk_gen_set_config+0xc0>
		new_genctrl_config |= GCLK_GENCTRL_RUNSTDBY;
    292e:	697b      	ldr	r3, [r7, #20]
    2930:	2280      	movs	r2, #128	; 0x80
    2932:	0392      	lsls	r2, r2, #14
    2934:	4313      	orrs	r3, r2
    2936:	617b      	str	r3, [r7, #20]
	}

	while (system_gclk_is_syncing()) {
    2938:	46c0      	nop			; (mov r8, r8)
    293a:	4b12      	ldr	r3, [pc, #72]	; (2984 <system_gclk_gen_set_config+0x10c>)
    293c:	4798      	blx	r3
    293e:	1e03      	subs	r3, r0, #0
    2940:	d1fb      	bne.n	293a <system_gclk_gen_set_config+0xc2>
		/* Wait for synchronization */
	};

	system_interrupt_enter_critical_section();
    2942:	4b11      	ldr	r3, [pc, #68]	; (2988 <system_gclk_gen_set_config+0x110>)
    2944:	4798      	blx	r3

	/* Select the correct generator */
	*((uint8_t*)&GCLK->GENDIV.reg) = generator;
    2946:	4a11      	ldr	r2, [pc, #68]	; (298c <system_gclk_gen_set_config+0x114>)
    2948:	1dfb      	adds	r3, r7, #7
    294a:	781b      	ldrb	r3, [r3, #0]
    294c:	7013      	strb	r3, [r2, #0]

	/* Write the new generator configuration */
	while (system_gclk_is_syncing()) {
    294e:	46c0      	nop			; (mov r8, r8)
    2950:	4b0c      	ldr	r3, [pc, #48]	; (2984 <system_gclk_gen_set_config+0x10c>)
    2952:	4798      	blx	r3
    2954:	1e03      	subs	r3, r0, #0
    2956:	d1fb      	bne.n	2950 <system_gclk_gen_set_config+0xd8>
		/* Wait for synchronization */
	};
	GCLK->GENDIV.reg  = new_gendiv_config;
    2958:	4b0d      	ldr	r3, [pc, #52]	; (2990 <system_gclk_gen_set_config+0x118>)
    295a:	693a      	ldr	r2, [r7, #16]
    295c:	609a      	str	r2, [r3, #8]

	while (system_gclk_is_syncing()) {
    295e:	46c0      	nop			; (mov r8, r8)
    2960:	4b08      	ldr	r3, [pc, #32]	; (2984 <system_gclk_gen_set_config+0x10c>)
    2962:	4798      	blx	r3
    2964:	1e03      	subs	r3, r0, #0
    2966:	d1fb      	bne.n	2960 <system_gclk_gen_set_config+0xe8>
		/* Wait for synchronization */
	};
	GCLK->GENCTRL.reg = new_genctrl_config | (GCLK->GENCTRL.reg & GCLK_GENCTRL_GENEN);
    2968:	4b09      	ldr	r3, [pc, #36]	; (2990 <system_gclk_gen_set_config+0x118>)
    296a:	4a09      	ldr	r2, [pc, #36]	; (2990 <system_gclk_gen_set_config+0x118>)
    296c:	6851      	ldr	r1, [r2, #4]
    296e:	2280      	movs	r2, #128	; 0x80
    2970:	0252      	lsls	r2, r2, #9
    2972:	4011      	ands	r1, r2
    2974:	697a      	ldr	r2, [r7, #20]
    2976:	430a      	orrs	r2, r1
    2978:	605a      	str	r2, [r3, #4]

	system_interrupt_leave_critical_section();
    297a:	4b06      	ldr	r3, [pc, #24]	; (2994 <system_gclk_gen_set_config+0x11c>)
    297c:	4798      	blx	r3
}
    297e:	46bd      	mov	sp, r7
    2980:	b006      	add	sp, #24
    2982:	bd80      	pop	{r7, pc}
    2984:	000027a9 	.word	0x000027a9
    2988:	00002829 	.word	0x00002829
    298c:	40000c08 	.word	0x40000c08
    2990:	40000c00 	.word	0x40000c00
    2994:	00002839 	.word	0x00002839

00002998 <system_gclk_gen_enable>:
 *
 * \param[in] generator  Generic Clock Generator index to enable
 */
void system_gclk_gen_enable(
		const uint8_t generator)
{
    2998:	b580      	push	{r7, lr}
    299a:	b082      	sub	sp, #8
    299c:	af00      	add	r7, sp, #0
    299e:	1c02      	adds	r2, r0, #0
    29a0:	1dfb      	adds	r3, r7, #7
    29a2:	701a      	strb	r2, [r3, #0]
	while (system_gclk_is_syncing()) {
    29a4:	46c0      	nop			; (mov r8, r8)
    29a6:	4b0d      	ldr	r3, [pc, #52]	; (29dc <system_gclk_gen_enable+0x44>)
    29a8:	4798      	blx	r3
    29aa:	1e03      	subs	r3, r0, #0
    29ac:	d1fb      	bne.n	29a6 <system_gclk_gen_enable+0xe>
		/* Wait for synchronization */
	};

	system_interrupt_enter_critical_section();
    29ae:	4b0c      	ldr	r3, [pc, #48]	; (29e0 <system_gclk_gen_enable+0x48>)
    29b0:	4798      	blx	r3

	/* Select the requested generator */
	*((uint8_t*)&GCLK->GENCTRL.reg) = generator;
    29b2:	4a0c      	ldr	r2, [pc, #48]	; (29e4 <system_gclk_gen_enable+0x4c>)
    29b4:	1dfb      	adds	r3, r7, #7
    29b6:	781b      	ldrb	r3, [r3, #0]
    29b8:	7013      	strb	r3, [r2, #0]
	while (system_gclk_is_syncing()) {
    29ba:	46c0      	nop			; (mov r8, r8)
    29bc:	4b07      	ldr	r3, [pc, #28]	; (29dc <system_gclk_gen_enable+0x44>)
    29be:	4798      	blx	r3
    29c0:	1e03      	subs	r3, r0, #0
    29c2:	d1fb      	bne.n	29bc <system_gclk_gen_enable+0x24>
		/* Wait for synchronization */
	};

	/* Enable generator */
	GCLK->GENCTRL.reg |= GCLK_GENCTRL_GENEN;
    29c4:	4b08      	ldr	r3, [pc, #32]	; (29e8 <system_gclk_gen_enable+0x50>)
    29c6:	4a08      	ldr	r2, [pc, #32]	; (29e8 <system_gclk_gen_enable+0x50>)
    29c8:	6852      	ldr	r2, [r2, #4]
    29ca:	2180      	movs	r1, #128	; 0x80
    29cc:	0249      	lsls	r1, r1, #9
    29ce:	430a      	orrs	r2, r1
    29d0:	605a      	str	r2, [r3, #4]

	system_interrupt_leave_critical_section();
    29d2:	4b06      	ldr	r3, [pc, #24]	; (29ec <system_gclk_gen_enable+0x54>)
    29d4:	4798      	blx	r3
}
    29d6:	46bd      	mov	sp, r7
    29d8:	b002      	add	sp, #8
    29da:	bd80      	pop	{r7, pc}
    29dc:	000027a9 	.word	0x000027a9
    29e0:	00002829 	.word	0x00002829
    29e4:	40000c04 	.word	0x40000c04
    29e8:	40000c00 	.word	0x40000c00
    29ec:	00002839 	.word	0x00002839

000029f0 <system_gclk_gen_get_hz>:
 *
 * \return The frequency of the generic clock generator, in Hz.
 */
uint32_t system_gclk_gen_get_hz(
		const uint8_t generator)
{
    29f0:	b580      	push	{r7, lr}
    29f2:	b086      	sub	sp, #24
    29f4:	af00      	add	r7, sp, #0
    29f6:	1c02      	adds	r2, r0, #0
    29f8:	1dfb      	adds	r3, r7, #7
    29fa:	701a      	strb	r2, [r3, #0]
	while (system_gclk_is_syncing()) {
    29fc:	46c0      	nop			; (mov r8, r8)
    29fe:	4b2e      	ldr	r3, [pc, #184]	; (2ab8 <system_gclk_gen_get_hz+0xc8>)
    2a00:	4798      	blx	r3
    2a02:	1e03      	subs	r3, r0, #0
    2a04:	d1fb      	bne.n	29fe <system_gclk_gen_get_hz+0xe>
		/* Wait for synchronization */
	};

	system_interrupt_enter_critical_section();
    2a06:	4b2d      	ldr	r3, [pc, #180]	; (2abc <system_gclk_gen_get_hz+0xcc>)
    2a08:	4798      	blx	r3

	/* Select the appropriate generator */
	*((uint8_t*)&GCLK->GENCTRL.reg) = generator;
    2a0a:	4a2d      	ldr	r2, [pc, #180]	; (2ac0 <system_gclk_gen_get_hz+0xd0>)
    2a0c:	1dfb      	adds	r3, r7, #7
    2a0e:	781b      	ldrb	r3, [r3, #0]
    2a10:	7013      	strb	r3, [r2, #0]
	while (system_gclk_is_syncing()) {
    2a12:	46c0      	nop			; (mov r8, r8)
    2a14:	4b28      	ldr	r3, [pc, #160]	; (2ab8 <system_gclk_gen_get_hz+0xc8>)
    2a16:	4798      	blx	r3
    2a18:	1e03      	subs	r3, r0, #0
    2a1a:	d1fb      	bne.n	2a14 <system_gclk_gen_get_hz+0x24>
		/* Wait for synchronization */
	};

	/* Get the frequency of the source connected to the GCLK generator */
	uint32_t gen_input_hz = system_clock_source_get_hz(
			(enum system_clock_source)GCLK->GENCTRL.bit.SRC);
    2a1c:	4b29      	ldr	r3, [pc, #164]	; (2ac4 <system_gclk_gen_get_hz+0xd4>)
    2a1e:	685b      	ldr	r3, [r3, #4]
    2a20:	0a1b      	lsrs	r3, r3, #8
    2a22:	1c1a      	adds	r2, r3, #0
    2a24:	231f      	movs	r3, #31
    2a26:	4013      	ands	r3, r2
    2a28:	b2db      	uxtb	r3, r3
	while (system_gclk_is_syncing()) {
		/* Wait for synchronization */
	};

	/* Get the frequency of the source connected to the GCLK generator */
	uint32_t gen_input_hz = system_clock_source_get_hz(
    2a2a:	1c18      	adds	r0, r3, #0
    2a2c:	4b26      	ldr	r3, [pc, #152]	; (2ac8 <system_gclk_gen_get_hz+0xd8>)
    2a2e:	4798      	blx	r3
    2a30:	1c03      	adds	r3, r0, #0
    2a32:	617b      	str	r3, [r7, #20]
			(enum system_clock_source)GCLK->GENCTRL.bit.SRC);

	*((uint8_t*)&GCLK->GENCTRL.reg) = generator;
    2a34:	4a22      	ldr	r2, [pc, #136]	; (2ac0 <system_gclk_gen_get_hz+0xd0>)
    2a36:	1dfb      	adds	r3, r7, #7
    2a38:	781b      	ldrb	r3, [r3, #0]
    2a3a:	7013      	strb	r3, [r2, #0]

	uint8_t divsel = GCLK->GENCTRL.bit.DIVSEL;
    2a3c:	4b21      	ldr	r3, [pc, #132]	; (2ac4 <system_gclk_gen_get_hz+0xd4>)
    2a3e:	685b      	ldr	r3, [r3, #4]
    2a40:	0d1b      	lsrs	r3, r3, #20
    2a42:	1c1a      	adds	r2, r3, #0
    2a44:	2301      	movs	r3, #1
    2a46:	4013      	ands	r3, r2
    2a48:	b2da      	uxtb	r2, r3
    2a4a:	2313      	movs	r3, #19
    2a4c:	18fb      	adds	r3, r7, r3
    2a4e:	701a      	strb	r2, [r3, #0]

	/* Select the appropriate generator division register */
	*((uint8_t*)&GCLK->GENDIV.reg) = generator;
    2a50:	4a1e      	ldr	r2, [pc, #120]	; (2acc <system_gclk_gen_get_hz+0xdc>)
    2a52:	1dfb      	adds	r3, r7, #7
    2a54:	781b      	ldrb	r3, [r3, #0]
    2a56:	7013      	strb	r3, [r2, #0]
	while (system_gclk_is_syncing()) {
    2a58:	46c0      	nop			; (mov r8, r8)
    2a5a:	4b17      	ldr	r3, [pc, #92]	; (2ab8 <system_gclk_gen_get_hz+0xc8>)
    2a5c:	4798      	blx	r3
    2a5e:	1e03      	subs	r3, r0, #0
    2a60:	d1fb      	bne.n	2a5a <system_gclk_gen_get_hz+0x6a>
		/* Wait for synchronization */
	};

	uint32_t divider = GCLK->GENDIV.bit.DIV;
    2a62:	4b18      	ldr	r3, [pc, #96]	; (2ac4 <system_gclk_gen_get_hz+0xd4>)
    2a64:	689b      	ldr	r3, [r3, #8]
    2a66:	0a1b      	lsrs	r3, r3, #8
    2a68:	1c1a      	adds	r2, r3, #0
    2a6a:	2300      	movs	r3, #0
    2a6c:	439a      	bics	r2, r3
    2a6e:	1c13      	adds	r3, r2, #0
    2a70:	b29b      	uxth	r3, r3
    2a72:	60fb      	str	r3, [r7, #12]

	system_interrupt_leave_critical_section();
    2a74:	4b16      	ldr	r3, [pc, #88]	; (2ad0 <system_gclk_gen_get_hz+0xe0>)
    2a76:	4798      	blx	r3

	/* Check if the generator is using fractional or binary division */
	if (!divsel && divider > 1) {
    2a78:	2313      	movs	r3, #19
    2a7a:	18fb      	adds	r3, r7, r3
    2a7c:	781b      	ldrb	r3, [r3, #0]
    2a7e:	2b00      	cmp	r3, #0
    2a80:	d109      	bne.n	2a96 <system_gclk_gen_get_hz+0xa6>
    2a82:	68fb      	ldr	r3, [r7, #12]
    2a84:	2b01      	cmp	r3, #1
    2a86:	d906      	bls.n	2a96 <system_gclk_gen_get_hz+0xa6>
		gen_input_hz /= divider;
    2a88:	4b12      	ldr	r3, [pc, #72]	; (2ad4 <system_gclk_gen_get_hz+0xe4>)
    2a8a:	6978      	ldr	r0, [r7, #20]
    2a8c:	68f9      	ldr	r1, [r7, #12]
    2a8e:	4798      	blx	r3
    2a90:	1c03      	adds	r3, r0, #0
    2a92:	617b      	str	r3, [r7, #20]
    2a94:	e00a      	b.n	2aac <system_gclk_gen_get_hz+0xbc>
	} else if (divsel) {
    2a96:	2313      	movs	r3, #19
    2a98:	18fb      	adds	r3, r7, r3
    2a9a:	781b      	ldrb	r3, [r3, #0]
    2a9c:	2b00      	cmp	r3, #0
    2a9e:	d005      	beq.n	2aac <system_gclk_gen_get_hz+0xbc>
		gen_input_hz >>= (divider+1);
    2aa0:	68fb      	ldr	r3, [r7, #12]
    2aa2:	3301      	adds	r3, #1
    2aa4:	1c1a      	adds	r2, r3, #0
    2aa6:	697b      	ldr	r3, [r7, #20]
    2aa8:	40d3      	lsrs	r3, r2
    2aaa:	617b      	str	r3, [r7, #20]
	}

	return gen_input_hz;
    2aac:	697b      	ldr	r3, [r7, #20]
}
    2aae:	1c18      	adds	r0, r3, #0
    2ab0:	46bd      	mov	sp, r7
    2ab2:	b006      	add	sp, #24
    2ab4:	bd80      	pop	{r7, pc}
    2ab6:	46c0      	nop			; (mov r8, r8)
    2ab8:	000027a9 	.word	0x000027a9
    2abc:	00002829 	.word	0x00002829
    2ac0:	40000c04 	.word	0x40000c04
    2ac4:	40000c00 	.word	0x40000c00
    2ac8:	00002501 	.word	0x00002501
    2acc:	40000c08 	.word	0x40000c08
    2ad0:	00002839 	.word	0x00002839
    2ad4:	00003ded 	.word	0x00003ded

00002ad8 <system_gclk_chan_set_config>:
 *
 */
void system_gclk_chan_set_config(
		const uint8_t channel,
		struct system_gclk_chan_config *const config)
{
    2ad8:	b580      	push	{r7, lr}
    2ada:	b084      	sub	sp, #16
    2adc:	af00      	add	r7, sp, #0
    2ade:	1c02      	adds	r2, r0, #0
    2ae0:	6039      	str	r1, [r7, #0]
    2ae2:	1dfb      	adds	r3, r7, #7
    2ae4:	701a      	strb	r2, [r3, #0]
	/* Sanity check arguments */
	Assert(config);

	/* Cache the new config to reduce sync requirements */
	uint32_t new_clkctrl_config = (channel << GCLK_CLKCTRL_ID_Pos);
    2ae6:	1dfb      	adds	r3, r7, #7
    2ae8:	781b      	ldrb	r3, [r3, #0]
    2aea:	60fb      	str	r3, [r7, #12]

	/* Select the desired generic clock generator */
	new_clkctrl_config |= config->source_generator << GCLK_CLKCTRL_GEN_Pos;
    2aec:	683b      	ldr	r3, [r7, #0]
    2aee:	781b      	ldrb	r3, [r3, #0]
    2af0:	021b      	lsls	r3, r3, #8
    2af2:	1c1a      	adds	r2, r3, #0
    2af4:	68fb      	ldr	r3, [r7, #12]
    2af6:	4313      	orrs	r3, r2
    2af8:	60fb      	str	r3, [r7, #12]

	/* Disable generic clock channel */
	system_gclk_chan_disable(channel);
    2afa:	1dfb      	adds	r3, r7, #7
    2afc:	781b      	ldrb	r3, [r3, #0]
    2afe:	1c18      	adds	r0, r3, #0
    2b00:	4b04      	ldr	r3, [pc, #16]	; (2b14 <system_gclk_chan_set_config+0x3c>)
    2b02:	4798      	blx	r3

	/* Write the new configuration */
	GCLK->CLKCTRL.reg = new_clkctrl_config;
    2b04:	4b04      	ldr	r3, [pc, #16]	; (2b18 <system_gclk_chan_set_config+0x40>)
    2b06:	68fa      	ldr	r2, [r7, #12]
    2b08:	b292      	uxth	r2, r2
    2b0a:	805a      	strh	r2, [r3, #2]
}
    2b0c:	46bd      	mov	sp, r7
    2b0e:	b004      	add	sp, #16
    2b10:	bd80      	pop	{r7, pc}
    2b12:	46c0      	nop			; (mov r8, r8)
    2b14:	00002b61 	.word	0x00002b61
    2b18:	40000c00 	.word	0x40000c00

00002b1c <system_gclk_chan_enable>:
 *
 * \param[in] channel   Generic Clock channel to enable
 */
void system_gclk_chan_enable(
		const uint8_t channel)
{
    2b1c:	b580      	push	{r7, lr}
    2b1e:	b082      	sub	sp, #8
    2b20:	af00      	add	r7, sp, #0
    2b22:	1c02      	adds	r2, r0, #0
    2b24:	1dfb      	adds	r3, r7, #7
    2b26:	701a      	strb	r2, [r3, #0]
	system_interrupt_enter_critical_section();
    2b28:	4b09      	ldr	r3, [pc, #36]	; (2b50 <system_gclk_chan_enable+0x34>)
    2b2a:	4798      	blx	r3

	/* Select the requested generator channel */
	*((uint8_t*)&GCLK->CLKCTRL.reg) = channel;
    2b2c:	4a09      	ldr	r2, [pc, #36]	; (2b54 <system_gclk_chan_enable+0x38>)
    2b2e:	1dfb      	adds	r3, r7, #7
    2b30:	781b      	ldrb	r3, [r3, #0]
    2b32:	7013      	strb	r3, [r2, #0]

	/* Enable the generic clock */
	GCLK->CLKCTRL.reg |= GCLK_CLKCTRL_CLKEN;
    2b34:	4908      	ldr	r1, [pc, #32]	; (2b58 <system_gclk_chan_enable+0x3c>)
    2b36:	4b08      	ldr	r3, [pc, #32]	; (2b58 <system_gclk_chan_enable+0x3c>)
    2b38:	885b      	ldrh	r3, [r3, #2]
    2b3a:	b29b      	uxth	r3, r3
    2b3c:	2280      	movs	r2, #128	; 0x80
    2b3e:	01d2      	lsls	r2, r2, #7
    2b40:	4313      	orrs	r3, r2
    2b42:	b29b      	uxth	r3, r3
    2b44:	804b      	strh	r3, [r1, #2]

	system_interrupt_leave_critical_section();
    2b46:	4b05      	ldr	r3, [pc, #20]	; (2b5c <system_gclk_chan_enable+0x40>)
    2b48:	4798      	blx	r3
}
    2b4a:	46bd      	mov	sp, r7
    2b4c:	b002      	add	sp, #8
    2b4e:	bd80      	pop	{r7, pc}
    2b50:	00002829 	.word	0x00002829
    2b54:	40000c02 	.word	0x40000c02
    2b58:	40000c00 	.word	0x40000c00
    2b5c:	00002839 	.word	0x00002839

00002b60 <system_gclk_chan_disable>:
 *
 * \param[in] channel  Generic Clock channel to disable
 */
void system_gclk_chan_disable(
		const uint8_t channel)
{
    2b60:	b580      	push	{r7, lr}
    2b62:	b084      	sub	sp, #16
    2b64:	af00      	add	r7, sp, #0
    2b66:	1c02      	adds	r2, r0, #0
    2b68:	1dfb      	adds	r3, r7, #7
    2b6a:	701a      	strb	r2, [r3, #0]
	system_interrupt_enter_critical_section();
    2b6c:	4b1d      	ldr	r3, [pc, #116]	; (2be4 <system_gclk_chan_disable+0x84>)
    2b6e:	4798      	blx	r3

	/* Select the requested generator channel */
	*((uint8_t*)&GCLK->CLKCTRL.reg) = channel;
    2b70:	4a1d      	ldr	r2, [pc, #116]	; (2be8 <system_gclk_chan_disable+0x88>)
    2b72:	1dfb      	adds	r3, r7, #7
    2b74:	781b      	ldrb	r3, [r3, #0]
    2b76:	7013      	strb	r3, [r2, #0]

	/* Sanity check WRTLOCK */
	Assert(!GCLK->CLKCTRL.bit.WRTLOCK);

	/* Switch to known-working source so that the channel can be disabled */
	uint32_t prev_gen_id = GCLK->CLKCTRL.bit.GEN;
    2b78:	4b1c      	ldr	r3, [pc, #112]	; (2bec <system_gclk_chan_disable+0x8c>)
    2b7a:	885b      	ldrh	r3, [r3, #2]
    2b7c:	b29b      	uxth	r3, r3
    2b7e:	0a1b      	lsrs	r3, r3, #8
    2b80:	1c1a      	adds	r2, r3, #0
    2b82:	230f      	movs	r3, #15
    2b84:	4013      	ands	r3, r2
    2b86:	b2db      	uxtb	r3, r3
    2b88:	60fb      	str	r3, [r7, #12]
	GCLK->CLKCTRL.bit.GEN = 0;
    2b8a:	4b18      	ldr	r3, [pc, #96]	; (2bec <system_gclk_chan_disable+0x8c>)
    2b8c:	885a      	ldrh	r2, [r3, #2]
    2b8e:	4918      	ldr	r1, [pc, #96]	; (2bf0 <system_gclk_chan_disable+0x90>)
    2b90:	400a      	ands	r2, r1
    2b92:	805a      	strh	r2, [r3, #2]

	/* Disable the generic clock */
	GCLK->CLKCTRL.reg &= ~GCLK_CLKCTRL_CLKEN;
    2b94:	4a15      	ldr	r2, [pc, #84]	; (2bec <system_gclk_chan_disable+0x8c>)
    2b96:	4b15      	ldr	r3, [pc, #84]	; (2bec <system_gclk_chan_disable+0x8c>)
    2b98:	885b      	ldrh	r3, [r3, #2]
    2b9a:	b29b      	uxth	r3, r3
    2b9c:	4915      	ldr	r1, [pc, #84]	; (2bf4 <system_gclk_chan_disable+0x94>)
    2b9e:	400b      	ands	r3, r1
    2ba0:	b29b      	uxth	r3, r3
    2ba2:	8053      	strh	r3, [r2, #2]
	while (GCLK->CLKCTRL.reg & GCLK_CLKCTRL_CLKEN) {
    2ba4:	46c0      	nop			; (mov r8, r8)
    2ba6:	4b11      	ldr	r3, [pc, #68]	; (2bec <system_gclk_chan_disable+0x8c>)
    2ba8:	885b      	ldrh	r3, [r3, #2]
    2baa:	b29b      	uxth	r3, r3
    2bac:	1c1a      	adds	r2, r3, #0
    2bae:	2380      	movs	r3, #128	; 0x80
    2bb0:	01db      	lsls	r3, r3, #7
    2bb2:	4013      	ands	r3, r2
    2bb4:	d1f7      	bne.n	2ba6 <system_gclk_chan_disable+0x46>
		/* Wait for clock to become disabled */
	}

	/* Restore previous configured clock generator */
	GCLK->CLKCTRL.bit.GEN = prev_gen_id;
    2bb6:	4b0d      	ldr	r3, [pc, #52]	; (2bec <system_gclk_chan_disable+0x8c>)
    2bb8:	68fa      	ldr	r2, [r7, #12]
    2bba:	b2d2      	uxtb	r2, r2
    2bbc:	1c11      	adds	r1, r2, #0
    2bbe:	220f      	movs	r2, #15
    2bc0:	400a      	ands	r2, r1
    2bc2:	b2d2      	uxtb	r2, r2
    2bc4:	1c11      	adds	r1, r2, #0
    2bc6:	220f      	movs	r2, #15
    2bc8:	400a      	ands	r2, r1
    2bca:	0210      	lsls	r0, r2, #8
    2bcc:	885a      	ldrh	r2, [r3, #2]
    2bce:	4908      	ldr	r1, [pc, #32]	; (2bf0 <system_gclk_chan_disable+0x90>)
    2bd0:	400a      	ands	r2, r1
    2bd2:	1c11      	adds	r1, r2, #0
    2bd4:	1c02      	adds	r2, r0, #0
    2bd6:	430a      	orrs	r2, r1
    2bd8:	805a      	strh	r2, [r3, #2]

	system_interrupt_leave_critical_section();
    2bda:	4b07      	ldr	r3, [pc, #28]	; (2bf8 <system_gclk_chan_disable+0x98>)
    2bdc:	4798      	blx	r3
}
    2bde:	46bd      	mov	sp, r7
    2be0:	b004      	add	sp, #16
    2be2:	bd80      	pop	{r7, pc}
    2be4:	00002829 	.word	0x00002829
    2be8:	40000c02 	.word	0x40000c02
    2bec:	40000c00 	.word	0x40000c00
    2bf0:	fffff0ff 	.word	0xfffff0ff
    2bf4:	ffffbfff 	.word	0xffffbfff
    2bf8:	00002839 	.word	0x00002839

00002bfc <system_gclk_chan_get_hz>:
 *
 * \return The frequency of the generic clock channel, in Hz.
 */
uint32_t system_gclk_chan_get_hz(
		const uint8_t channel)
{
    2bfc:	b580      	push	{r7, lr}
    2bfe:	b084      	sub	sp, #16
    2c00:	af00      	add	r7, sp, #0
    2c02:	1c02      	adds	r2, r0, #0
    2c04:	1dfb      	adds	r3, r7, #7
    2c06:	701a      	strb	r2, [r3, #0]
	uint8_t gen_id;

	system_interrupt_enter_critical_section();
    2c08:	4b0e      	ldr	r3, [pc, #56]	; (2c44 <system_gclk_chan_get_hz+0x48>)
    2c0a:	4798      	blx	r3

	/* Select the requested generic clock channel */
	*((uint8_t*)&GCLK->CLKCTRL.reg) = channel;
    2c0c:	4a0e      	ldr	r2, [pc, #56]	; (2c48 <system_gclk_chan_get_hz+0x4c>)
    2c0e:	1dfb      	adds	r3, r7, #7
    2c10:	781b      	ldrb	r3, [r3, #0]
    2c12:	7013      	strb	r3, [r2, #0]
	gen_id = GCLK->CLKCTRL.bit.GEN;
    2c14:	4b0d      	ldr	r3, [pc, #52]	; (2c4c <system_gclk_chan_get_hz+0x50>)
    2c16:	885b      	ldrh	r3, [r3, #2]
    2c18:	b29b      	uxth	r3, r3
    2c1a:	0a1b      	lsrs	r3, r3, #8
    2c1c:	1c1a      	adds	r2, r3, #0
    2c1e:	230f      	movs	r3, #15
    2c20:	4013      	ands	r3, r2
    2c22:	b2da      	uxtb	r2, r3
    2c24:	230f      	movs	r3, #15
    2c26:	18fb      	adds	r3, r7, r3
    2c28:	701a      	strb	r2, [r3, #0]

	system_interrupt_leave_critical_section();
    2c2a:	4b09      	ldr	r3, [pc, #36]	; (2c50 <system_gclk_chan_get_hz+0x54>)
    2c2c:	4798      	blx	r3

	/* Return the clock speed of the associated GCLK generator */
	return system_gclk_gen_get_hz(gen_id);
    2c2e:	230f      	movs	r3, #15
    2c30:	18fb      	adds	r3, r7, r3
    2c32:	781b      	ldrb	r3, [r3, #0]
    2c34:	1c18      	adds	r0, r3, #0
    2c36:	4b07      	ldr	r3, [pc, #28]	; (2c54 <system_gclk_chan_get_hz+0x58>)
    2c38:	4798      	blx	r3
    2c3a:	1c03      	adds	r3, r0, #0
}
    2c3c:	1c18      	adds	r0, r3, #0
    2c3e:	46bd      	mov	sp, r7
    2c40:	b004      	add	sp, #16
    2c42:	bd80      	pop	{r7, pc}
    2c44:	00002829 	.word	0x00002829
    2c48:	40000c02 	.word	0x40000c02
    2c4c:	40000c00 	.word	0x40000c00
    2c50:	00002839 	.word	0x00002839
    2c54:	000029f1 	.word	0x000029f1

00002c58 <system_pinmux_get_group_from_gpio_pin>:
 *
 * \return Base address of the associated PORT module.
 */
static inline PortGroup* system_pinmux_get_group_from_gpio_pin(
		const uint8_t gpio_pin)
{
    2c58:	b580      	push	{r7, lr}
    2c5a:	b084      	sub	sp, #16
    2c5c:	af00      	add	r7, sp, #0
    2c5e:	1c02      	adds	r2, r0, #0
    2c60:	1dfb      	adds	r3, r7, #7
    2c62:	701a      	strb	r2, [r3, #0]
	uint8_t port_index  = (gpio_pin / 128);
    2c64:	230f      	movs	r3, #15
    2c66:	18fb      	adds	r3, r7, r3
    2c68:	1dfa      	adds	r2, r7, #7
    2c6a:	7812      	ldrb	r2, [r2, #0]
    2c6c:	09d2      	lsrs	r2, r2, #7
    2c6e:	701a      	strb	r2, [r3, #0]
	uint8_t group_index = (gpio_pin / 32);
    2c70:	230e      	movs	r3, #14
    2c72:	18fb      	adds	r3, r7, r3
    2c74:	1dfa      	adds	r2, r7, #7
    2c76:	7812      	ldrb	r2, [r2, #0]
    2c78:	0952      	lsrs	r2, r2, #5
    2c7a:	701a      	strb	r2, [r3, #0]

	/* Array of available ports. */
	Port *const ports[PORT_INST_NUM] = PORT_INSTS;
    2c7c:	4b0d      	ldr	r3, [pc, #52]	; (2cb4 <system_pinmux_get_group_from_gpio_pin+0x5c>)
    2c7e:	60bb      	str	r3, [r7, #8]

	if (port_index < PORT_INST_NUM) {
    2c80:	230f      	movs	r3, #15
    2c82:	18fb      	adds	r3, r7, r3
    2c84:	781b      	ldrb	r3, [r3, #0]
    2c86:	2b00      	cmp	r3, #0
    2c88:	d10f      	bne.n	2caa <system_pinmux_get_group_from_gpio_pin+0x52>
		return &(ports[port_index]->Group[group_index]);
    2c8a:	230f      	movs	r3, #15
    2c8c:	18fb      	adds	r3, r7, r3
    2c8e:	781b      	ldrb	r3, [r3, #0]
    2c90:	009b      	lsls	r3, r3, #2
    2c92:	2210      	movs	r2, #16
    2c94:	4694      	mov	ip, r2
    2c96:	44bc      	add	ip, r7
    2c98:	4463      	add	r3, ip
    2c9a:	3b08      	subs	r3, #8
    2c9c:	681a      	ldr	r2, [r3, #0]
    2c9e:	230e      	movs	r3, #14
    2ca0:	18fb      	adds	r3, r7, r3
    2ca2:	781b      	ldrb	r3, [r3, #0]
    2ca4:	01db      	lsls	r3, r3, #7
    2ca6:	18d3      	adds	r3, r2, r3
    2ca8:	e000      	b.n	2cac <system_pinmux_get_group_from_gpio_pin+0x54>
	} else {
		Assert(false);
		return NULL;
    2caa:	2300      	movs	r3, #0
	}
}
    2cac:	1c18      	adds	r0, r3, #0
    2cae:	46bd      	mov	sp, r7
    2cb0:	b004      	add	sp, #16
    2cb2:	bd80      	pop	{r7, pc}
    2cb4:	41004400 	.word	0x41004400

00002cb8 <_system_pinmux_config>:
 */
static void _system_pinmux_config(
		PortGroup *const port,
		const uint32_t pin_mask,
		const struct system_pinmux_config *const config)
{
    2cb8:	b580      	push	{r7, lr}
    2cba:	b088      	sub	sp, #32
    2cbc:	af00      	add	r7, sp, #0
    2cbe:	60f8      	str	r0, [r7, #12]
    2cc0:	60b9      	str	r1, [r7, #8]
    2cc2:	607a      	str	r2, [r7, #4]
	Assert(port);
	Assert(config);

	/* Track the configuration bits into a temporary variable before writing */
	uint32_t pin_cfg = 0;
    2cc4:	2300      	movs	r3, #0
    2cc6:	61fb      	str	r3, [r7, #28]

	/* Enabled powersave mode, don't create configuration */
	if (!config->powersave) {
    2cc8:	687b      	ldr	r3, [r7, #4]
    2cca:	78db      	ldrb	r3, [r3, #3]
    2ccc:	2201      	movs	r2, #1
    2cce:	4053      	eors	r3, r2
    2cd0:	b2db      	uxtb	r3, r3
    2cd2:	2b00      	cmp	r3, #0
    2cd4:	d035      	beq.n	2d42 <_system_pinmux_config+0x8a>
		/* Enable the pin peripheral MUX flag if non-GPIO selected (pinmux will
		 * be written later) and store the new MUX mask */
		if (config->mux_position != SYSTEM_PINMUX_GPIO) {
    2cd6:	687b      	ldr	r3, [r7, #4]
    2cd8:	781b      	ldrb	r3, [r3, #0]
    2cda:	2b80      	cmp	r3, #128	; 0x80
    2cdc:	d00b      	beq.n	2cf6 <_system_pinmux_config+0x3e>
			pin_cfg |= PORT_WRCONFIG_PMUXEN;
    2cde:	69fb      	ldr	r3, [r7, #28]
    2ce0:	2280      	movs	r2, #128	; 0x80
    2ce2:	0252      	lsls	r2, r2, #9
    2ce4:	4313      	orrs	r3, r2
    2ce6:	61fb      	str	r3, [r7, #28]
			pin_cfg |= (config->mux_position << PORT_WRCONFIG_PMUX_Pos);
    2ce8:	687b      	ldr	r3, [r7, #4]
    2cea:	781b      	ldrb	r3, [r3, #0]
    2cec:	061b      	lsls	r3, r3, #24
    2cee:	1c1a      	adds	r2, r3, #0
    2cf0:	69fb      	ldr	r3, [r7, #28]
    2cf2:	4313      	orrs	r3, r2
    2cf4:	61fb      	str	r3, [r7, #28]
		}

		/* Check if the user has requested that the input buffer be enabled */
		if ((config->direction == SYSTEM_PINMUX_PIN_DIR_INPUT) ||
    2cf6:	687b      	ldr	r3, [r7, #4]
    2cf8:	785b      	ldrb	r3, [r3, #1]
    2cfa:	2b00      	cmp	r3, #0
    2cfc:	d003      	beq.n	2d06 <_system_pinmux_config+0x4e>
				(config->direction == SYSTEM_PINMUX_PIN_DIR_OUTPUT_WITH_READBACK)) {
    2cfe:	687b      	ldr	r3, [r7, #4]
    2d00:	785b      	ldrb	r3, [r3, #1]
			pin_cfg |= PORT_WRCONFIG_PMUXEN;
			pin_cfg |= (config->mux_position << PORT_WRCONFIG_PMUX_Pos);
		}

		/* Check if the user has requested that the input buffer be enabled */
		if ((config->direction == SYSTEM_PINMUX_PIN_DIR_INPUT) ||
    2d02:	2b02      	cmp	r3, #2
    2d04:	d110      	bne.n	2d28 <_system_pinmux_config+0x70>
				(config->direction == SYSTEM_PINMUX_PIN_DIR_OUTPUT_WITH_READBACK)) {
			/* Enable input buffer flag */
			pin_cfg |= PORT_WRCONFIG_INEN;
    2d06:	69fb      	ldr	r3, [r7, #28]
    2d08:	2280      	movs	r2, #128	; 0x80
    2d0a:	0292      	lsls	r2, r2, #10
    2d0c:	4313      	orrs	r3, r2
    2d0e:	61fb      	str	r3, [r7, #28]

			/* Enable pull-up/pull-down control flag if requested */
			if (config->input_pull != SYSTEM_PINMUX_PIN_PULL_NONE) {
    2d10:	687b      	ldr	r3, [r7, #4]
    2d12:	789b      	ldrb	r3, [r3, #2]
    2d14:	2b00      	cmp	r3, #0
    2d16:	d004      	beq.n	2d22 <_system_pinmux_config+0x6a>
				pin_cfg |= PORT_WRCONFIG_PULLEN;
    2d18:	69fb      	ldr	r3, [r7, #28]
    2d1a:	2280      	movs	r2, #128	; 0x80
    2d1c:	02d2      	lsls	r2, r2, #11
    2d1e:	4313      	orrs	r3, r2
    2d20:	61fb      	str	r3, [r7, #28]
			}

			/* Clear the port DIR bits to disable the output buffer */
			port->DIRCLR.reg = pin_mask;
    2d22:	68fb      	ldr	r3, [r7, #12]
    2d24:	68ba      	ldr	r2, [r7, #8]
    2d26:	605a      	str	r2, [r3, #4]
		}

		/* Check if the user has requested that the output buffer be enabled */
		if ((config->direction == SYSTEM_PINMUX_PIN_DIR_OUTPUT) ||
    2d28:	687b      	ldr	r3, [r7, #4]
    2d2a:	785b      	ldrb	r3, [r3, #1]
    2d2c:	2b01      	cmp	r3, #1
    2d2e:	d003      	beq.n	2d38 <_system_pinmux_config+0x80>
				(config->direction == SYSTEM_PINMUX_PIN_DIR_OUTPUT_WITH_READBACK)) {
    2d30:	687b      	ldr	r3, [r7, #4]
    2d32:	785b      	ldrb	r3, [r3, #1]
			/* Clear the port DIR bits to disable the output buffer */
			port->DIRCLR.reg = pin_mask;
		}

		/* Check if the user has requested that the output buffer be enabled */
		if ((config->direction == SYSTEM_PINMUX_PIN_DIR_OUTPUT) ||
    2d34:	2b02      	cmp	r3, #2
    2d36:	d107      	bne.n	2d48 <_system_pinmux_config+0x90>
				(config->direction == SYSTEM_PINMUX_PIN_DIR_OUTPUT_WITH_READBACK)) {
			/* Cannot use a pullup if the output driver is enabled,
			 * if requested the input buffer can only sample the current
			 * output state */
			pin_cfg &= ~PORT_WRCONFIG_PULLEN;
    2d38:	69fb      	ldr	r3, [r7, #28]
    2d3a:	4a21      	ldr	r2, [pc, #132]	; (2dc0 <_system_pinmux_config+0x108>)
    2d3c:	4013      	ands	r3, r2
    2d3e:	61fb      	str	r3, [r7, #28]
    2d40:	e002      	b.n	2d48 <_system_pinmux_config+0x90>
		}
	} else {
		port->DIRCLR.reg = pin_mask;
    2d42:	68fb      	ldr	r3, [r7, #12]
    2d44:	68ba      	ldr	r2, [r7, #8]
    2d46:	605a      	str	r2, [r3, #4]
	}

	/* The Write Configuration register (WRCONFIG) requires the
	 * pins to to grouped into two 16-bit half-words - split them out here */
	uint32_t lower_pin_mask = (pin_mask & 0xFFFF);
    2d48:	68bb      	ldr	r3, [r7, #8]
    2d4a:	041b      	lsls	r3, r3, #16
    2d4c:	0c1b      	lsrs	r3, r3, #16
    2d4e:	61bb      	str	r3, [r7, #24]
	uint32_t upper_pin_mask = (pin_mask >> 16);
    2d50:	68bb      	ldr	r3, [r7, #8]
    2d52:	0c1b      	lsrs	r3, r3, #16
    2d54:	617b      	str	r3, [r7, #20]

	/* Configure the lower 16-bits of the port to the desired configuration,
	 * including the pin peripheral multiplexer just in case it is enabled */
	port->WRCONFIG.reg
		= (lower_pin_mask << PORT_WRCONFIG_PINMASK_Pos) |
    2d56:	69ba      	ldr	r2, [r7, #24]
    2d58:	69fb      	ldr	r3, [r7, #28]
    2d5a:	4313      	orrs	r3, r2
			pin_cfg | PORT_WRCONFIG_WRPMUX | PORT_WRCONFIG_WRPINCFG;
    2d5c:	22a0      	movs	r2, #160	; 0xa0
    2d5e:	05d2      	lsls	r2, r2, #23
    2d60:	431a      	orrs	r2, r3
	uint32_t upper_pin_mask = (pin_mask >> 16);

	/* Configure the lower 16-bits of the port to the desired configuration,
	 * including the pin peripheral multiplexer just in case it is enabled */
	port->WRCONFIG.reg
		= (lower_pin_mask << PORT_WRCONFIG_PINMASK_Pos) |
    2d62:	68fb      	ldr	r3, [r7, #12]
    2d64:	629a      	str	r2, [r3, #40]	; 0x28
			pin_cfg | PORT_WRCONFIG_WRPMUX | PORT_WRCONFIG_WRPINCFG;

	/* Configure the upper 16-bits of the port to the desired configuration,
	 * including the pin peripheral multiplexer just in case it is enabled */
	port->WRCONFIG.reg
		= (upper_pin_mask << PORT_WRCONFIG_PINMASK_Pos) |
    2d66:	697a      	ldr	r2, [r7, #20]
    2d68:	69fb      	ldr	r3, [r7, #28]
    2d6a:	4313      	orrs	r3, r2
			pin_cfg | PORT_WRCONFIG_WRPMUX | PORT_WRCONFIG_WRPINCFG |
    2d6c:	22d0      	movs	r2, #208	; 0xd0
    2d6e:	0612      	lsls	r2, r2, #24
    2d70:	431a      	orrs	r2, r3
			pin_cfg | PORT_WRCONFIG_WRPMUX | PORT_WRCONFIG_WRPINCFG;

	/* Configure the upper 16-bits of the port to the desired configuration,
	 * including the pin peripheral multiplexer just in case it is enabled */
	port->WRCONFIG.reg
		= (upper_pin_mask << PORT_WRCONFIG_PINMASK_Pos) |
    2d72:	68fb      	ldr	r3, [r7, #12]
    2d74:	629a      	str	r2, [r3, #40]	; 0x28
			pin_cfg | PORT_WRCONFIG_WRPMUX | PORT_WRCONFIG_WRPINCFG |
			PORT_WRCONFIG_HWSEL;

	if(!config->powersave) {
    2d76:	687b      	ldr	r3, [r7, #4]
    2d78:	78db      	ldrb	r3, [r3, #3]
    2d7a:	2201      	movs	r2, #1
    2d7c:	4053      	eors	r3, r2
    2d7e:	b2db      	uxtb	r3, r3
    2d80:	2b00      	cmp	r3, #0
    2d82:	d01a      	beq.n	2dba <_system_pinmux_config+0x102>
		/* Set the pull-up state once the port pins are configured if one was
		 * requested and it does not violate the valid set of port
		 * configurations */
		if (pin_cfg & PORT_WRCONFIG_PULLEN) {
    2d84:	69fa      	ldr	r2, [r7, #28]
    2d86:	2380      	movs	r3, #128	; 0x80
    2d88:	02db      	lsls	r3, r3, #11
    2d8a:	4013      	ands	r3, r2
    2d8c:	d00a      	beq.n	2da4 <_system_pinmux_config+0xec>
			/* Set the OUT register bits to enable the pullup if requested,
			 * clear to enable pull-down */
			if (config->input_pull == SYSTEM_PINMUX_PIN_PULL_UP) {
    2d8e:	687b      	ldr	r3, [r7, #4]
    2d90:	789b      	ldrb	r3, [r3, #2]
    2d92:	2b01      	cmp	r3, #1
    2d94:	d103      	bne.n	2d9e <_system_pinmux_config+0xe6>
				port->OUTSET.reg = pin_mask;
    2d96:	68fb      	ldr	r3, [r7, #12]
    2d98:	68ba      	ldr	r2, [r7, #8]
    2d9a:	619a      	str	r2, [r3, #24]
    2d9c:	e002      	b.n	2da4 <_system_pinmux_config+0xec>
			} else {
				port->OUTCLR.reg = pin_mask;
    2d9e:	68fb      	ldr	r3, [r7, #12]
    2da0:	68ba      	ldr	r2, [r7, #8]
    2da2:	615a      	str	r2, [r3, #20]
			}
		}

		/* Check if the user has requested that the output buffer be enabled */
		if ((config->direction == SYSTEM_PINMUX_PIN_DIR_OUTPUT) ||
    2da4:	687b      	ldr	r3, [r7, #4]
    2da6:	785b      	ldrb	r3, [r3, #1]
    2da8:	2b01      	cmp	r3, #1
    2daa:	d003      	beq.n	2db4 <_system_pinmux_config+0xfc>
				(config->direction == SYSTEM_PINMUX_PIN_DIR_OUTPUT_WITH_READBACK)) {
    2dac:	687b      	ldr	r3, [r7, #4]
    2dae:	785b      	ldrb	r3, [r3, #1]
				port->OUTCLR.reg = pin_mask;
			}
		}

		/* Check if the user has requested that the output buffer be enabled */
		if ((config->direction == SYSTEM_PINMUX_PIN_DIR_OUTPUT) ||
    2db0:	2b02      	cmp	r3, #2
    2db2:	d102      	bne.n	2dba <_system_pinmux_config+0x102>
				(config->direction == SYSTEM_PINMUX_PIN_DIR_OUTPUT_WITH_READBACK)) {
			/* Set the port DIR bits to enable the output buffer */
			port->DIRSET.reg = pin_mask;
    2db4:	68fb      	ldr	r3, [r7, #12]
    2db6:	68ba      	ldr	r2, [r7, #8]
    2db8:	609a      	str	r2, [r3, #8]
		}
	}
}
    2dba:	46bd      	mov	sp, r7
    2dbc:	b008      	add	sp, #32
    2dbe:	bd80      	pop	{r7, pc}
    2dc0:	fffbffff 	.word	0xfffbffff

00002dc4 <system_pinmux_pin_set_config>:
 * \param[in] config    Configuration settings for the pin.
 */
void system_pinmux_pin_set_config(
		const uint8_t gpio_pin,
		const struct system_pinmux_config *const config)
{
    2dc4:	b580      	push	{r7, lr}
    2dc6:	b084      	sub	sp, #16
    2dc8:	af00      	add	r7, sp, #0
    2dca:	1c02      	adds	r2, r0, #0
    2dcc:	6039      	str	r1, [r7, #0]
    2dce:	1dfb      	adds	r3, r7, #7
    2dd0:	701a      	strb	r2, [r3, #0]
	PortGroup *const port = system_pinmux_get_group_from_gpio_pin(gpio_pin);
    2dd2:	1dfb      	adds	r3, r7, #7
    2dd4:	781b      	ldrb	r3, [r3, #0]
    2dd6:	1c18      	adds	r0, r3, #0
    2dd8:	4b0b      	ldr	r3, [pc, #44]	; (2e08 <system_pinmux_pin_set_config+0x44>)
    2dda:	4798      	blx	r3
    2ddc:	1c03      	adds	r3, r0, #0
    2dde:	60fb      	str	r3, [r7, #12]
	uint32_t pin_mask = (1UL << (gpio_pin % 32));
    2de0:	1dfb      	adds	r3, r7, #7
    2de2:	781b      	ldrb	r3, [r3, #0]
    2de4:	221f      	movs	r2, #31
    2de6:	4013      	ands	r3, r2
    2de8:	2201      	movs	r2, #1
    2dea:	409a      	lsls	r2, r3
    2dec:	1c13      	adds	r3, r2, #0
    2dee:	60bb      	str	r3, [r7, #8]

	_system_pinmux_config(port, pin_mask, config);
    2df0:	68f9      	ldr	r1, [r7, #12]
    2df2:	68ba      	ldr	r2, [r7, #8]
    2df4:	683b      	ldr	r3, [r7, #0]
    2df6:	1c08      	adds	r0, r1, #0
    2df8:	1c11      	adds	r1, r2, #0
    2dfa:	1c1a      	adds	r2, r3, #0
    2dfc:	4b03      	ldr	r3, [pc, #12]	; (2e0c <system_pinmux_pin_set_config+0x48>)
    2dfe:	4798      	blx	r3
}
    2e00:	46bd      	mov	sp, r7
    2e02:	b004      	add	sp, #16
    2e04:	bd80      	pop	{r7, pc}
    2e06:	46c0      	nop			; (mov r8, r8)
    2e08:	00002c59 	.word	0x00002c59
    2e0c:	00002cb9 	.word	0x00002cb9

00002e10 <_system_dummy_init>:
 * Dummy initialization function, used as a weak alias target for the various
 * init functions called by \ref system_init().
 */
void _system_dummy_init(void);
void _system_dummy_init(void)
{
    2e10:	b580      	push	{r7, lr}
    2e12:	af00      	add	r7, sp, #0
	return;
    2e14:	46c0      	nop			; (mov r8, r8)
}
    2e16:	46bd      	mov	sp, r7
    2e18:	bd80      	pop	{r7, pc}
    2e1a:	46c0      	nop			; (mov r8, r8)

00002e1c <system_init>:
 *  - Board hardware initialization (via the Board module)
 *  - Event system driver initialization (via the EVSYS module)
 *  - External Interrupt driver initialization (via the EXTINT module)
 */
void system_init(void)
{
    2e1c:	b580      	push	{r7, lr}
    2e1e:	af00      	add	r7, sp, #0
	/* Configure GCLK and clock sources according to conf_clocks.h */
	system_clock_init();
    2e20:	4b04      	ldr	r3, [pc, #16]	; (2e34 <system_init+0x18>)
    2e22:	4798      	blx	r3

	/* Initialize board hardware */
	system_board_init();
    2e24:	4b04      	ldr	r3, [pc, #16]	; (2e38 <system_init+0x1c>)
    2e26:	4798      	blx	r3

	/* Initialize EVSYS hardware */
	_system_events_init();
    2e28:	4b04      	ldr	r3, [pc, #16]	; (2e3c <system_init+0x20>)
    2e2a:	4798      	blx	r3

	/* Initialize External hardware */
	_system_extint_init();
    2e2c:	4b04      	ldr	r3, [pc, #16]	; (2e40 <system_init+0x24>)
    2e2e:	4798      	blx	r3
}
    2e30:	46bd      	mov	sp, r7
    2e32:	bd80      	pop	{r7, pc}
    2e34:	000026e5 	.word	0x000026e5
    2e38:	000022dd 	.word	0x000022dd
    2e3c:	00002e11 	.word	0x00002e11
    2e40:	00002e11 	.word	0x00002e11

00002e44 <Reset_Handler>:
/**
 * \brief This is the code that gets called on processor reset.
 * To initialize the device, and call the main() routine.
 */
void Reset_Handler(void)
{
    2e44:	b580      	push	{r7, lr}
    2e46:	b082      	sub	sp, #8
    2e48:	af00      	add	r7, sp, #0
        uint32_t *pSrc, *pDest;

        /* Initialize the relocate segment */
        pSrc = &_etext;
    2e4a:	4b16      	ldr	r3, [pc, #88]	; (2ea4 <Reset_Handler+0x60>)
    2e4c:	607b      	str	r3, [r7, #4]
        pDest = &_srelocate;
    2e4e:	4b16      	ldr	r3, [pc, #88]	; (2ea8 <Reset_Handler+0x64>)
    2e50:	603b      	str	r3, [r7, #0]

        if (pSrc != pDest) {
    2e52:	687a      	ldr	r2, [r7, #4]
    2e54:	683b      	ldr	r3, [r7, #0]
    2e56:	429a      	cmp	r2, r3
    2e58:	d00c      	beq.n	2e74 <Reset_Handler+0x30>
                for (; pDest < &_erelocate;) {
    2e5a:	e007      	b.n	2e6c <Reset_Handler+0x28>
                        *pDest++ = *pSrc++;
    2e5c:	683b      	ldr	r3, [r7, #0]
    2e5e:	1d1a      	adds	r2, r3, #4
    2e60:	603a      	str	r2, [r7, #0]
    2e62:	687a      	ldr	r2, [r7, #4]
    2e64:	1d11      	adds	r1, r2, #4
    2e66:	6079      	str	r1, [r7, #4]
    2e68:	6812      	ldr	r2, [r2, #0]
    2e6a:	601a      	str	r2, [r3, #0]
        /* Initialize the relocate segment */
        pSrc = &_etext;
        pDest = &_srelocate;

        if (pSrc != pDest) {
                for (; pDest < &_erelocate;) {
    2e6c:	683a      	ldr	r2, [r7, #0]
    2e6e:	4b0f      	ldr	r3, [pc, #60]	; (2eac <Reset_Handler+0x68>)
    2e70:	429a      	cmp	r2, r3
    2e72:	d3f3      	bcc.n	2e5c <Reset_Handler+0x18>
                        *pDest++ = *pSrc++;
                }
        }

        /* Clear the zero segment */
        for (pDest = &_szero; pDest < &_ezero;) {
    2e74:	4b0e      	ldr	r3, [pc, #56]	; (2eb0 <Reset_Handler+0x6c>)
    2e76:	603b      	str	r3, [r7, #0]
    2e78:	e004      	b.n	2e84 <Reset_Handler+0x40>
                *pDest++ = 0;
    2e7a:	683b      	ldr	r3, [r7, #0]
    2e7c:	1d1a      	adds	r2, r3, #4
    2e7e:	603a      	str	r2, [r7, #0]
    2e80:	2200      	movs	r2, #0
    2e82:	601a      	str	r2, [r3, #0]
                        *pDest++ = *pSrc++;
                }
        }

        /* Clear the zero segment */
        for (pDest = &_szero; pDest < &_ezero;) {
    2e84:	683a      	ldr	r2, [r7, #0]
    2e86:	4b0b      	ldr	r3, [pc, #44]	; (2eb4 <Reset_Handler+0x70>)
    2e88:	429a      	cmp	r2, r3
    2e8a:	d3f6      	bcc.n	2e7a <Reset_Handler+0x36>
                *pDest++ = 0;
        }

        /* Set the vector table base address */
        pSrc = (uint32_t *) & _sfixed;
    2e8c:	4b0a      	ldr	r3, [pc, #40]	; (2eb8 <Reset_Handler+0x74>)
    2e8e:	607b      	str	r3, [r7, #4]
        SCB->VTOR = ((uint32_t) pSrc & SCB_VTOR_TBLOFF_Msk);
    2e90:	4b0a      	ldr	r3, [pc, #40]	; (2ebc <Reset_Handler+0x78>)
    2e92:	687a      	ldr	r2, [r7, #4]
    2e94:	217f      	movs	r1, #127	; 0x7f
    2e96:	438a      	bics	r2, r1
    2e98:	609a      	str	r2, [r3, #8]

        /* Initialize the C library */
        __libc_init_array();
    2e9a:	4b09      	ldr	r3, [pc, #36]	; (2ec0 <Reset_Handler+0x7c>)
    2e9c:	4798      	blx	r3

        /* Branch to main function */
        main();
    2e9e:	4b09      	ldr	r3, [pc, #36]	; (2ec4 <Reset_Handler+0x80>)
    2ea0:	4798      	blx	r3

        /* Infinite loop */
        while (1);
    2ea2:	e7fe      	b.n	2ea2 <Reset_Handler+0x5e>
    2ea4:	0000785c 	.word	0x0000785c
    2ea8:	20000000 	.word	0x20000000
    2eac:	20000078 	.word	0x20000078
    2eb0:	20000078 	.word	0x20000078
    2eb4:	200001fc 	.word	0x200001fc
    2eb8:	00000000 	.word	0x00000000
    2ebc:	e000ed00 	.word	0xe000ed00
    2ec0:	00006495 	.word	0x00006495
    2ec4:	00003799 	.word	0x00003799

00002ec8 <Dummy_Handler>:

/**
 * \brief Default interrupt handler for unused IRQs.
 */
void Dummy_Handler(void)
{
    2ec8:	b580      	push	{r7, lr}
    2eca:	af00      	add	r7, sp, #0
        while (1) {
        }
    2ecc:	e7fe      	b.n	2ecc <Dummy_Handler+0x4>
    2ece:	46c0      	nop			; (mov r8, r8)

00002ed0 <_sbrk>:
extern void _exit(int status);
extern void _kill(int pid, int sig);
extern int _getpid(void);

extern caddr_t _sbrk(int incr)
{
    2ed0:	b580      	push	{r7, lr}
    2ed2:	b084      	sub	sp, #16
    2ed4:	af00      	add	r7, sp, #0
    2ed6:	6078      	str	r0, [r7, #4]
	static unsigned char *heap = NULL;
	unsigned char *prev_heap;

	if (heap == NULL) {
    2ed8:	4b0a      	ldr	r3, [pc, #40]	; (2f04 <_sbrk+0x34>)
    2eda:	681b      	ldr	r3, [r3, #0]
    2edc:	2b00      	cmp	r3, #0
    2ede:	d102      	bne.n	2ee6 <_sbrk+0x16>
		heap = (unsigned char *)&_end;
    2ee0:	4b08      	ldr	r3, [pc, #32]	; (2f04 <_sbrk+0x34>)
    2ee2:	4a09      	ldr	r2, [pc, #36]	; (2f08 <_sbrk+0x38>)
    2ee4:	601a      	str	r2, [r3, #0]
	}
	prev_heap = heap;
    2ee6:	4b07      	ldr	r3, [pc, #28]	; (2f04 <_sbrk+0x34>)
    2ee8:	681b      	ldr	r3, [r3, #0]
    2eea:	60fb      	str	r3, [r7, #12]

	heap += incr;
    2eec:	4b05      	ldr	r3, [pc, #20]	; (2f04 <_sbrk+0x34>)
    2eee:	681a      	ldr	r2, [r3, #0]
    2ef0:	687b      	ldr	r3, [r7, #4]
    2ef2:	18d2      	adds	r2, r2, r3
    2ef4:	4b03      	ldr	r3, [pc, #12]	; (2f04 <_sbrk+0x34>)
    2ef6:	601a      	str	r2, [r3, #0]

	return (caddr_t) prev_heap;
    2ef8:	68fb      	ldr	r3, [r7, #12]
}
    2efa:	1c18      	adds	r0, r3, #0
    2efc:	46bd      	mov	sp, r7
    2efe:	b004      	add	sp, #16
    2f00:	bd80      	pop	{r7, pc}
    2f02:	46c0      	nop			; (mov r8, r8)
    2f04:	20000158 	.word	0x20000158
    2f08:	20002200 	.word	0x20002200

00002f0c <_close>:
{
	return -1;
}

extern int _close(int file)
{
    2f0c:	b580      	push	{r7, lr}
    2f0e:	b082      	sub	sp, #8
    2f10:	af00      	add	r7, sp, #0
    2f12:	6078      	str	r0, [r7, #4]
	return -1;
    2f14:	2301      	movs	r3, #1
    2f16:	425b      	negs	r3, r3
}
    2f18:	1c18      	adds	r0, r3, #0
    2f1a:	46bd      	mov	sp, r7
    2f1c:	b002      	add	sp, #8
    2f1e:	bd80      	pop	{r7, pc}

00002f20 <_fstat>:

extern int _fstat(int file, struct stat *st)
{
    2f20:	b580      	push	{r7, lr}
    2f22:	b082      	sub	sp, #8
    2f24:	af00      	add	r7, sp, #0
    2f26:	6078      	str	r0, [r7, #4]
    2f28:	6039      	str	r1, [r7, #0]
	st->st_mode = S_IFCHR;
    2f2a:	683b      	ldr	r3, [r7, #0]
    2f2c:	2280      	movs	r2, #128	; 0x80
    2f2e:	0192      	lsls	r2, r2, #6
    2f30:	605a      	str	r2, [r3, #4]

	return 0;
    2f32:	2300      	movs	r3, #0
}
    2f34:	1c18      	adds	r0, r3, #0
    2f36:	46bd      	mov	sp, r7
    2f38:	b002      	add	sp, #8
    2f3a:	bd80      	pop	{r7, pc}

00002f3c <_isatty>:

extern int _isatty(int file)
{
    2f3c:	b580      	push	{r7, lr}
    2f3e:	b082      	sub	sp, #8
    2f40:	af00      	add	r7, sp, #0
    2f42:	6078      	str	r0, [r7, #4]
	return 1;
    2f44:	2301      	movs	r3, #1
}
    2f46:	1c18      	adds	r0, r3, #0
    2f48:	46bd      	mov	sp, r7
    2f4a:	b002      	add	sp, #8
    2f4c:	bd80      	pop	{r7, pc}
    2f4e:	46c0      	nop			; (mov r8, r8)

00002f50 <_lseek>:

extern int _lseek(int file, int ptr, int dir)
{
    2f50:	b580      	push	{r7, lr}
    2f52:	b084      	sub	sp, #16
    2f54:	af00      	add	r7, sp, #0
    2f56:	60f8      	str	r0, [r7, #12]
    2f58:	60b9      	str	r1, [r7, #8]
    2f5a:	607a      	str	r2, [r7, #4]
	return 0;
    2f5c:	2300      	movs	r3, #0
}
    2f5e:	1c18      	adds	r0, r3, #0
    2f60:	46bd      	mov	sp, r7
    2f62:	b004      	add	sp, #16
    2f64:	bd80      	pop	{r7, pc}
    2f66:	46c0      	nop			; (mov r8, r8)

00002f68 <HMC5883L_init>:
	CURRENT SETTINGS:
	15HZ default measurement rate
	Gain = 5
	Single Measurement Mode
*/
void HMC5883L_init(void){
    2f68:	b590      	push	{r4, r7, lr}
    2f6a:	b087      	sub	sp, #28
    2f6c:	af00      	add	r7, sp, #0

	static uint8_t write_buffer_2[2] = {
		0x01, 0xA0
	};
	
	struct i2c_master_packet write_packet_1 = {
    2f6e:	230c      	movs	r3, #12
    2f70:	18fb      	adds	r3, r7, r3
    2f72:	4a09      	ldr	r2, [pc, #36]	; (2f98 <HMC5883L_init+0x30>)
    2f74:	ca13      	ldmia	r2!, {r0, r1, r4}
    2f76:	c313      	stmia	r3!, {r0, r1, r4}
		.data        = write_buffer_1,
		.ten_bit_address = false,
		.high_speed      = false,
		.hs_master_code  = 0x0,
	};
	struct i2c_master_packet write_packet_2 = {
    2f78:	1c3b      	adds	r3, r7, #0
    2f7a:	4a08      	ldr	r2, [pc, #32]	; (2f9c <HMC5883L_init+0x34>)
    2f7c:	ca13      	ldmia	r2!, {r0, r1, r4}
    2f7e:	c313      	stmia	r3!, {r0, r1, r4}
		.ten_bit_address = false,
		.high_speed      = false,
		.hs_master_code  = 0x0,
	};
	
	i2c_write_command(&write_packet_1);
    2f80:	230c      	movs	r3, #12
    2f82:	18fb      	adds	r3, r7, r3
    2f84:	1c18      	adds	r0, r3, #0
    2f86:	4b06      	ldr	r3, [pc, #24]	; (2fa0 <HMC5883L_init+0x38>)
    2f88:	4798      	blx	r3
	i2c_write_command(&write_packet_2);
    2f8a:	1c3b      	adds	r3, r7, #0
    2f8c:	1c18      	adds	r0, r3, #0
    2f8e:	4b04      	ldr	r3, [pc, #16]	; (2fa0 <HMC5883L_init+0x38>)
    2f90:	4798      	blx	r3
}
    2f92:	46bd      	mov	sp, r7
    2f94:	b007      	add	sp, #28
    2f96:	bd90      	pop	{r4, r7, pc}
    2f98:	00007578 	.word	0x00007578
    2f9c:	00007584 	.word	0x00007584
    2fa0:	00003435 	.word	0x00003435

00002fa4 <HMC5883L_read>:

/*
	Given an input buffer to read into (6 BYTES IN LENGTH MINIMUM) read from the x,y,z LSB and MSB registers
	on the HMC5883L magnetometer in single measurement mode
*/
void HMC5883L_read(uint8_t* read_buffer){
    2fa4:	b590      	push	{r4, r7, lr}
    2fa6:	b089      	sub	sp, #36	; 0x24
    2fa8:	af00      	add	r7, sp, #0
    2faa:	6078      	str	r0, [r7, #4]
	struct i2c_master_packet read_packet = {
    2fac:	2314      	movs	r3, #20
    2fae:	18fb      	adds	r3, r7, r3
    2fb0:	221e      	movs	r2, #30
    2fb2:	801a      	strh	r2, [r3, #0]
    2fb4:	2314      	movs	r3, #20
    2fb6:	18fb      	adds	r3, r7, r3
    2fb8:	2206      	movs	r2, #6
    2fba:	805a      	strh	r2, [r3, #2]
    2fbc:	2314      	movs	r3, #20
    2fbe:	18fb      	adds	r3, r7, r3
    2fc0:	687a      	ldr	r2, [r7, #4]
    2fc2:	605a      	str	r2, [r3, #4]
    2fc4:	2314      	movs	r3, #20
    2fc6:	18fb      	adds	r3, r7, r3
    2fc8:	2200      	movs	r2, #0
    2fca:	721a      	strb	r2, [r3, #8]
    2fcc:	2314      	movs	r3, #20
    2fce:	18fb      	adds	r3, r7, r3
    2fd0:	2200      	movs	r2, #0
    2fd2:	725a      	strb	r2, [r3, #9]
    2fd4:	2314      	movs	r3, #20
    2fd6:	18fb      	adds	r3, r7, r3
    2fd8:	2200      	movs	r2, #0
    2fda:	729a      	strb	r2, [r3, #10]
	
	static uint8_t write_buffer[2] = {
		0x02, 0x01
	};
	
	struct i2c_master_packet write_packet = {
    2fdc:	2308      	movs	r3, #8
    2fde:	18fb      	adds	r3, r7, r3
    2fe0:	4a07      	ldr	r2, [pc, #28]	; (3000 <HMC5883L_read+0x5c>)
    2fe2:	ca13      	ldmia	r2!, {r0, r1, r4}
    2fe4:	c313      	stmia	r3!, {r0, r1, r4}
		.ten_bit_address = false,
		.high_speed      = false,
		.hs_master_code  = 0x0,
	};
	
	i2c_write_command(&write_packet);
    2fe6:	2308      	movs	r3, #8
    2fe8:	18fb      	adds	r3, r7, r3
    2fea:	1c18      	adds	r0, r3, #0
    2fec:	4b05      	ldr	r3, [pc, #20]	; (3004 <HMC5883L_read+0x60>)
    2fee:	4798      	blx	r3
	i2c_read_command(&read_packet);
    2ff0:	2314      	movs	r3, #20
    2ff2:	18fb      	adds	r3, r7, r3
    2ff4:	1c18      	adds	r0, r3, #0
    2ff6:	4b04      	ldr	r3, [pc, #16]	; (3008 <HMC5883L_read+0x64>)
    2ff8:	4798      	blx	r3
}
    2ffa:	46bd      	mov	sp, r7
    2ffc:	b009      	add	sp, #36	; 0x24
    2ffe:	bd90      	pop	{r4, r7, pc}
    3000:	00007590 	.word	0x00007590
    3004:	00003435 	.word	0x00003435
    3008:	00003459 	.word	0x00003459

0000300c <getXYZ>:

//Converts the raw data from sensor into xyz coordinates in milligauss.
//xyzBuffer must be of length 3 and will be populated with xyz.
void getXYZ(uint8_t* readBuffer, int16_t* xyzBuffer) {
    300c:	b580      	push	{r7, lr}
    300e:	b084      	sub	sp, #16
    3010:	af00      	add	r7, sp, #0
    3012:	6078      	str	r0, [r7, #4]
    3014:	6039      	str	r1, [r7, #0]
	uint16_t x = ((uint16_t)readBuffer[0] << 8) | readBuffer[1];
    3016:	687b      	ldr	r3, [r7, #4]
    3018:	781b      	ldrb	r3, [r3, #0]
    301a:	021b      	lsls	r3, r3, #8
    301c:	b29a      	uxth	r2, r3
    301e:	687b      	ldr	r3, [r7, #4]
    3020:	3301      	adds	r3, #1
    3022:	781b      	ldrb	r3, [r3, #0]
    3024:	b29b      	uxth	r3, r3
    3026:	4313      	orrs	r3, r2
    3028:	b29a      	uxth	r2, r3
    302a:	230e      	movs	r3, #14
    302c:	18fb      	adds	r3, r7, r3
    302e:	801a      	strh	r2, [r3, #0]
	uint16_t y = ((uint16_t)readBuffer[2] << 8) | readBuffer[3];
    3030:	687b      	ldr	r3, [r7, #4]
    3032:	3302      	adds	r3, #2
    3034:	781b      	ldrb	r3, [r3, #0]
    3036:	021b      	lsls	r3, r3, #8
    3038:	b29a      	uxth	r2, r3
    303a:	687b      	ldr	r3, [r7, #4]
    303c:	3303      	adds	r3, #3
    303e:	781b      	ldrb	r3, [r3, #0]
    3040:	b29b      	uxth	r3, r3
    3042:	4313      	orrs	r3, r2
    3044:	b29a      	uxth	r2, r3
    3046:	230c      	movs	r3, #12
    3048:	18fb      	adds	r3, r7, r3
    304a:	801a      	strh	r2, [r3, #0]
	uint16_t z = ((uint16_t)readBuffer[4] << 8) | readBuffer[5];
    304c:	687b      	ldr	r3, [r7, #4]
    304e:	3304      	adds	r3, #4
    3050:	781b      	ldrb	r3, [r3, #0]
    3052:	021b      	lsls	r3, r3, #8
    3054:	b29a      	uxth	r2, r3
    3056:	687b      	ldr	r3, [r7, #4]
    3058:	3305      	adds	r3, #5
    305a:	781b      	ldrb	r3, [r3, #0]
    305c:	b29b      	uxth	r3, r3
    305e:	4313      	orrs	r3, r2
    3060:	b29a      	uxth	r2, r3
    3062:	230a      	movs	r3, #10
    3064:	18fb      	adds	r3, r7, r3
    3066:	801a      	strh	r2, [r3, #0]
	xyzBuffer[0] = (int16_t) x;
    3068:	230e      	movs	r3, #14
    306a:	18fb      	adds	r3, r7, r3
    306c:	881a      	ldrh	r2, [r3, #0]
    306e:	683b      	ldr	r3, [r7, #0]
    3070:	801a      	strh	r2, [r3, #0]
	xyzBuffer[1] = (int16_t) y;
    3072:	683b      	ldr	r3, [r7, #0]
    3074:	3302      	adds	r3, #2
    3076:	220c      	movs	r2, #12
    3078:	18ba      	adds	r2, r7, r2
    307a:	8812      	ldrh	r2, [r2, #0]
    307c:	801a      	strh	r2, [r3, #0]
	xyzBuffer[2] = (int16_t) z;
    307e:	683b      	ldr	r3, [r7, #0]
    3080:	3304      	adds	r3, #4
    3082:	220a      	movs	r2, #10
    3084:	18ba      	adds	r2, r7, r2
    3086:	8812      	ldrh	r2, [r2, #0]
    3088:	801a      	strh	r2, [r3, #0]
}
    308a:	46bd      	mov	sp, r7
    308c:	b004      	add	sp, #16
    308e:	bd80      	pop	{r7, pc}

00003090 <computeCompassDir>:

float computeCompassDir(int16_t x, int16_t y, int16_t z) {
    3090:	b5f0      	push	{r4, r5, r6, r7, lr}
    3092:	b087      	sub	sp, #28
    3094:	af00      	add	r7, sp, #0
    3096:	1c04      	adds	r4, r0, #0
    3098:	1c08      	adds	r0, r1, #0
    309a:	1c11      	adds	r1, r2, #0
    309c:	1dbb      	adds	r3, r7, #6
    309e:	1c22      	adds	r2, r4, #0
    30a0:	801a      	strh	r2, [r3, #0]
    30a2:	1d3b      	adds	r3, r7, #4
    30a4:	1c02      	adds	r2, r0, #0
    30a6:	801a      	strh	r2, [r3, #0]
    30a8:	1cbb      	adds	r3, r7, #2
    30aa:	1c0a      	adds	r2, r1, #0
    30ac:	801a      	strh	r2, [r3, #0]
	float heading = atan2(z, x);
    30ae:	1cbb      	adds	r3, r7, #2
    30b0:	2200      	movs	r2, #0
    30b2:	5e9a      	ldrsh	r2, [r3, r2]
    30b4:	4b3f      	ldr	r3, [pc, #252]	; (31b4 <computeCompassDir+0x124>)
    30b6:	1c10      	adds	r0, r2, #0
    30b8:	4798      	blx	r3
    30ba:	1c05      	adds	r5, r0, #0
    30bc:	1c0e      	adds	r6, r1, #0
    30be:	1dbb      	adds	r3, r7, #6
    30c0:	2200      	movs	r2, #0
    30c2:	5e9a      	ldrsh	r2, [r3, r2]
    30c4:	4b3b      	ldr	r3, [pc, #236]	; (31b4 <computeCompassDir+0x124>)
    30c6:	1c10      	adds	r0, r2, #0
    30c8:	4798      	blx	r3
    30ca:	1c03      	adds	r3, r0, #0
    30cc:	1c0c      	adds	r4, r1, #0
    30ce:	1c28      	adds	r0, r5, #0
    30d0:	1c31      	adds	r1, r6, #0
    30d2:	1c1a      	adds	r2, r3, #0
    30d4:	1c23      	adds	r3, r4, #0
    30d6:	4c38      	ldr	r4, [pc, #224]	; (31b8 <computeCompassDir+0x128>)
    30d8:	47a0      	blx	r4
    30da:	1c0a      	adds	r2, r1, #0
    30dc:	1c01      	adds	r1, r0, #0
    30de:	4b37      	ldr	r3, [pc, #220]	; (31bc <computeCompassDir+0x12c>)
    30e0:	1c08      	adds	r0, r1, #0
    30e2:	1c11      	adds	r1, r2, #0
    30e4:	4798      	blx	r3
    30e6:	1c03      	adds	r3, r0, #0
    30e8:	617b      	str	r3, [r7, #20]
	float declinationAngle = 0.244346;
    30ea:	4b35      	ldr	r3, [pc, #212]	; (31c0 <computeCompassDir+0x130>)
    30ec:	613b      	str	r3, [r7, #16]
	heading += declinationAngle;
    30ee:	4b35      	ldr	r3, [pc, #212]	; (31c4 <computeCompassDir+0x134>)
    30f0:	6978      	ldr	r0, [r7, #20]
    30f2:	6939      	ldr	r1, [r7, #16]
    30f4:	4798      	blx	r3
    30f6:	1c03      	adds	r3, r0, #0
    30f8:	617b      	str	r3, [r7, #20]
	// Correct for when signs are reversed.
	if(heading < 0) {
    30fa:	4b33      	ldr	r3, [pc, #204]	; (31c8 <computeCompassDir+0x138>)
    30fc:	6978      	ldr	r0, [r7, #20]
    30fe:	2100      	movs	r1, #0
    3100:	4798      	blx	r3
    3102:	1e03      	subs	r3, r0, #0
    3104:	d014      	beq.n	3130 <computeCompassDir+0xa0>
		heading += 2*M_PI;	
    3106:	4b31      	ldr	r3, [pc, #196]	; (31cc <computeCompassDir+0x13c>)
    3108:	6978      	ldr	r0, [r7, #20]
    310a:	4798      	blx	r3
    310c:	1c02      	adds	r2, r0, #0
    310e:	1c0b      	adds	r3, r1, #0
    3110:	4c2f      	ldr	r4, [pc, #188]	; (31d0 <computeCompassDir+0x140>)
    3112:	1c10      	adds	r0, r2, #0
    3114:	1c19      	adds	r1, r3, #0
    3116:	4a2f      	ldr	r2, [pc, #188]	; (31d4 <computeCompassDir+0x144>)
    3118:	4b2f      	ldr	r3, [pc, #188]	; (31d8 <computeCompassDir+0x148>)
    311a:	47a0      	blx	r4
    311c:	1c03      	adds	r3, r0, #0
    311e:	1c0c      	adds	r4, r1, #0
    3120:	1c19      	adds	r1, r3, #0
    3122:	1c22      	adds	r2, r4, #0
    3124:	4b25      	ldr	r3, [pc, #148]	; (31bc <computeCompassDir+0x12c>)
    3126:	1c08      	adds	r0, r1, #0
    3128:	1c11      	adds	r1, r2, #0
    312a:	4798      	blx	r3
    312c:	1c03      	adds	r3, r0, #0
    312e:	617b      	str	r3, [r7, #20]
	}	

	// Check for wrap due to addition of declination.
	if(heading > 2*M_PI) {
    3130:	4b26      	ldr	r3, [pc, #152]	; (31cc <computeCompassDir+0x13c>)
    3132:	6978      	ldr	r0, [r7, #20]
    3134:	4798      	blx	r3
    3136:	1c02      	adds	r2, r0, #0
    3138:	1c0b      	adds	r3, r1, #0
    313a:	4c28      	ldr	r4, [pc, #160]	; (31dc <computeCompassDir+0x14c>)
    313c:	1c10      	adds	r0, r2, #0
    313e:	1c19      	adds	r1, r3, #0
    3140:	4a24      	ldr	r2, [pc, #144]	; (31d4 <computeCompassDir+0x144>)
    3142:	4b25      	ldr	r3, [pc, #148]	; (31d8 <computeCompassDir+0x148>)
    3144:	47a0      	blx	r4
    3146:	1e03      	subs	r3, r0, #0
    3148:	d014      	beq.n	3174 <computeCompassDir+0xe4>
		heading -= 2*M_PI;	
    314a:	4b20      	ldr	r3, [pc, #128]	; (31cc <computeCompassDir+0x13c>)
    314c:	6978      	ldr	r0, [r7, #20]
    314e:	4798      	blx	r3
    3150:	1c02      	adds	r2, r0, #0
    3152:	1c0b      	adds	r3, r1, #0
    3154:	4c22      	ldr	r4, [pc, #136]	; (31e0 <computeCompassDir+0x150>)
    3156:	1c10      	adds	r0, r2, #0
    3158:	1c19      	adds	r1, r3, #0
    315a:	4a1e      	ldr	r2, [pc, #120]	; (31d4 <computeCompassDir+0x144>)
    315c:	4b1e      	ldr	r3, [pc, #120]	; (31d8 <computeCompassDir+0x148>)
    315e:	47a0      	blx	r4
    3160:	1c03      	adds	r3, r0, #0
    3162:	1c0c      	adds	r4, r1, #0
    3164:	1c19      	adds	r1, r3, #0
    3166:	1c22      	adds	r2, r4, #0
    3168:	4b14      	ldr	r3, [pc, #80]	; (31bc <computeCompassDir+0x12c>)
    316a:	1c08      	adds	r0, r1, #0
    316c:	1c11      	adds	r1, r2, #0
    316e:	4798      	blx	r3
    3170:	1c03      	adds	r3, r0, #0
    3172:	617b      	str	r3, [r7, #20]
	}	
	float headingDegrees = heading * 180/M_PI;	
    3174:	4b1b      	ldr	r3, [pc, #108]	; (31e4 <computeCompassDir+0x154>)
    3176:	6978      	ldr	r0, [r7, #20]
    3178:	491b      	ldr	r1, [pc, #108]	; (31e8 <computeCompassDir+0x158>)
    317a:	4798      	blx	r3
    317c:	1c03      	adds	r3, r0, #0
    317e:	1c1a      	adds	r2, r3, #0
    3180:	4b12      	ldr	r3, [pc, #72]	; (31cc <computeCompassDir+0x13c>)
    3182:	1c10      	adds	r0, r2, #0
    3184:	4798      	blx	r3
    3186:	1c02      	adds	r2, r0, #0
    3188:	1c0b      	adds	r3, r1, #0
    318a:	4c18      	ldr	r4, [pc, #96]	; (31ec <computeCompassDir+0x15c>)
    318c:	1c10      	adds	r0, r2, #0
    318e:	1c19      	adds	r1, r3, #0
    3190:	4a10      	ldr	r2, [pc, #64]	; (31d4 <computeCompassDir+0x144>)
    3192:	4b17      	ldr	r3, [pc, #92]	; (31f0 <computeCompassDir+0x160>)
    3194:	47a0      	blx	r4
    3196:	1c03      	adds	r3, r0, #0
    3198:	1c0c      	adds	r4, r1, #0
    319a:	1c19      	adds	r1, r3, #0
    319c:	1c22      	adds	r2, r4, #0
    319e:	4b07      	ldr	r3, [pc, #28]	; (31bc <computeCompassDir+0x12c>)
    31a0:	1c08      	adds	r0, r1, #0
    31a2:	1c11      	adds	r1, r2, #0
    31a4:	4798      	blx	r3
    31a6:	1c03      	adds	r3, r0, #0
    31a8:	60fb      	str	r3, [r7, #12]
	return headingDegrees;
    31aa:	68fb      	ldr	r3, [r7, #12]
}
    31ac:	1c18      	adds	r0, r3, #0
    31ae:	46bd      	mov	sp, r7
    31b0:	b007      	add	sp, #28
    31b2:	bdf0      	pop	{r4, r5, r6, r7, pc}
    31b4:	00006219 	.word	0x00006219
    31b8:	000038f9 	.word	0x000038f9
    31bc:	00006339 	.word	0x00006339
    31c0:	3e7a35d6 	.word	0x3e7a35d6
    31c4:	00004055 	.word	0x00004055
    31c8:	00003fb1 	.word	0x00003fb1
    31cc:	00006291 	.word	0x00006291
    31d0:	00004725 	.word	0x00004725
    31d4:	54442d18 	.word	0x54442d18
    31d8:	401921fb 	.word	0x401921fb
    31dc:	00003f65 	.word	0x00003f65
    31e0:	00005b25 	.word	0x00005b25
    31e4:	000044c1 	.word	0x000044c1
    31e8:	43340000 	.word	0x43340000
    31ec:	00004d75 	.word	0x00004d75
    31f0:	400921fb 	.word	0x400921fb

000031f4 <i2c_master_is_syncing>:
 * \retval true   Module is busy synchronizing
 * \retval false  Module is not synchronizing
 */
static inline bool i2c_master_is_syncing (
		const struct i2c_master_module *const module)
{
    31f4:	b580      	push	{r7, lr}
    31f6:	b084      	sub	sp, #16
    31f8:	af00      	add	r7, sp, #0
    31fa:	6078      	str	r0, [r7, #4]
	/* Sanity check. */
	Assert(module);
	Assert(module->hw);

	SercomI2cm *const i2c_hw = &(module->hw->I2CM);
    31fc:	687b      	ldr	r3, [r7, #4]
    31fe:	681b      	ldr	r3, [r3, #0]
    3200:	60fb      	str	r3, [r7, #12]

#if defined(FEATURE_SERCOM_SYNCBUSY_SCHEME_VERSION_1)
	return (i2c_hw->STATUS.reg & SERCOM_I2CM_STATUS_SYNCBUSY);
#elif defined(FEATURE_SERCOM_SYNCBUSY_SCHEME_VERSION_2)
	return (i2c_hw->SYNCBUSY.reg & SERCOM_I2CM_SYNCBUSY_MASK);
    3202:	68fb      	ldr	r3, [r7, #12]
    3204:	69db      	ldr	r3, [r3, #28]
    3206:	2207      	movs	r2, #7
    3208:	4013      	ands	r3, r2
    320a:	1e5a      	subs	r2, r3, #1
    320c:	4193      	sbcs	r3, r2
    320e:	b2db      	uxtb	r3, r3
#else
#  error Unknown SERCOM SYNCBUSY scheme!
#endif
}
    3210:	1c18      	adds	r0, r3, #0
    3212:	46bd      	mov	sp, r7
    3214:	b004      	add	sp, #16
    3216:	bd80      	pop	{r7, pc}

00003218 <_i2c_master_wait_for_sync>:
 *
 * \param[in]  module  Pointer to software module structure
 */
static void _i2c_master_wait_for_sync(
		const struct i2c_master_module *const module)
{
    3218:	b580      	push	{r7, lr}
    321a:	b082      	sub	sp, #8
    321c:	af00      	add	r7, sp, #0
    321e:	6078      	str	r0, [r7, #4]
	/* Sanity check. */
	Assert(module);

	while (i2c_master_is_syncing(module)) {
    3220:	46c0      	nop			; (mov r8, r8)
    3222:	687b      	ldr	r3, [r7, #4]
    3224:	1c18      	adds	r0, r3, #0
    3226:	4b03      	ldr	r3, [pc, #12]	; (3234 <_i2c_master_wait_for_sync+0x1c>)
    3228:	4798      	blx	r3
    322a:	1e03      	subs	r3, r0, #0
    322c:	d1f9      	bne.n	3222 <_i2c_master_wait_for_sync+0xa>
		/* Wait for I2C module to sync. */
	}
}
    322e:	46bd      	mov	sp, r7
    3230:	b002      	add	sp, #8
    3232:	bd80      	pop	{r7, pc}
    3234:	000031f5 	.word	0x000031f5

00003238 <i2c_master_get_config_defaults>:
 *
 * \param[out] config  Pointer to configuration structure to be initiated
 */
static inline void i2c_master_get_config_defaults(
		struct i2c_master_config *const config)
{
    3238:	b580      	push	{r7, lr}
    323a:	b082      	sub	sp, #8
    323c:	af00      	add	r7, sp, #0
    323e:	6078      	str	r0, [r7, #4]
	/*Sanity check argument. */
	Assert(config);
	config->baud_rate        = I2C_MASTER_BAUD_RATE_100KHZ;
    3240:	687b      	ldr	r3, [r7, #4]
    3242:	2264      	movs	r2, #100	; 0x64
    3244:	601a      	str	r2, [r3, #0]
#ifdef FEATURE_I2C_FAST_MODE_PLUS_AND_HIGH_SPEED
	config->baud_rate_high_speed = I2C_MASTER_BAUD_RATE_3400KHZ;
    3246:	687b      	ldr	r3, [r7, #4]
    3248:	4a19      	ldr	r2, [pc, #100]	; (32b0 <i2c_master_get_config_defaults+0x78>)
    324a:	605a      	str	r2, [r3, #4]
	config->transfer_speed       = I2C_MASTER_SPEED_STANDARD_AND_FAST;
    324c:	687b      	ldr	r3, [r7, #4]
    324e:	2200      	movs	r2, #0
    3250:	609a      	str	r2, [r3, #8]
#endif
	config->generator_source = GCLK_GENERATOR_0;
    3252:	687b      	ldr	r3, [r7, #4]
    3254:	2200      	movs	r2, #0
    3256:	731a      	strb	r2, [r3, #12]
	config->run_in_standby   = false;
    3258:	687b      	ldr	r3, [r7, #4]
    325a:	2200      	movs	r2, #0
    325c:	761a      	strb	r2, [r3, #24]
	config->start_hold_time  = I2C_MASTER_START_HOLD_TIME_300NS_600NS;
    325e:	687b      	ldr	r3, [r7, #4]
    3260:	2280      	movs	r2, #128	; 0x80
    3262:	0392      	lsls	r2, r2, #14
    3264:	611a      	str	r2, [r3, #16]
	config->buffer_timeout   = 65535;
    3266:	687b      	ldr	r3, [r7, #4]
    3268:	2201      	movs	r2, #1
    326a:	4252      	negs	r2, r2
    326c:	82da      	strh	r2, [r3, #22]
	config->unknown_bus_state_timeout = 65535;
    326e:	687b      	ldr	r3, [r7, #4]
    3270:	2201      	movs	r2, #1
    3272:	4252      	negs	r2, r2
    3274:	829a      	strh	r2, [r3, #20]
	config->pinmux_pad0      = PINMUX_DEFAULT;
    3276:	687b      	ldr	r3, [r7, #4]
    3278:	2200      	movs	r2, #0
    327a:	61da      	str	r2, [r3, #28]
	config->pinmux_pad1      = PINMUX_DEFAULT;
    327c:	687b      	ldr	r3, [r7, #4]
    327e:	2200      	movs	r2, #0
    3280:	621a      	str	r2, [r3, #32]
	config->scl_low_timeout  = false;
    3282:	687b      	ldr	r3, [r7, #4]
    3284:	2224      	movs	r2, #36	; 0x24
    3286:	2100      	movs	r1, #0
    3288:	5499      	strb	r1, [r3, r2]
	config->inactive_timeout = I2C_MASTER_INACTIVE_TIMEOUT_DISABLED;
    328a:	687b      	ldr	r3, [r7, #4]
    328c:	2200      	movs	r2, #0
    328e:	629a      	str	r2, [r3, #40]	; 0x28
#ifdef FEATURE_I2C_SCL_STRETCH_MODE
	config->scl_stretch_only_after_ack_bit = false;
    3290:	687b      	ldr	r3, [r7, #4]
    3292:	222c      	movs	r2, #44	; 0x2c
    3294:	2100      	movs	r1, #0
    3296:	5499      	strb	r1, [r3, r2]
#endif
#ifdef FEATURE_I2C_SCL_EXTEND_TIMEOUT
	config->slave_scl_low_extend_timeout   = false;
    3298:	687b      	ldr	r3, [r7, #4]
    329a:	222d      	movs	r2, #45	; 0x2d
    329c:	2100      	movs	r1, #0
    329e:	5499      	strb	r1, [r3, r2]
	config->master_scl_low_extend_timeout  = false;
    32a0:	687b      	ldr	r3, [r7, #4]
    32a2:	222e      	movs	r2, #46	; 0x2e
    32a4:	2100      	movs	r1, #0
    32a6:	5499      	strb	r1, [r3, r2]
#endif
}
    32a8:	46bd      	mov	sp, r7
    32aa:	b002      	add	sp, #8
    32ac:	bd80      	pop	{r7, pc}
    32ae:	46c0      	nop			; (mov r8, r8)
    32b0:	00000d48 	.word	0x00000d48

000032b4 <i2c_master_enable>:
 *
 * \param[in]  module  Pointer to the software module struct
 */
static inline void i2c_master_enable(
		const struct i2c_master_module *const module)
{
    32b4:	b580      	push	{r7, lr}
    32b6:	b084      	sub	sp, #16
    32b8:	af00      	add	r7, sp, #0
    32ba:	6078      	str	r0, [r7, #4]
	/* Sanity check of arguments. */
	Assert(module);
	Assert(module->hw);

	SercomI2cm *const i2c_module = &(module->hw->I2CM);
    32bc:	687b      	ldr	r3, [r7, #4]
    32be:	681b      	ldr	r3, [r3, #0]
    32c0:	60bb      	str	r3, [r7, #8]

	/* Timeout counter used to force bus state. */
	uint32_t timeout_counter = 0;
    32c2:	2300      	movs	r3, #0
    32c4:	60fb      	str	r3, [r7, #12]

	/* Wait for module to sync. */
	_i2c_master_wait_for_sync(module);
    32c6:	687b      	ldr	r3, [r7, #4]
    32c8:	1c18      	adds	r0, r3, #0
    32ca:	4b10      	ldr	r3, [pc, #64]	; (330c <i2c_master_enable+0x58>)
    32cc:	4798      	blx	r3

	/* Enable module. */
	i2c_module->CTRLA.reg |= SERCOM_I2CM_CTRLA_ENABLE;
    32ce:	68bb      	ldr	r3, [r7, #8]
    32d0:	681b      	ldr	r3, [r3, #0]
    32d2:	2202      	movs	r2, #2
    32d4:	431a      	orrs	r2, r3
    32d6:	68bb      	ldr	r3, [r7, #8]
    32d8:	601a      	str	r2, [r3, #0]
#if I2C_MASTER_CALLBACK_MODE == true
	/* Enable module interrupts */
	system_interrupt_enable(_sercom_get_interrupt_vector(module->hw));
#endif
	/* Start timeout if bus state is unknown. */
	while (!(i2c_module->STATUS.reg & SERCOM_I2CM_STATUS_BUSSTATE(1))) {
    32da:	e00c      	b.n	32f6 <i2c_master_enable+0x42>
		timeout_counter++;
    32dc:	68fb      	ldr	r3, [r7, #12]
    32de:	3301      	adds	r3, #1
    32e0:	60fb      	str	r3, [r7, #12]
		if(timeout_counter >= (module->unknown_bus_state_timeout)) {
    32e2:	687b      	ldr	r3, [r7, #4]
    32e4:	88db      	ldrh	r3, [r3, #6]
    32e6:	1e1a      	subs	r2, r3, #0
    32e8:	68fb      	ldr	r3, [r7, #12]
    32ea:	429a      	cmp	r2, r3
    32ec:	d803      	bhi.n	32f6 <i2c_master_enable+0x42>
			/* Timeout, force bus state to idle. */
			i2c_module->STATUS.reg = SERCOM_I2CM_STATUS_BUSSTATE(1);
    32ee:	68bb      	ldr	r3, [r7, #8]
    32f0:	2210      	movs	r2, #16
    32f2:	835a      	strh	r2, [r3, #26]
			/* Workaround #1 */
			return;
    32f4:	e006      	b.n	3304 <i2c_master_enable+0x50>
#if I2C_MASTER_CALLBACK_MODE == true
	/* Enable module interrupts */
	system_interrupt_enable(_sercom_get_interrupt_vector(module->hw));
#endif
	/* Start timeout if bus state is unknown. */
	while (!(i2c_module->STATUS.reg & SERCOM_I2CM_STATUS_BUSSTATE(1))) {
    32f6:	68bb      	ldr	r3, [r7, #8]
    32f8:	8b5b      	ldrh	r3, [r3, #26]
    32fa:	b29b      	uxth	r3, r3
    32fc:	1c1a      	adds	r2, r3, #0
    32fe:	2310      	movs	r3, #16
    3300:	4013      	ands	r3, r2
    3302:	d0eb      	beq.n	32dc <i2c_master_enable+0x28>
			i2c_module->STATUS.reg = SERCOM_I2CM_STATUS_BUSSTATE(1);
			/* Workaround #1 */
			return;
		}
	}
}
    3304:	46bd      	mov	sp, r7
    3306:	b004      	add	sp, #16
    3308:	bd80      	pop	{r7, pc}
    330a:	46c0      	nop			; (mov r8, r8)
    330c:	00003219 	.word	0x00003219

00003310 <configure_i2c_master>:

/*
	Configures I2C connection with standard settings
*/
void configure_i2c_master(void)
{
    3310:	b580      	push	{r7, lr}
    3312:	b082      	sub	sp, #8
    3314:	af00      	add	r7, sp, #0
	/* Initialize config structure and software module. */
	//! [init_conf]
	i2c_master_get_config_defaults(&config_i2c_master);
    3316:	4b18      	ldr	r3, [pc, #96]	; (3378 <configure_i2c_master+0x68>)
    3318:	1c18      	adds	r0, r3, #0
    331a:	4b18      	ldr	r3, [pc, #96]	; (337c <configure_i2c_master+0x6c>)
    331c:	4798      	blx	r3
	//! [init_conf]

	/* Change buffer timeout to something longer. */
	//! [conf_change]
	config_i2c_master.buffer_timeout = 65535;
    331e:	4b16      	ldr	r3, [pc, #88]	; (3378 <configure_i2c_master+0x68>)
    3320:	2201      	movs	r2, #1
    3322:	4252      	negs	r2, r2
    3324:	82da      	strh	r2, [r3, #22]
	//! [conf_change]

	/* Initialize and enable device with config. */
	//! [init_module]
	int init_status = i2c_master_init(&i2c_master_instance, SERCOM2, &config_i2c_master);
    3326:	4a16      	ldr	r2, [pc, #88]	; (3380 <configure_i2c_master+0x70>)
    3328:	4916      	ldr	r1, [pc, #88]	; (3384 <configure_i2c_master+0x74>)
    332a:	4b13      	ldr	r3, [pc, #76]	; (3378 <configure_i2c_master+0x68>)
    332c:	1c10      	adds	r0, r2, #0
    332e:	1c1a      	adds	r2, r3, #0
    3330:	4b15      	ldr	r3, [pc, #84]	; (3388 <configure_i2c_master+0x78>)
    3332:	4798      	blx	r3
    3334:	1c03      	adds	r3, r0, #0
    3336:	607b      	str	r3, [r7, #4]
	printf("I2C master init status: %d\r\n", init_status);
    3338:	4a14      	ldr	r2, [pc, #80]	; (338c <configure_i2c_master+0x7c>)
    333a:	687b      	ldr	r3, [r7, #4]
    333c:	1c10      	adds	r0, r2, #0
    333e:	1c19      	adds	r1, r3, #0
    3340:	4b13      	ldr	r3, [pc, #76]	; (3390 <configure_i2c_master+0x80>)
    3342:	4798      	blx	r3
	while(init_status != STATUS_OK) {
    3344:	e00e      	b.n	3364 <configure_i2c_master+0x54>
		init_status = i2c_master_init(&i2c_master_instance, SERCOM2, &config_i2c_master);
    3346:	4a0e      	ldr	r2, [pc, #56]	; (3380 <configure_i2c_master+0x70>)
    3348:	490e      	ldr	r1, [pc, #56]	; (3384 <configure_i2c_master+0x74>)
    334a:	4b0b      	ldr	r3, [pc, #44]	; (3378 <configure_i2c_master+0x68>)
    334c:	1c10      	adds	r0, r2, #0
    334e:	1c1a      	adds	r2, r3, #0
    3350:	4b0d      	ldr	r3, [pc, #52]	; (3388 <configure_i2c_master+0x78>)
    3352:	4798      	blx	r3
    3354:	1c03      	adds	r3, r0, #0
    3356:	607b      	str	r3, [r7, #4]
		printf("I2C master init error status: %d\r\n", init_status);
    3358:	4a0e      	ldr	r2, [pc, #56]	; (3394 <configure_i2c_master+0x84>)
    335a:	687b      	ldr	r3, [r7, #4]
    335c:	1c10      	adds	r0, r2, #0
    335e:	1c19      	adds	r1, r3, #0
    3360:	4b0b      	ldr	r3, [pc, #44]	; (3390 <configure_i2c_master+0x80>)
    3362:	4798      	blx	r3

	/* Initialize and enable device with config. */
	//! [init_module]
	int init_status = i2c_master_init(&i2c_master_instance, SERCOM2, &config_i2c_master);
	printf("I2C master init status: %d\r\n", init_status);
	while(init_status != STATUS_OK) {
    3364:	687b      	ldr	r3, [r7, #4]
    3366:	2b00      	cmp	r3, #0
    3368:	d1ed      	bne.n	3346 <configure_i2c_master+0x36>
		printf("I2C master init error status: %d\r\n", init_status);
	}
	//! [init_module]

	//! [enable_module]
	i2c_master_enable(&i2c_master_instance);
    336a:	4b05      	ldr	r3, [pc, #20]	; (3380 <configure_i2c_master+0x70>)
    336c:	1c18      	adds	r0, r3, #0
    336e:	4b0a      	ldr	r3, [pc, #40]	; (3398 <configure_i2c_master+0x88>)
    3370:	4798      	blx	r3
	//! [enable_module]
}
    3372:	46bd      	mov	sp, r7
    3374:	b002      	add	sp, #8
    3376:	bd80      	pop	{r7, pc}
    3378:	200001a4 	.word	0x200001a4
    337c:	00003239 	.word	0x00003239
    3380:	20000198 	.word	0x20000198
    3384:	42001000 	.word	0x42001000
    3388:	000004f1 	.word	0x000004f1
    338c:	0000759c 	.word	0x0000759c
    3390:	00006505 	.word	0x00006505
    3394:	000075bc 	.word	0x000075bc
    3398:	000032b5 	.word	0x000032b5

0000339c <i2c_writer_helper>:
	detailed in the packet
*/
void i2c_writer_helper(struct i2c_master_packet* packet_address,
                       enum status_code (*i2c_write)(struct i2c_master_module *const module,
                                                     struct i2c_master_packet *const packet))
{
    339c:	b580      	push	{r7, lr}
    339e:	b084      	sub	sp, #16
    33a0:	af00      	add	r7, sp, #0
    33a2:	6078      	str	r0, [r7, #4]
    33a4:	6039      	str	r1, [r7, #0]
	uint16_t timeout = 0;
    33a6:	230e      	movs	r3, #14
    33a8:	18fb      	adds	r3, r7, r3
    33aa:	2200      	movs	r2, #0
    33ac:	801a      	strh	r2, [r3, #0]
	while (true) {
		int x = i2c_write(&i2c_master_instance, packet_address);
    33ae:	491b      	ldr	r1, [pc, #108]	; (341c <i2c_writer_helper+0x80>)
    33b0:	687a      	ldr	r2, [r7, #4]
    33b2:	683b      	ldr	r3, [r7, #0]
    33b4:	1c08      	adds	r0, r1, #0
    33b6:	1c11      	adds	r1, r2, #0
    33b8:	4798      	blx	r3
    33ba:	1c03      	adds	r3, r0, #0
    33bc:	60bb      	str	r3, [r7, #8]
		if (x == STATUS_OK){
    33be:	68bb      	ldr	r3, [r7, #8]
    33c0:	2b00      	cmp	r3, #0
    33c2:	d100      	bne.n	33c6 <i2c_writer_helper+0x2a>
			break;
    33c4:	e027      	b.n	3416 <i2c_writer_helper+0x7a>
		}
		if(timeout%100 == 0) {
    33c6:	230e      	movs	r3, #14
    33c8:	18fb      	adds	r3, r7, r3
    33ca:	881a      	ldrh	r2, [r3, #0]
    33cc:	4b14      	ldr	r3, [pc, #80]	; (3420 <i2c_writer_helper+0x84>)
    33ce:	1c10      	adds	r0, r2, #0
    33d0:	2164      	movs	r1, #100	; 0x64
    33d2:	4798      	blx	r3
    33d4:	1c0b      	adds	r3, r1, #0
    33d6:	b29b      	uxth	r3, r3
    33d8:	2b00      	cmp	r3, #0
    33da:	d105      	bne.n	33e8 <i2c_writer_helper+0x4c>
			printf("i2c_master_write_packet_wait status: %d\r\n",x);
    33dc:	4a11      	ldr	r2, [pc, #68]	; (3424 <i2c_writer_helper+0x88>)
    33de:	68bb      	ldr	r3, [r7, #8]
    33e0:	1c10      	adds	r0, r2, #0
    33e2:	1c19      	adds	r1, r3, #0
    33e4:	4b10      	ldr	r3, [pc, #64]	; (3428 <i2c_writer_helper+0x8c>)
    33e6:	4798      	blx	r3
		}
		// Increment timeout counter and check if timed out.
		if (timeout++ == TIMEOUT) {
    33e8:	230e      	movs	r3, #14
    33ea:	18fb      	adds	r3, r7, r3
    33ec:	881b      	ldrh	r3, [r3, #0]
    33ee:	220e      	movs	r2, #14
    33f0:	18ba      	adds	r2, r7, r2
    33f2:	1c59      	adds	r1, r3, #1
    33f4:	8011      	strh	r1, [r2, #0]
    33f6:	22fa      	movs	r2, #250	; 0xfa
    33f8:	0092      	lsls	r2, r2, #2
    33fa:	4293      	cmp	r3, r2
    33fc:	d104      	bne.n	3408 <i2c_writer_helper+0x6c>
			printf("I2C write timed out.\r\n");
    33fe:	4b0b      	ldr	r3, [pc, #44]	; (342c <i2c_writer_helper+0x90>)
    3400:	1c18      	adds	r0, r3, #0
    3402:	4b0b      	ldr	r3, [pc, #44]	; (3430 <i2c_writer_helper+0x94>)
    3404:	4798      	blx	r3
			break;
    3406:	e006      	b.n	3416 <i2c_writer_helper+0x7a>
		}
		printf("i2c_master_write_packet_wait status: %d\r\n",x);
    3408:	4a06      	ldr	r2, [pc, #24]	; (3424 <i2c_writer_helper+0x88>)
    340a:	68bb      	ldr	r3, [r7, #8]
    340c:	1c10      	adds	r0, r2, #0
    340e:	1c19      	adds	r1, r3, #0
    3410:	4b05      	ldr	r3, [pc, #20]	; (3428 <i2c_writer_helper+0x8c>)
    3412:	4798      	blx	r3
	}
    3414:	e7cb      	b.n	33ae <i2c_writer_helper+0x12>
}
    3416:	46bd      	mov	sp, r7
    3418:	b004      	add	sp, #16
    341a:	bd80      	pop	{r7, pc}
    341c:	20000198 	.word	0x20000198
    3420:	00003ef9 	.word	0x00003ef9
    3424:	000075e0 	.word	0x000075e0
    3428:	00006505 	.word	0x00006505
    342c:	0000760c 	.word	0x0000760c
    3430:	000065fd 	.word	0x000065fd

00003434 <i2c_write_command>:

/*
	Given a pointer to a packet, perform a write over I2C following the information
	detailed in the packet
*/
void i2c_write_command(struct i2c_master_packet* packet_address){
    3434:	b580      	push	{r7, lr}
    3436:	b082      	sub	sp, #8
    3438:	af00      	add	r7, sp, #0
    343a:	6078      	str	r0, [r7, #4]
  i2c_writer_helper(packet_address, i2c_master_write_packet_wait);
    343c:	687a      	ldr	r2, [r7, #4]
    343e:	4b04      	ldr	r3, [pc, #16]	; (3450 <i2c_write_command+0x1c>)
    3440:	1c10      	adds	r0, r2, #0
    3442:	1c19      	adds	r1, r3, #0
    3444:	4b03      	ldr	r3, [pc, #12]	; (3454 <i2c_write_command+0x20>)
    3446:	4798      	blx	r3
}
    3448:	46bd      	mov	sp, r7
    344a:	b002      	add	sp, #8
    344c:	bd80      	pop	{r7, pc}
    344e:	46c0      	nop			; (mov r8, r8)
    3450:	00000ac5 	.word	0x00000ac5
    3454:	0000339d 	.word	0x0000339d

00003458 <i2c_read_command>:

/*
	Given a pointer to a packet, perform a read over I2C following the information
	detailed in the packet
*/
void i2c_read_command(struct i2c_master_packet* packet_address){
    3458:	b580      	push	{r7, lr}
    345a:	b084      	sub	sp, #16
    345c:	af00      	add	r7, sp, #0
    345e:	6078      	str	r0, [r7, #4]
	uint16_t timeout = 0;
    3460:	230e      	movs	r3, #14
    3462:	18fb      	adds	r3, r7, r3
    3464:	2200      	movs	r2, #0
    3466:	801a      	strh	r2, [r3, #0]
	while ((i2c_master_read_packet_wait(&i2c_master_instance, packet_address)) != STATUS_OK) {
    3468:	e00b      	b.n	3482 <i2c_read_command+0x2a>
		if (timeout++ == TIMEOUT) {
    346a:	230e      	movs	r3, #14
    346c:	18fb      	adds	r3, r7, r3
    346e:	881b      	ldrh	r3, [r3, #0]
    3470:	220e      	movs	r2, #14
    3472:	18ba      	adds	r2, r7, r2
    3474:	1c59      	adds	r1, r3, #1
    3476:	8011      	strh	r1, [r2, #0]
    3478:	22fa      	movs	r2, #250	; 0xfa
    347a:	0092      	lsls	r2, r2, #2
    347c:	4293      	cmp	r3, r2
    347e:	d100      	bne.n	3482 <i2c_read_command+0x2a>
			break;
    3480:	e007      	b.n	3492 <i2c_read_command+0x3a>
	Given a pointer to a packet, perform a read over I2C following the information
	detailed in the packet
*/
void i2c_read_command(struct i2c_master_packet* packet_address){
	uint16_t timeout = 0;
	while ((i2c_master_read_packet_wait(&i2c_master_instance, packet_address)) != STATUS_OK) {
    3482:	4a05      	ldr	r2, [pc, #20]	; (3498 <i2c_read_command+0x40>)
    3484:	687b      	ldr	r3, [r7, #4]
    3486:	1c10      	adds	r0, r2, #0
    3488:	1c19      	adds	r1, r3, #0
    348a:	4b04      	ldr	r3, [pc, #16]	; (349c <i2c_read_command+0x44>)
    348c:	4798      	blx	r3
    348e:	1e03      	subs	r3, r0, #0
    3490:	d1eb      	bne.n	346a <i2c_read_command+0x12>
		if (timeout++ == TIMEOUT) {
			break;
			printf("timeout");
		}
	}
}
    3492:	46bd      	mov	sp, r7
    3494:	b004      	add	sp, #16
    3496:	bd80      	pop	{r7, pc}
    3498:	20000198 	.word	0x20000198
    349c:	00000921 	.word	0x00000921

000034a0 <system_interrupt_enable>:
 *
 * \param[in] vector Interrupt vector to enable
 */
static inline void system_interrupt_enable(
		const enum system_interrupt_vector vector)
{
    34a0:	b580      	push	{r7, lr}
    34a2:	b082      	sub	sp, #8
    34a4:	af00      	add	r7, sp, #0
    34a6:	1c02      	adds	r2, r0, #0
    34a8:	1dfb      	adds	r3, r7, #7
    34aa:	701a      	strb	r2, [r3, #0]
	NVIC->ISER[0] = (uint32_t)(1 << ((uint32_t)vector & 0x0000001f));
    34ac:	4b06      	ldr	r3, [pc, #24]	; (34c8 <system_interrupt_enable+0x28>)
    34ae:	1dfa      	adds	r2, r7, #7
    34b0:	7812      	ldrb	r2, [r2, #0]
    34b2:	1c11      	adds	r1, r2, #0
    34b4:	221f      	movs	r2, #31
    34b6:	400a      	ands	r2, r1
    34b8:	2101      	movs	r1, #1
    34ba:	4091      	lsls	r1, r2
    34bc:	1c0a      	adds	r2, r1, #0
    34be:	601a      	str	r2, [r3, #0]
}
    34c0:	46bd      	mov	sp, r7
    34c2:	b002      	add	sp, #8
    34c4:	bd80      	pop	{r7, pc}
    34c6:	46c0      	nop			; (mov r8, r8)
    34c8:	e000e100 	.word	0xe000e100

000034cc <usart_is_syncing>:
 * \retval false  Peripheral is not busy syncing and can be read/written without
 *                stalling the bus.
 */
static inline bool usart_is_syncing(
		const struct usart_module *const module)
{
    34cc:	b580      	push	{r7, lr}
    34ce:	b084      	sub	sp, #16
    34d0:	af00      	add	r7, sp, #0
    34d2:	6078      	str	r0, [r7, #4]
	/* Sanity check arguments */
	Assert(module);
	Assert(module->hw);

	SercomUsart *const usart_hw = &(module->hw->USART);
    34d4:	687b      	ldr	r3, [r7, #4]
    34d6:	681b      	ldr	r3, [r3, #0]
    34d8:	60fb      	str	r3, [r7, #12]

#ifdef FEATURE_USART_SYNC_SCHEME_V2
	return (usart_hw->SYNCBUSY.reg);
    34da:	68fb      	ldr	r3, [r7, #12]
    34dc:	69db      	ldr	r3, [r3, #28]
    34de:	1e5a      	subs	r2, r3, #1
    34e0:	4193      	sbcs	r3, r2
    34e2:	b2db      	uxtb	r3, r3
#else
	return (usart_hw->STATUS.reg & SERCOM_USART_STATUS_SYNCBUSY);
#endif
}
    34e4:	1c18      	adds	r0, r3, #0
    34e6:	46bd      	mov	sp, r7
    34e8:	b004      	add	sp, #16
    34ea:	bd80      	pop	{r7, pc}

000034ec <_usart_wait_for_sync>:
 * \internal
 * Waits until synchronization is complete
 */
static inline void _usart_wait_for_sync(
		const struct usart_module *const module)
{
    34ec:	b580      	push	{r7, lr}
    34ee:	b082      	sub	sp, #8
    34f0:	af00      	add	r7, sp, #0
    34f2:	6078      	str	r0, [r7, #4]
	/* Sanity check. */
	Assert(module);

	while (usart_is_syncing(module)) {
    34f4:	46c0      	nop			; (mov r8, r8)
    34f6:	687b      	ldr	r3, [r7, #4]
    34f8:	1c18      	adds	r0, r3, #0
    34fa:	4b03      	ldr	r3, [pc, #12]	; (3508 <_usart_wait_for_sync+0x1c>)
    34fc:	4798      	blx	r3
    34fe:	1e03      	subs	r3, r0, #0
    3500:	d1f9      	bne.n	34f6 <_usart_wait_for_sync+0xa>
		/* Wait until the synchronization is complete */
	}
}
    3502:	46bd      	mov	sp, r7
    3504:	b002      	add	sp, #8
    3506:	bd80      	pop	{r7, pc}
    3508:	000034cd 	.word	0x000034cd

0000350c <usart_get_config_defaults>:
 *
 * \param[in,out] config  Pointer to configuration struct
 */
static inline void usart_get_config_defaults(
		struct usart_config *const config)
{
    350c:	b580      	push	{r7, lr}
    350e:	b082      	sub	sp, #8
    3510:	af00      	add	r7, sp, #0
    3512:	6078      	str	r0, [r7, #4]
	/* Sanity check arguments */
	Assert(config);

	/* Set default config in the config struct */
	config->data_order       = USART_DATAORDER_LSB;
    3514:	687b      	ldr	r3, [r7, #4]
    3516:	2280      	movs	r2, #128	; 0x80
    3518:	05d2      	lsls	r2, r2, #23
    351a:	601a      	str	r2, [r3, #0]
	config->transfer_mode    = USART_TRANSFER_ASYNCHRONOUSLY;
    351c:	687b      	ldr	r3, [r7, #4]
    351e:	2200      	movs	r2, #0
    3520:	605a      	str	r2, [r3, #4]
	config->parity           = USART_PARITY_NONE;
    3522:	687b      	ldr	r3, [r7, #4]
    3524:	22ff      	movs	r2, #255	; 0xff
    3526:	811a      	strh	r2, [r3, #8]
	config->stopbits         = USART_STOPBITS_1;
    3528:	687b      	ldr	r3, [r7, #4]
    352a:	2200      	movs	r2, #0
    352c:	729a      	strb	r2, [r3, #10]
	config->character_size   = USART_CHARACTER_SIZE_8BIT;
    352e:	687b      	ldr	r3, [r7, #4]
    3530:	2200      	movs	r2, #0
    3532:	72da      	strb	r2, [r3, #11]
	config->baudrate         = 9600;
    3534:	687b      	ldr	r3, [r7, #4]
    3536:	2296      	movs	r2, #150	; 0x96
    3538:	0192      	lsls	r2, r2, #6
    353a:	621a      	str	r2, [r3, #32]
	config->receiver_enable  = true;
    353c:	687b      	ldr	r3, [r7, #4]
    353e:	2224      	movs	r2, #36	; 0x24
    3540:	2101      	movs	r1, #1
    3542:	5499      	strb	r1, [r3, r2]
	config->transmitter_enable = true;
    3544:	687b      	ldr	r3, [r7, #4]
    3546:	2225      	movs	r2, #37	; 0x25
    3548:	2101      	movs	r1, #1
    354a:	5499      	strb	r1, [r3, r2]
	config->clock_polarity_inverted = false;
    354c:	687b      	ldr	r3, [r7, #4]
    354e:	2226      	movs	r2, #38	; 0x26
    3550:	2100      	movs	r1, #0
    3552:	5499      	strb	r1, [r3, r2]
	config->use_external_clock = false;
    3554:	687b      	ldr	r3, [r7, #4]
    3556:	2227      	movs	r2, #39	; 0x27
    3558:	2100      	movs	r1, #0
    355a:	5499      	strb	r1, [r3, r2]
	config->ext_clock_freq   = 0;
    355c:	687b      	ldr	r3, [r7, #4]
    355e:	2200      	movs	r2, #0
    3560:	629a      	str	r2, [r3, #40]	; 0x28
	config->mux_setting      = USART_RX_1_TX_2_XCK_3;
    3562:	687b      	ldr	r3, [r7, #4]
    3564:	2288      	movs	r2, #136	; 0x88
    3566:	0352      	lsls	r2, r2, #13
    3568:	60da      	str	r2, [r3, #12]
	config->run_in_standby   = false;
    356a:	687b      	ldr	r3, [r7, #4]
    356c:	222c      	movs	r2, #44	; 0x2c
    356e:	2100      	movs	r1, #0
    3570:	5499      	strb	r1, [r3, r2]
	config->generator_source = GCLK_GENERATOR_0;
    3572:	687b      	ldr	r3, [r7, #4]
    3574:	222d      	movs	r2, #45	; 0x2d
    3576:	2100      	movs	r1, #0
    3578:	5499      	strb	r1, [r3, r2]
	config->pinmux_pad0      = PINMUX_DEFAULT;
    357a:	687b      	ldr	r3, [r7, #4]
    357c:	2200      	movs	r2, #0
    357e:	631a      	str	r2, [r3, #48]	; 0x30
	config->pinmux_pad1      = PINMUX_DEFAULT;
    3580:	687b      	ldr	r3, [r7, #4]
    3582:	2200      	movs	r2, #0
    3584:	635a      	str	r2, [r3, #52]	; 0x34
	config->pinmux_pad2      = PINMUX_DEFAULT;
    3586:	687b      	ldr	r3, [r7, #4]
    3588:	2200      	movs	r2, #0
    358a:	639a      	str	r2, [r3, #56]	; 0x38
	config->pinmux_pad3      = PINMUX_DEFAULT;
    358c:	687b      	ldr	r3, [r7, #4]
    358e:	2200      	movs	r2, #0
    3590:	63da      	str	r2, [r3, #60]	; 0x3c
#ifdef FEATURE_USART_OVER_SAMPLE
	config->sample_adjustment     = USART_SAMPLE_ADJUSTMENT_7_8_9;
    3592:	687b      	ldr	r3, [r7, #4]
    3594:	2200      	movs	r2, #0
    3596:	615a      	str	r2, [r3, #20]
	config->sample_rate           = USART_SAMPLE_RATE_16X_ARITHMETIC;
    3598:	687b      	ldr	r3, [r7, #4]
    359a:	2200      	movs	r2, #0
    359c:	821a      	strh	r2, [r3, #16]
#endif
#ifdef FEATURE_USART_LIN_SLAVE
	config->lin_slave_enable      = false;
    359e:	687b      	ldr	r3, [r7, #4]
    35a0:	2200      	movs	r2, #0
    35a2:	76da      	strb	r2, [r3, #27]
#endif
#ifdef FEATURE_USART_IMMEDIATE_BUFFER_OVERFLOW_NOTIFICATION
	config->immediate_buffer_overflow_notification      = false;
    35a4:	687b      	ldr	r3, [r7, #4]
    35a6:	2200      	movs	r2, #0
    35a8:	761a      	strb	r2, [r3, #24]
#endif
#ifdef FEATURE_USART_START_FRAME_DECTION
	config->start_frame_detection_enable                = false;
    35aa:	687b      	ldr	r3, [r7, #4]
    35ac:	2200      	movs	r2, #0
    35ae:	771a      	strb	r2, [r3, #28]
#endif
#ifdef FEATURE_USART_IRDA
	config->encoding_format_enable                      = false;
    35b0:	687b      	ldr	r3, [r7, #4]
    35b2:	2200      	movs	r2, #0
    35b4:	765a      	strb	r2, [r3, #25]
	config->receive_pulse_length                        = 19;
    35b6:	687b      	ldr	r3, [r7, #4]
    35b8:	2213      	movs	r2, #19
    35ba:	769a      	strb	r2, [r3, #26]
#endif
#ifdef FEATURE_USART_COLLISION_DECTION
	config->collision_detection_enable                  = false;
    35bc:	687b      	ldr	r3, [r7, #4]
    35be:	2200      	movs	r2, #0
    35c0:	775a      	strb	r2, [r3, #29]
#endif
}
    35c2:	46bd      	mov	sp, r7
    35c4:	b002      	add	sp, #8
    35c6:	bd80      	pop	{r7, pc}

000035c8 <usart_enable>:
 *
 * \param[in]  module  Pointer to USART software instance struct
 */
static inline void usart_enable(
		const struct usart_module *const module)
{
    35c8:	b580      	push	{r7, lr}
    35ca:	b084      	sub	sp, #16
    35cc:	af00      	add	r7, sp, #0
    35ce:	6078      	str	r0, [r7, #4]
	/* Sanity check arguments */
	Assert(module);
	Assert(module->hw);

	/* Get a pointer to the hardware module instance */
	SercomUsart *const usart_hw = &(module->hw->USART);
    35d0:	687b      	ldr	r3, [r7, #4]
    35d2:	681b      	ldr	r3, [r3, #0]
    35d4:	60fb      	str	r3, [r7, #12]

#if USART_CALLBACK_MODE == true
	/* Enable Global interrupt for module */
	system_interrupt_enable(_sercom_get_interrupt_vector(module->hw));
    35d6:	687b      	ldr	r3, [r7, #4]
    35d8:	681b      	ldr	r3, [r3, #0]
    35da:	1c18      	adds	r0, r3, #0
    35dc:	4b09      	ldr	r3, [pc, #36]	; (3604 <usart_enable+0x3c>)
    35de:	4798      	blx	r3
    35e0:	1c03      	adds	r3, r0, #0
    35e2:	1c18      	adds	r0, r3, #0
    35e4:	4b08      	ldr	r3, [pc, #32]	; (3608 <usart_enable+0x40>)
    35e6:	4798      	blx	r3
#endif

	/* Wait until synchronization is complete */
	_usart_wait_for_sync(module);
    35e8:	687b      	ldr	r3, [r7, #4]
    35ea:	1c18      	adds	r0, r3, #0
    35ec:	4b07      	ldr	r3, [pc, #28]	; (360c <usart_enable+0x44>)
    35ee:	4798      	blx	r3

	/* Enable USART module */
	usart_hw->CTRLA.reg |= SERCOM_USART_CTRLA_ENABLE;
    35f0:	68fb      	ldr	r3, [r7, #12]
    35f2:	681b      	ldr	r3, [r3, #0]
    35f4:	2202      	movs	r2, #2
    35f6:	431a      	orrs	r2, r3
    35f8:	68fb      	ldr	r3, [r7, #12]
    35fa:	601a      	str	r2, [r3, #0]
}
    35fc:	46bd      	mov	sp, r7
    35fe:	b004      	add	sp, #16
    3600:	bd80      	pop	{r7, pc}
    3602:	46c0      	nop			; (mov r8, r8)
    3604:	00001165 	.word	0x00001165
    3608:	000034a1 	.word	0x000034a1
    360c:	000034ed 	.word	0x000034ed

00003610 <usart_serial_init>:
 */
static inline bool usart_serial_init(
		struct usart_module *const module,
		usart_inst_t const hw,
		const struct usart_config *const config)
{
    3610:	b580      	push	{r7, lr}
    3612:	b084      	sub	sp, #16
    3614:	af00      	add	r7, sp, #0
    3616:	60f8      	str	r0, [r7, #12]
    3618:	60b9      	str	r1, [r7, #8]
    361a:	607a      	str	r2, [r7, #4]
	if (usart_init(module, hw, config) == STATUS_OK) {
    361c:	68f9      	ldr	r1, [r7, #12]
    361e:	68ba      	ldr	r2, [r7, #8]
    3620:	687b      	ldr	r3, [r7, #4]
    3622:	1c08      	adds	r0, r1, #0
    3624:	1c11      	adds	r1, r2, #0
    3626:	1c1a      	adds	r2, r3, #0
    3628:	4b05      	ldr	r3, [pc, #20]	; (3640 <usart_serial_init+0x30>)
    362a:	4798      	blx	r3
    362c:	1e03      	subs	r3, r0, #0
    362e:	d101      	bne.n	3634 <usart_serial_init+0x24>
		return true;
    3630:	2301      	movs	r3, #1
    3632:	e000      	b.n	3636 <usart_serial_init+0x26>
	}
	else {
		return false;
    3634:	2300      	movs	r3, #0
	}
}
    3636:	1c18      	adds	r0, r3, #0
    3638:	46bd      	mov	sp, r7
    363a:	b004      	add	sp, #16
    363c:	bd80      	pop	{r7, pc}
    363e:	46c0      	nop			; (mov r8, r8)
    3640:	00001611 	.word	0x00001611

00003644 <usart_serial_putchar>:
 * \return Status code
 */
static inline enum status_code usart_serial_putchar(
		struct usart_module *const module,
		uint8_t c)
{
    3644:	b580      	push	{r7, lr}
    3646:	b082      	sub	sp, #8
    3648:	af00      	add	r7, sp, #0
    364a:	6078      	str	r0, [r7, #4]
    364c:	1c0a      	adds	r2, r1, #0
    364e:	1cfb      	adds	r3, r7, #3
    3650:	701a      	strb	r2, [r3, #0]
	while(STATUS_OK !=usart_write_wait(module, c));
    3652:	46c0      	nop			; (mov r8, r8)
    3654:	1cfb      	adds	r3, r7, #3
    3656:	781b      	ldrb	r3, [r3, #0]
    3658:	b29b      	uxth	r3, r3
    365a:	687a      	ldr	r2, [r7, #4]
    365c:	1c10      	adds	r0, r2, #0
    365e:	1c19      	adds	r1, r3, #0
    3660:	4b04      	ldr	r3, [pc, #16]	; (3674 <usart_serial_putchar+0x30>)
    3662:	4798      	blx	r3
    3664:	1e03      	subs	r3, r0, #0
    3666:	d1f5      	bne.n	3654 <usart_serial_putchar+0x10>

	return STATUS_OK;
    3668:	2300      	movs	r3, #0
}
    366a:	1c18      	adds	r0, r3, #0
    366c:	46bd      	mov	sp, r7
    366e:	b002      	add	sp, #8
    3670:	bd80      	pop	{r7, pc}
    3672:	46c0      	nop			; (mov r8, r8)
    3674:	00001881 	.word	0x00001881

00003678 <usart_serial_getchar>:
 * \param[out]    c       Destination for the read character.
 */
static inline void usart_serial_getchar(
		struct usart_module *const module,
		uint8_t *c)
{
    3678:	b580      	push	{r7, lr}
    367a:	b084      	sub	sp, #16
    367c:	af00      	add	r7, sp, #0
    367e:	6078      	str	r0, [r7, #4]
    3680:	6039      	str	r1, [r7, #0]
	uint16_t temp = 0;
    3682:	230e      	movs	r3, #14
    3684:	18fb      	adds	r3, r7, r3
    3686:	2200      	movs	r2, #0
    3688:	801a      	strh	r2, [r3, #0]

	while(STATUS_OK != usart_read_wait(module, &temp));
    368a:	46c0      	nop			; (mov r8, r8)
    368c:	687a      	ldr	r2, [r7, #4]
    368e:	230e      	movs	r3, #14
    3690:	18fb      	adds	r3, r7, r3
    3692:	1c10      	adds	r0, r2, #0
    3694:	1c19      	adds	r1, r3, #0
    3696:	4b06      	ldr	r3, [pc, #24]	; (36b0 <usart_serial_getchar+0x38>)
    3698:	4798      	blx	r3
    369a:	1e03      	subs	r3, r0, #0
    369c:	d1f6      	bne.n	368c <usart_serial_getchar+0x14>

	*c = temp;
    369e:	230e      	movs	r3, #14
    36a0:	18fb      	adds	r3, r7, r3
    36a2:	881b      	ldrh	r3, [r3, #0]
    36a4:	b2da      	uxtb	r2, r3
    36a6:	683b      	ldr	r3, [r7, #0]
    36a8:	701a      	strb	r2, [r3, #0]
}
    36aa:	46bd      	mov	sp, r7
    36ac:	b004      	add	sp, #16
    36ae:	bd80      	pop	{r7, pc}
    36b0:	000018e5 	.word	0x000018e5

000036b4 <stdio_serial_init>:
 */
static inline void stdio_serial_init(
		struct usart_module *const module,
		usart_inst_t const hw,
		const struct usart_config *const config)
{
    36b4:	b580      	push	{r7, lr}
    36b6:	b084      	sub	sp, #16
    36b8:	af00      	add	r7, sp, #0
    36ba:	60f8      	str	r0, [r7, #12]
    36bc:	60b9      	str	r1, [r7, #8]
    36be:	607a      	str	r2, [r7, #4]
	stdio_base = (void *)module;
    36c0:	4b10      	ldr	r3, [pc, #64]	; (3704 <stdio_serial_init+0x50>)
    36c2:	68fa      	ldr	r2, [r7, #12]
    36c4:	601a      	str	r2, [r3, #0]
	ptr_put = (int (*)(void volatile*,char))&usart_serial_putchar;
    36c6:	4b10      	ldr	r3, [pc, #64]	; (3708 <stdio_serial_init+0x54>)
    36c8:	4a10      	ldr	r2, [pc, #64]	; (370c <stdio_serial_init+0x58>)
    36ca:	601a      	str	r2, [r3, #0]
	ptr_get = (void (*)(void volatile*,char*))&usart_serial_getchar;
    36cc:	4b10      	ldr	r3, [pc, #64]	; (3710 <stdio_serial_init+0x5c>)
    36ce:	4a11      	ldr	r2, [pc, #68]	; (3714 <stdio_serial_init+0x60>)
    36d0:	601a      	str	r2, [r3, #0]

	usart_serial_init(module, hw, config);
    36d2:	68f9      	ldr	r1, [r7, #12]
    36d4:	68ba      	ldr	r2, [r7, #8]
    36d6:	687b      	ldr	r3, [r7, #4]
    36d8:	1c08      	adds	r0, r1, #0
    36da:	1c11      	adds	r1, r2, #0
    36dc:	1c1a      	adds	r2, r3, #0
    36de:	4b0e      	ldr	r3, [pc, #56]	; (3718 <stdio_serial_init+0x64>)
    36e0:	4798      	blx	r3
# if defined(__GNUC__)
	// Specify that stdout and stdin should not be buffered.
	setbuf(stdout, NULL);
    36e2:	4b0e      	ldr	r3, [pc, #56]	; (371c <stdio_serial_init+0x68>)
    36e4:	681b      	ldr	r3, [r3, #0]
    36e6:	689b      	ldr	r3, [r3, #8]
    36e8:	1c18      	adds	r0, r3, #0
    36ea:	2100      	movs	r1, #0
    36ec:	4b0c      	ldr	r3, [pc, #48]	; (3720 <stdio_serial_init+0x6c>)
    36ee:	4798      	blx	r3
	setbuf(stdin, NULL);
    36f0:	4b0a      	ldr	r3, [pc, #40]	; (371c <stdio_serial_init+0x68>)
    36f2:	681b      	ldr	r3, [r3, #0]
    36f4:	685b      	ldr	r3, [r3, #4]
    36f6:	1c18      	adds	r0, r3, #0
    36f8:	2100      	movs	r1, #0
    36fa:	4b09      	ldr	r3, [pc, #36]	; (3720 <stdio_serial_init+0x6c>)
    36fc:	4798      	blx	r3
	// Note: Already the case in IAR's Normal DLIB default configuration
	// and AVR GCC library:
	// - printf() emits one character at a time.
	// - getchar() requests only 1 byte to exit.
#  endif
}
    36fe:	46bd      	mov	sp, r7
    3700:	b004      	add	sp, #16
    3702:	bd80      	pop	{r7, pc}
    3704:	200001f4 	.word	0x200001f4
    3708:	200001f0 	.word	0x200001f0
    370c:	00003645 	.word	0x00003645
    3710:	200001ec 	.word	0x200001ec
    3714:	00003679 	.word	0x00003679
    3718:	00003611 	.word	0x00003611
    371c:	20000074 	.word	0x20000074
    3720:	00006611 	.word	0x00006611

00003724 <configure_console>:

#include "main.h"

//extern void xPortSysTickHandler(void);

static void configure_console(void) {
    3724:	b580      	push	{r7, lr}
    3726:	b090      	sub	sp, #64	; 0x40
    3728:	af00      	add	r7, sp, #0
	struct usart_config usart_conf;

	usart_get_config_defaults(&usart_conf);
    372a:	1c3b      	adds	r3, r7, #0
    372c:	1c18      	adds	r0, r3, #0
    372e:	4b13      	ldr	r3, [pc, #76]	; (377c <configure_console+0x58>)
    3730:	4798      	blx	r3
	usart_conf.mux_setting = CONF_STDIO_MUX_SETTING;
    3732:	1c3b      	adds	r3, r7, #0
    3734:	2280      	movs	r2, #128	; 0x80
    3736:	0352      	lsls	r2, r2, #13
    3738:	60da      	str	r2, [r3, #12]
	usart_conf.pinmux_pad0 = CONF_STDIO_PINMUX_PAD0;
    373a:	1c3b      	adds	r3, r7, #0
    373c:	4a10      	ldr	r2, [pc, #64]	; (3780 <configure_console+0x5c>)
    373e:	631a      	str	r2, [r3, #48]	; 0x30
	usart_conf.pinmux_pad1 = CONF_STDIO_PINMUX_PAD1;
    3740:	1c3b      	adds	r3, r7, #0
    3742:	4a10      	ldr	r2, [pc, #64]	; (3784 <configure_console+0x60>)
    3744:	635a      	str	r2, [r3, #52]	; 0x34
	usart_conf.pinmux_pad2 = CONF_STDIO_PINMUX_PAD2;
    3746:	1c3b      	adds	r3, r7, #0
    3748:	2201      	movs	r2, #1
    374a:	4252      	negs	r2, r2
    374c:	639a      	str	r2, [r3, #56]	; 0x38
	usart_conf.pinmux_pad3 = CONF_STDIO_PINMUX_PAD3;
    374e:	1c3b      	adds	r3, r7, #0
    3750:	2201      	movs	r2, #1
    3752:	4252      	negs	r2, r2
    3754:	63da      	str	r2, [r3, #60]	; 0x3c
	usart_conf.baudrate    = CONF_STDIO_BAUDRATE;
    3756:	1c3b      	adds	r3, r7, #0
    3758:	2296      	movs	r2, #150	; 0x96
    375a:	0212      	lsls	r2, r2, #8
    375c:	621a      	str	r2, [r3, #32]

	stdio_serial_init(&cdc_uart_module, CONF_STDIO_USART_MODULE,
    375e:	4a0a      	ldr	r2, [pc, #40]	; (3788 <configure_console+0x64>)
    3760:	490a      	ldr	r1, [pc, #40]	; (378c <configure_console+0x68>)
    3762:	1c3b      	adds	r3, r7, #0
    3764:	1c10      	adds	r0, r2, #0
    3766:	1c1a      	adds	r2, r3, #0
    3768:	4b09      	ldr	r3, [pc, #36]	; (3790 <configure_console+0x6c>)
    376a:	4798      	blx	r3
	&usart_conf);
	usart_enable(&cdc_uart_module);
    376c:	4b06      	ldr	r3, [pc, #24]	; (3788 <configure_console+0x64>)
    376e:	1c18      	adds	r0, r3, #0
    3770:	4b08      	ldr	r3, [pc, #32]	; (3794 <configure_console+0x70>)
    3772:	4798      	blx	r3
}
    3774:	46bd      	mov	sp, r7
    3776:	b010      	add	sp, #64	; 0x40
    3778:	bd80      	pop	{r7, pc}
    377a:	46c0      	nop			; (mov r8, r8)
    377c:	0000350d 	.word	0x0000350d
    3780:	00160002 	.word	0x00160002
    3784:	00170002 	.word	0x00170002
    3788:	2000015c 	.word	0x2000015c
    378c:	42001400 	.word	0x42001400
    3790:	000036b5 	.word	0x000036b5
    3794:	000035c9 	.word	0x000035c9

00003798 <main>:
 *  \brief FreeRTOS Real Time Kernel example entry point.
 *
 *  \return Unused (ANSI-C compatibility).
 */
int main(void)
{
    3798:	b590      	push	{r4, r7, lr}
    379a:	b089      	sub	sp, #36	; 0x24
    379c:	af00      	add	r7, sp, #0
	// Initilize the SAM system
	system_init();
    379e:	4b45      	ldr	r3, [pc, #276]	; (38b4 <main+0x11c>)
    37a0:	4798      	blx	r3

	// Initialize the console uart
	configure_console();
    37a2:	4b45      	ldr	r3, [pc, #276]	; (38b8 <main+0x120>)
    37a4:	4798      	blx	r3
	
	// Output demo infomation.
	printf("-- Freertos Example --\n\r");
    37a6:	4b45      	ldr	r3, [pc, #276]	; (38bc <main+0x124>)
    37a8:	1c18      	adds	r0, r3, #0
    37aa:	4b45      	ldr	r3, [pc, #276]	; (38c0 <main+0x128>)
    37ac:	4798      	blx	r3
	printf("-- %s\n\r", BOARD_NAME);
    37ae:	4a45      	ldr	r2, [pc, #276]	; (38c4 <main+0x12c>)
    37b0:	4b45      	ldr	r3, [pc, #276]	; (38c8 <main+0x130>)
    37b2:	1c10      	adds	r0, r2, #0
    37b4:	1c19      	adds	r1, r3, #0
    37b6:	4b42      	ldr	r3, [pc, #264]	; (38c0 <main+0x128>)
    37b8:	4798      	blx	r3
	printf("-- Compiled: %s %s --\n\r", __DATE__, __TIME__);
    37ba:	4944      	ldr	r1, [pc, #272]	; (38cc <main+0x134>)
    37bc:	4a44      	ldr	r2, [pc, #272]	; (38d0 <main+0x138>)
    37be:	4b45      	ldr	r3, [pc, #276]	; (38d4 <main+0x13c>)
    37c0:	1c08      	adds	r0, r1, #0
    37c2:	1c11      	adds	r1, r2, #0
    37c4:	1c1a      	adds	r2, r3, #0
    37c6:	4b3e      	ldr	r3, [pc, #248]	; (38c0 <main+0x128>)
    37c8:	4798      	blx	r3
	
	configure_i2c_master();
    37ca:	4b43      	ldr	r3, [pc, #268]	; (38d8 <main+0x140>)
    37cc:	4798      	blx	r3
	//READ FROM MAGNETOMETER
	HMC5883L_init();
    37ce:	4b43      	ldr	r3, [pc, #268]	; (38dc <main+0x144>)
    37d0:	4798      	blx	r3
	for (int j = 0; j < 15; j++) {				
    37d2:	2300      	movs	r3, #0
    37d4:	61fb      	str	r3, [r7, #28]
    37d6:	e065      	b.n	38a4 <main+0x10c>
	uint8_t readBuff[6] = {0, 0, 0, 0, 0, 0};
    37d8:	2308      	movs	r3, #8
    37da:	18fb      	adds	r3, r7, r3
    37dc:	2200      	movs	r2, #0
    37de:	701a      	strb	r2, [r3, #0]
    37e0:	2308      	movs	r3, #8
    37e2:	18fb      	adds	r3, r7, r3
    37e4:	2200      	movs	r2, #0
    37e6:	705a      	strb	r2, [r3, #1]
    37e8:	2308      	movs	r3, #8
    37ea:	18fb      	adds	r3, r7, r3
    37ec:	2200      	movs	r2, #0
    37ee:	709a      	strb	r2, [r3, #2]
    37f0:	2308      	movs	r3, #8
    37f2:	18fb      	adds	r3, r7, r3
    37f4:	2200      	movs	r2, #0
    37f6:	70da      	strb	r2, [r3, #3]
    37f8:	2308      	movs	r3, #8
    37fa:	18fb      	adds	r3, r7, r3
    37fc:	2200      	movs	r2, #0
    37fe:	711a      	strb	r2, [r3, #4]
    3800:	2308      	movs	r3, #8
    3802:	18fb      	adds	r3, r7, r3
    3804:	2200      	movs	r2, #0
    3806:	715a      	strb	r2, [r3, #5]
	HMC5883L_read(readBuff);
    3808:	2308      	movs	r3, #8
    380a:	18fb      	adds	r3, r7, r3
    380c:	1c18      	adds	r0, r3, #0
    380e:	4b34      	ldr	r3, [pc, #208]	; (38e0 <main+0x148>)
    3810:	4798      	blx	r3
	int16_t xyzBuff[3] = {0, 0, 0};
    3812:	1c3b      	adds	r3, r7, #0
    3814:	2200      	movs	r2, #0
    3816:	801a      	strh	r2, [r3, #0]
    3818:	1c3b      	adds	r3, r7, #0
    381a:	2200      	movs	r2, #0
    381c:	805a      	strh	r2, [r3, #2]
    381e:	1c3b      	adds	r3, r7, #0
    3820:	2200      	movs	r2, #0
    3822:	809a      	strh	r2, [r3, #4]
	getXYZ(readBuff, xyzBuff);
    3824:	2308      	movs	r3, #8
    3826:	18fa      	adds	r2, r7, r3
    3828:	1c3b      	adds	r3, r7, #0
    382a:	1c10      	adds	r0, r2, #0
    382c:	1c19      	adds	r1, r3, #0
    382e:	4b2d      	ldr	r3, [pc, #180]	; (38e4 <main+0x14c>)
    3830:	4798      	blx	r3
	int i;
	for (i = 0; i < 6; i++) {		
    3832:	2300      	movs	r3, #0
    3834:	61bb      	str	r3, [r7, #24]
    3836:	e00d      	b.n	3854 <main+0xbc>
		printf("%x ", readBuff[i]);					
    3838:	2308      	movs	r3, #8
    383a:	18fa      	adds	r2, r7, r3
    383c:	69bb      	ldr	r3, [r7, #24]
    383e:	18d3      	adds	r3, r2, r3
    3840:	781b      	ldrb	r3, [r3, #0]
    3842:	1c1a      	adds	r2, r3, #0
    3844:	4b28      	ldr	r3, [pc, #160]	; (38e8 <main+0x150>)
    3846:	1c18      	adds	r0, r3, #0
    3848:	1c11      	adds	r1, r2, #0
    384a:	4b1d      	ldr	r3, [pc, #116]	; (38c0 <main+0x128>)
    384c:	4798      	blx	r3
	uint8_t readBuff[6] = {0, 0, 0, 0, 0, 0};
	HMC5883L_read(readBuff);
	int16_t xyzBuff[3] = {0, 0, 0};
	getXYZ(readBuff, xyzBuff);
	int i;
	for (i = 0; i < 6; i++) {		
    384e:	69bb      	ldr	r3, [r7, #24]
    3850:	3301      	adds	r3, #1
    3852:	61bb      	str	r3, [r7, #24]
    3854:	69bb      	ldr	r3, [r7, #24]
    3856:	2b05      	cmp	r3, #5
    3858:	ddee      	ble.n	3838 <main+0xa0>
		printf("%x ", readBuff[i]);					
	}
	printf("\n\r");
    385a:	4b24      	ldr	r3, [pc, #144]	; (38ec <main+0x154>)
    385c:	1c18      	adds	r0, r3, #0
    385e:	4b18      	ldr	r3, [pc, #96]	; (38c0 <main+0x128>)
    3860:	4798      	blx	r3
	printf("%d %d %d\n\r", xyzBuff[0], xyzBuff[1], xyzBuff[2]);	
    3862:	1c3b      	adds	r3, r7, #0
    3864:	881b      	ldrh	r3, [r3, #0]
    3866:	b219      	sxth	r1, r3
    3868:	1c3b      	adds	r3, r7, #0
    386a:	885b      	ldrh	r3, [r3, #2]
    386c:	b21a      	sxth	r2, r3
    386e:	1c3b      	adds	r3, r7, #0
    3870:	889b      	ldrh	r3, [r3, #4]
    3872:	b21b      	sxth	r3, r3
    3874:	481e      	ldr	r0, [pc, #120]	; (38f0 <main+0x158>)
    3876:	4c12      	ldr	r4, [pc, #72]	; (38c0 <main+0x128>)
    3878:	47a0      	blx	r4
	float heading = computeCompassDir(xyzBuff[0], xyzBuff[1], xyzBuff[2]);	
    387a:	1c3b      	adds	r3, r7, #0
    387c:	8819      	ldrh	r1, [r3, #0]
    387e:	1c3b      	adds	r3, r7, #0
    3880:	885a      	ldrh	r2, [r3, #2]
    3882:	1c3b      	adds	r3, r7, #0
    3884:	889b      	ldrh	r3, [r3, #4]
    3886:	b209      	sxth	r1, r1
    3888:	b212      	sxth	r2, r2
    388a:	b21b      	sxth	r3, r3
    388c:	1c08      	adds	r0, r1, #0
    388e:	1c11      	adds	r1, r2, #0
    3890:	1c1a      	adds	r2, r3, #0
    3892:	4b18      	ldr	r3, [pc, #96]	; (38f4 <main+0x15c>)
    3894:	4798      	blx	r3
    3896:	1c03      	adds	r3, r0, #0
    3898:	617b      	str	r3, [r7, #20]
	int a = 0;
    389a:	2300      	movs	r3, #0
    389c:	613b      	str	r3, [r7, #16]
	printf("-- Compiled: %s %s --\n\r", __DATE__, __TIME__);
	
	configure_i2c_master();
	//READ FROM MAGNETOMETER
	HMC5883L_init();
	for (int j = 0; j < 15; j++) {				
    389e:	69fb      	ldr	r3, [r7, #28]
    38a0:	3301      	adds	r3, #1
    38a2:	61fb      	str	r3, [r7, #28]
    38a4:	69fb      	ldr	r3, [r7, #28]
    38a6:	2b0e      	cmp	r3, #14
    38a8:	dd96      	ble.n	37d8 <main+0x40>
	// Start the scheduler.
	vTaskStartScheduler();

	// Will only get here if there was insufficient memory to create the idle task.
	*/
	return 0;
    38aa:	2300      	movs	r3, #0
}
    38ac:	1c18      	adds	r0, r3, #0
    38ae:	46bd      	mov	sp, r7
    38b0:	b009      	add	sp, #36	; 0x24
    38b2:	bd90      	pop	{r4, r7, pc}
    38b4:	00002e1d 	.word	0x00002e1d
    38b8:	00003725 	.word	0x00003725
    38bc:	00007624 	.word	0x00007624
    38c0:	00006505 	.word	0x00006505
    38c4:	00007640 	.word	0x00007640
    38c8:	00007648 	.word	0x00007648
    38cc:	0000765c 	.word	0x0000765c
    38d0:	00007674 	.word	0x00007674
    38d4:	00007680 	.word	0x00007680
    38d8:	00003311 	.word	0x00003311
    38dc:	00002f69 	.word	0x00002f69
    38e0:	00002fa5 	.word	0x00002fa5
    38e4:	0000300d 	.word	0x0000300d
    38e8:	0000768c 	.word	0x0000768c
    38ec:	00007690 	.word	0x00007690
    38f0:	00007694 	.word	0x00007694
    38f4:	00003091 	.word	0x00003091

000038f8 <atan2>:
    38f8:	b508      	push	{r3, lr}
    38fa:	f000 f801 	bl	3900 <__ieee754_atan2>
    38fe:	bd08      	pop	{r3, pc}

00003900 <__ieee754_atan2>:
    3900:	b5f8      	push	{r3, r4, r5, r6, r7, lr}
    3902:	464f      	mov	r7, r9
    3904:	4646      	mov	r6, r8
    3906:	1c0c      	adds	r4, r1, #0
    3908:	4689      	mov	r9, r1
    390a:	4251      	negs	r1, r2
    390c:	b4c0      	push	{r6, r7}
    390e:	1c05      	adds	r5, r0, #0
    3910:	4311      	orrs	r1, r2
    3912:	0058      	lsls	r0, r3, #1
    3914:	4e56      	ldr	r6, [pc, #344]	; (3a70 <__ieee754_atan2+0x170>)
    3916:	0840      	lsrs	r0, r0, #1
    3918:	0fc9      	lsrs	r1, r1, #31
    391a:	469c      	mov	ip, r3
    391c:	4301      	orrs	r1, r0
    391e:	42b1      	cmp	r1, r6
    3920:	d83d      	bhi.n	399e <__ieee754_atan2+0x9e>
    3922:	0061      	lsls	r1, r4, #1
    3924:	0849      	lsrs	r1, r1, #1
    3926:	4688      	mov	r8, r1
    3928:	4647      	mov	r7, r8
    392a:	4269      	negs	r1, r5
    392c:	4329      	orrs	r1, r5
    392e:	0fc9      	lsrs	r1, r1, #31
    3930:	4339      	orrs	r1, r7
    3932:	42b1      	cmp	r1, r6
    3934:	d833      	bhi.n	399e <__ieee754_atan2+0x9e>
    3936:	494f      	ldr	r1, [pc, #316]	; (3a74 <__ieee754_atan2+0x174>)
    3938:	1859      	adds	r1, r3, r1
    393a:	4311      	orrs	r1, r2
    393c:	d047      	beq.n	39ce <__ieee754_atan2+0xce>
    393e:	2602      	movs	r6, #2
    3940:	1799      	asrs	r1, r3, #30
    3942:	400e      	ands	r6, r1
    3944:	0fe1      	lsrs	r1, r4, #31
    3946:	430e      	orrs	r6, r1
    3948:	4641      	mov	r1, r8
    394a:	4329      	orrs	r1, r5
    394c:	d031      	beq.n	39b2 <__ieee754_atan2+0xb2>
    394e:	1c01      	adds	r1, r0, #0
    3950:	4311      	orrs	r1, r2
    3952:	d036      	beq.n	39c2 <__ieee754_atan2+0xc2>
    3954:	4946      	ldr	r1, [pc, #280]	; (3a70 <__ieee754_atan2+0x170>)
    3956:	4288      	cmp	r0, r1
    3958:	d049      	beq.n	39ee <__ieee754_atan2+0xee>
    395a:	4945      	ldr	r1, [pc, #276]	; (3a70 <__ieee754_atan2+0x170>)
    395c:	4588      	cmp	r8, r1
    395e:	d030      	beq.n	39c2 <__ieee754_atan2+0xc2>
    3960:	4641      	mov	r1, r8
    3962:	1a08      	subs	r0, r1, r0
    3964:	1500      	asrs	r0, r0, #20
    3966:	283c      	cmp	r0, #60	; 0x3c
    3968:	dc3b      	bgt.n	39e2 <__ieee754_atan2+0xe2>
    396a:	4661      	mov	r1, ip
    396c:	2900      	cmp	r1, #0
    396e:	db5a      	blt.n	3a26 <__ieee754_atan2+0x126>
    3970:	1c28      	adds	r0, r5, #0
    3972:	1c21      	adds	r1, r4, #0
    3974:	f001 f9fe 	bl	4d74 <__aeabi_ddiv>
    3978:	f000 fa34 	bl	3de4 <fabs>
    397c:	f000 f894 	bl	3aa8 <atan>
    3980:	2e01      	cmp	r6, #1
    3982:	d040      	beq.n	3a06 <__ieee754_atan2+0x106>
    3984:	2e02      	cmp	r6, #2
    3986:	d043      	beq.n	3a10 <__ieee754_atan2+0x110>
    3988:	2e00      	cmp	r6, #0
    398a:	d00e      	beq.n	39aa <__ieee754_atan2+0xaa>
    398c:	4a3a      	ldr	r2, [pc, #232]	; (3a78 <__ieee754_atan2+0x178>)
    398e:	4b3b      	ldr	r3, [pc, #236]	; (3a7c <__ieee754_atan2+0x17c>)
    3990:	f002 f8c8 	bl	5b24 <__aeabi_dsub>
    3994:	4a3a      	ldr	r2, [pc, #232]	; (3a80 <__ieee754_atan2+0x180>)
    3996:	4b3b      	ldr	r3, [pc, #236]	; (3a84 <__ieee754_atan2+0x184>)
    3998:	f002 f8c4 	bl	5b24 <__aeabi_dsub>
    399c:	e005      	b.n	39aa <__ieee754_atan2+0xaa>
    399e:	1c10      	adds	r0, r2, #0
    39a0:	1c19      	adds	r1, r3, #0
    39a2:	1c2a      	adds	r2, r5, #0
    39a4:	1c23      	adds	r3, r4, #0
    39a6:	f000 febd 	bl	4724 <__aeabi_dadd>
    39aa:	bc0c      	pop	{r2, r3}
    39ac:	4690      	mov	r8, r2
    39ae:	4699      	mov	r9, r3
    39b0:	bdf8      	pop	{r3, r4, r5, r6, r7, pc}
    39b2:	2e02      	cmp	r6, #2
    39b4:	d018      	beq.n	39e8 <__ieee754_atan2+0xe8>
    39b6:	dc0f      	bgt.n	39d8 <__ieee754_atan2+0xd8>
    39b8:	2e00      	cmp	r6, #0
    39ba:	dbc8      	blt.n	394e <__ieee754_atan2+0x4e>
    39bc:	1c28      	adds	r0, r5, #0
    39be:	1c21      	adds	r1, r4, #0
    39c0:	e7f3      	b.n	39aa <__ieee754_atan2+0xaa>
    39c2:	464b      	mov	r3, r9
    39c4:	482e      	ldr	r0, [pc, #184]	; (3a80 <__ieee754_atan2+0x180>)
    39c6:	2b00      	cmp	r3, #0
    39c8:	db1b      	blt.n	3a02 <__ieee754_atan2+0x102>
    39ca:	492f      	ldr	r1, [pc, #188]	; (3a88 <__ieee754_atan2+0x188>)
    39cc:	e7ed      	b.n	39aa <__ieee754_atan2+0xaa>
    39ce:	1c28      	adds	r0, r5, #0
    39d0:	1c21      	adds	r1, r4, #0
    39d2:	f000 f869 	bl	3aa8 <atan>
    39d6:	e7e8      	b.n	39aa <__ieee754_atan2+0xaa>
    39d8:	2e03      	cmp	r6, #3
    39da:	d1b8      	bne.n	394e <__ieee754_atan2+0x4e>
    39dc:	4828      	ldr	r0, [pc, #160]	; (3a80 <__ieee754_atan2+0x180>)
    39de:	492b      	ldr	r1, [pc, #172]	; (3a8c <__ieee754_atan2+0x18c>)
    39e0:	e7e3      	b.n	39aa <__ieee754_atan2+0xaa>
    39e2:	4827      	ldr	r0, [pc, #156]	; (3a80 <__ieee754_atan2+0x180>)
    39e4:	4928      	ldr	r1, [pc, #160]	; (3a88 <__ieee754_atan2+0x188>)
    39e6:	e7cb      	b.n	3980 <__ieee754_atan2+0x80>
    39e8:	4825      	ldr	r0, [pc, #148]	; (3a80 <__ieee754_atan2+0x180>)
    39ea:	4926      	ldr	r1, [pc, #152]	; (3a84 <__ieee754_atan2+0x184>)
    39ec:	e7dd      	b.n	39aa <__ieee754_atan2+0xaa>
    39ee:	4580      	cmp	r8, r0
    39f0:	d01e      	beq.n	3a30 <__ieee754_atan2+0x130>
    39f2:	2e01      	cmp	r6, #1
    39f4:	d02c      	beq.n	3a50 <__ieee754_atan2+0x150>
    39f6:	dd25      	ble.n	3a44 <__ieee754_atan2+0x144>
    39f8:	2e02      	cmp	r6, #2
    39fa:	d0f5      	beq.n	39e8 <__ieee754_atan2+0xe8>
    39fc:	2e03      	cmp	r6, #3
    39fe:	d0ed      	beq.n	39dc <__ieee754_atan2+0xdc>
    3a00:	e7ab      	b.n	395a <__ieee754_atan2+0x5a>
    3a02:	4923      	ldr	r1, [pc, #140]	; (3a90 <__ieee754_atan2+0x190>)
    3a04:	e7d1      	b.n	39aa <__ieee754_atan2+0xaa>
    3a06:	2480      	movs	r4, #128	; 0x80
    3a08:	0624      	lsls	r4, r4, #24
    3a0a:	190b      	adds	r3, r1, r4
    3a0c:	1c19      	adds	r1, r3, #0
    3a0e:	e7cc      	b.n	39aa <__ieee754_atan2+0xaa>
    3a10:	4a19      	ldr	r2, [pc, #100]	; (3a78 <__ieee754_atan2+0x178>)
    3a12:	4b1a      	ldr	r3, [pc, #104]	; (3a7c <__ieee754_atan2+0x17c>)
    3a14:	f002 f886 	bl	5b24 <__aeabi_dsub>
    3a18:	1c02      	adds	r2, r0, #0
    3a1a:	1c0b      	adds	r3, r1, #0
    3a1c:	4818      	ldr	r0, [pc, #96]	; (3a80 <__ieee754_atan2+0x180>)
    3a1e:	4919      	ldr	r1, [pc, #100]	; (3a84 <__ieee754_atan2+0x184>)
    3a20:	f002 f880 	bl	5b24 <__aeabi_dsub>
    3a24:	e7c1      	b.n	39aa <__ieee754_atan2+0xaa>
    3a26:	303c      	adds	r0, #60	; 0x3c
    3a28:	daa2      	bge.n	3970 <__ieee754_atan2+0x70>
    3a2a:	2000      	movs	r0, #0
    3a2c:	2100      	movs	r1, #0
    3a2e:	e7a7      	b.n	3980 <__ieee754_atan2+0x80>
    3a30:	2e01      	cmp	r6, #1
    3a32:	d019      	beq.n	3a68 <__ieee754_atan2+0x168>
    3a34:	dd10      	ble.n	3a58 <__ieee754_atan2+0x158>
    3a36:	2e02      	cmp	r6, #2
    3a38:	d013      	beq.n	3a62 <__ieee754_atan2+0x162>
    3a3a:	2e03      	cmp	r6, #3
    3a3c:	d1c1      	bne.n	39c2 <__ieee754_atan2+0xc2>
    3a3e:	4815      	ldr	r0, [pc, #84]	; (3a94 <__ieee754_atan2+0x194>)
    3a40:	4915      	ldr	r1, [pc, #84]	; (3a98 <__ieee754_atan2+0x198>)
    3a42:	e7b2      	b.n	39aa <__ieee754_atan2+0xaa>
    3a44:	2e00      	cmp	r6, #0
    3a46:	d000      	beq.n	3a4a <__ieee754_atan2+0x14a>
    3a48:	e787      	b.n	395a <__ieee754_atan2+0x5a>
    3a4a:	2000      	movs	r0, #0
    3a4c:	2100      	movs	r1, #0
    3a4e:	e7ac      	b.n	39aa <__ieee754_atan2+0xaa>
    3a50:	2180      	movs	r1, #128	; 0x80
    3a52:	2000      	movs	r0, #0
    3a54:	0609      	lsls	r1, r1, #24
    3a56:	e7a8      	b.n	39aa <__ieee754_atan2+0xaa>
    3a58:	2e00      	cmp	r6, #0
    3a5a:	d1b2      	bne.n	39c2 <__ieee754_atan2+0xc2>
    3a5c:	4808      	ldr	r0, [pc, #32]	; (3a80 <__ieee754_atan2+0x180>)
    3a5e:	490f      	ldr	r1, [pc, #60]	; (3a9c <__ieee754_atan2+0x19c>)
    3a60:	e7a3      	b.n	39aa <__ieee754_atan2+0xaa>
    3a62:	480c      	ldr	r0, [pc, #48]	; (3a94 <__ieee754_atan2+0x194>)
    3a64:	490e      	ldr	r1, [pc, #56]	; (3aa0 <__ieee754_atan2+0x1a0>)
    3a66:	e7a0      	b.n	39aa <__ieee754_atan2+0xaa>
    3a68:	4805      	ldr	r0, [pc, #20]	; (3a80 <__ieee754_atan2+0x180>)
    3a6a:	490e      	ldr	r1, [pc, #56]	; (3aa4 <__ieee754_atan2+0x1a4>)
    3a6c:	e79d      	b.n	39aa <__ieee754_atan2+0xaa>
    3a6e:	46c0      	nop			; (mov r8, r8)
    3a70:	7ff00000 	.word	0x7ff00000
    3a74:	c0100000 	.word	0xc0100000
    3a78:	33145c07 	.word	0x33145c07
    3a7c:	3ca1a626 	.word	0x3ca1a626
    3a80:	54442d18 	.word	0x54442d18
    3a84:	400921fb 	.word	0x400921fb
    3a88:	3ff921fb 	.word	0x3ff921fb
    3a8c:	c00921fb 	.word	0xc00921fb
    3a90:	bff921fb 	.word	0xbff921fb
    3a94:	7f3321d2 	.word	0x7f3321d2
    3a98:	c002d97c 	.word	0xc002d97c
    3a9c:	3fe921fb 	.word	0x3fe921fb
    3aa0:	4002d97c 	.word	0x4002d97c
    3aa4:	bfe921fb 	.word	0xbfe921fb

00003aa8 <atan>:
    3aa8:	b5f8      	push	{r3, r4, r5, r6, r7, lr}
    3aaa:	4656      	mov	r6, sl
    3aac:	464d      	mov	r5, r9
    3aae:	4644      	mov	r4, r8
    3ab0:	465f      	mov	r7, fp
    3ab2:	4ba5      	ldr	r3, [pc, #660]	; (3d48 <atan+0x2a0>)
    3ab4:	b4f0      	push	{r4, r5, r6, r7}
    3ab6:	004e      	lsls	r6, r1, #1
    3ab8:	4680      	mov	r8, r0
    3aba:	4689      	mov	r9, r1
    3abc:	468a      	mov	sl, r1
    3abe:	0876      	lsrs	r6, r6, #1
    3ac0:	429e      	cmp	r6, r3
    3ac2:	dd0c      	ble.n	3ade <atan+0x36>
    3ac4:	4ba1      	ldr	r3, [pc, #644]	; (3d4c <atan+0x2a4>)
    3ac6:	429e      	cmp	r6, r3
    3ac8:	dd00      	ble.n	3acc <atan+0x24>
    3aca:	e0a0      	b.n	3c0e <atan+0x166>
    3acc:	d100      	bne.n	3ad0 <atan+0x28>
    3ace:	e09b      	b.n	3c08 <atan+0x160>
    3ad0:	4653      	mov	r3, sl
    3ad2:	2b00      	cmp	r3, #0
    3ad4:	dc00      	bgt.n	3ad8 <atan+0x30>
    3ad6:	e0de      	b.n	3c96 <atan+0x1ee>
    3ad8:	4b9d      	ldr	r3, [pc, #628]	; (3d50 <atan+0x2a8>)
    3ada:	4a9e      	ldr	r2, [pc, #632]	; (3d54 <atan+0x2ac>)
    3adc:	e09f      	b.n	3c1e <atan+0x176>
    3ade:	4b9e      	ldr	r3, [pc, #632]	; (3d58 <atan+0x2b0>)
    3ae0:	429e      	cmp	r6, r3
    3ae2:	dd00      	ble.n	3ae6 <atan+0x3e>
    3ae4:	e0b1      	b.n	3c4a <atan+0x1a2>
    3ae6:	4b9d      	ldr	r3, [pc, #628]	; (3d5c <atan+0x2b4>)
    3ae8:	429e      	cmp	r6, r3
    3aea:	dc00      	bgt.n	3aee <atan+0x46>
    3aec:	e09f      	b.n	3c2e <atan+0x186>
    3aee:	2301      	movs	r3, #1
    3af0:	425b      	negs	r3, r3
    3af2:	469b      	mov	fp, r3
    3af4:	4642      	mov	r2, r8
    3af6:	464b      	mov	r3, r9
    3af8:	4640      	mov	r0, r8
    3afa:	4649      	mov	r1, r9
    3afc:	f001 fd78 	bl	55f0 <__aeabi_dmul>
    3b00:	1c06      	adds	r6, r0, #0
    3b02:	1c0f      	adds	r7, r1, #0
    3b04:	1c32      	adds	r2, r6, #0
    3b06:	1c3b      	adds	r3, r7, #0
    3b08:	f001 fd72 	bl	55f0 <__aeabi_dmul>
    3b0c:	1c04      	adds	r4, r0, #0
    3b0e:	1c0d      	adds	r5, r1, #0
    3b10:	4a93      	ldr	r2, [pc, #588]	; (3d60 <atan+0x2b8>)
    3b12:	4b94      	ldr	r3, [pc, #592]	; (3d64 <atan+0x2bc>)
    3b14:	f001 fd6c 	bl	55f0 <__aeabi_dmul>
    3b18:	4a93      	ldr	r2, [pc, #588]	; (3d68 <atan+0x2c0>)
    3b1a:	4b94      	ldr	r3, [pc, #592]	; (3d6c <atan+0x2c4>)
    3b1c:	f000 fe02 	bl	4724 <__aeabi_dadd>
    3b20:	1c22      	adds	r2, r4, #0
    3b22:	1c2b      	adds	r3, r5, #0
    3b24:	f001 fd64 	bl	55f0 <__aeabi_dmul>
    3b28:	4a91      	ldr	r2, [pc, #580]	; (3d70 <atan+0x2c8>)
    3b2a:	4b92      	ldr	r3, [pc, #584]	; (3d74 <atan+0x2cc>)
    3b2c:	f000 fdfa 	bl	4724 <__aeabi_dadd>
    3b30:	1c22      	adds	r2, r4, #0
    3b32:	1c2b      	adds	r3, r5, #0
    3b34:	f001 fd5c 	bl	55f0 <__aeabi_dmul>
    3b38:	4a8f      	ldr	r2, [pc, #572]	; (3d78 <atan+0x2d0>)
    3b3a:	4b90      	ldr	r3, [pc, #576]	; (3d7c <atan+0x2d4>)
    3b3c:	f000 fdf2 	bl	4724 <__aeabi_dadd>
    3b40:	1c22      	adds	r2, r4, #0
    3b42:	1c2b      	adds	r3, r5, #0
    3b44:	f001 fd54 	bl	55f0 <__aeabi_dmul>
    3b48:	4a8d      	ldr	r2, [pc, #564]	; (3d80 <atan+0x2d8>)
    3b4a:	4b8e      	ldr	r3, [pc, #568]	; (3d84 <atan+0x2dc>)
    3b4c:	f000 fdea 	bl	4724 <__aeabi_dadd>
    3b50:	1c22      	adds	r2, r4, #0
    3b52:	1c2b      	adds	r3, r5, #0
    3b54:	f001 fd4c 	bl	55f0 <__aeabi_dmul>
    3b58:	4a8b      	ldr	r2, [pc, #556]	; (3d88 <atan+0x2e0>)
    3b5a:	4b8c      	ldr	r3, [pc, #560]	; (3d8c <atan+0x2e4>)
    3b5c:	f000 fde2 	bl	4724 <__aeabi_dadd>
    3b60:	1c32      	adds	r2, r6, #0
    3b62:	1c3b      	adds	r3, r7, #0
    3b64:	f001 fd44 	bl	55f0 <__aeabi_dmul>
    3b68:	4a89      	ldr	r2, [pc, #548]	; (3d90 <atan+0x2e8>)
    3b6a:	4b8a      	ldr	r3, [pc, #552]	; (3d94 <atan+0x2ec>)
    3b6c:	1c06      	adds	r6, r0, #0
    3b6e:	1c0f      	adds	r7, r1, #0
    3b70:	1c20      	adds	r0, r4, #0
    3b72:	1c29      	adds	r1, r5, #0
    3b74:	f001 fd3c 	bl	55f0 <__aeabi_dmul>
    3b78:	4a87      	ldr	r2, [pc, #540]	; (3d98 <atan+0x2f0>)
    3b7a:	4b88      	ldr	r3, [pc, #544]	; (3d9c <atan+0x2f4>)
    3b7c:	f001 ffd2 	bl	5b24 <__aeabi_dsub>
    3b80:	1c22      	adds	r2, r4, #0
    3b82:	1c2b      	adds	r3, r5, #0
    3b84:	f001 fd34 	bl	55f0 <__aeabi_dmul>
    3b88:	4a85      	ldr	r2, [pc, #532]	; (3da0 <atan+0x2f8>)
    3b8a:	4b86      	ldr	r3, [pc, #536]	; (3da4 <atan+0x2fc>)
    3b8c:	f001 ffca 	bl	5b24 <__aeabi_dsub>
    3b90:	1c22      	adds	r2, r4, #0
    3b92:	1c2b      	adds	r3, r5, #0
    3b94:	f001 fd2c 	bl	55f0 <__aeabi_dmul>
    3b98:	4a83      	ldr	r2, [pc, #524]	; (3da8 <atan+0x300>)
    3b9a:	4b84      	ldr	r3, [pc, #528]	; (3dac <atan+0x304>)
    3b9c:	f001 ffc2 	bl	5b24 <__aeabi_dsub>
    3ba0:	1c22      	adds	r2, r4, #0
    3ba2:	1c2b      	adds	r3, r5, #0
    3ba4:	f001 fd24 	bl	55f0 <__aeabi_dmul>
    3ba8:	4a81      	ldr	r2, [pc, #516]	; (3db0 <atan+0x308>)
    3baa:	4b82      	ldr	r3, [pc, #520]	; (3db4 <atan+0x30c>)
    3bac:	f001 ffba 	bl	5b24 <__aeabi_dsub>
    3bb0:	1c22      	adds	r2, r4, #0
    3bb2:	1c2b      	adds	r3, r5, #0
    3bb4:	f001 fd1c 	bl	55f0 <__aeabi_dmul>
    3bb8:	1c0b      	adds	r3, r1, #0
    3bba:	4659      	mov	r1, fp
    3bbc:	1c02      	adds	r2, r0, #0
    3bbe:	3101      	adds	r1, #1
    3bc0:	d100      	bne.n	3bc4 <atan+0x11c>
    3bc2:	e070      	b.n	3ca6 <atan+0x1fe>
    3bc4:	4659      	mov	r1, fp
    3bc6:	1c30      	adds	r0, r6, #0
    3bc8:	00cc      	lsls	r4, r1, #3
    3bca:	1c39      	adds	r1, r7, #0
    3bcc:	f000 fdaa 	bl	4724 <__aeabi_dadd>
    3bd0:	4642      	mov	r2, r8
    3bd2:	464b      	mov	r3, r9
    3bd4:	f001 fd0c 	bl	55f0 <__aeabi_dmul>
    3bd8:	4d77      	ldr	r5, [pc, #476]	; (3db8 <atan+0x310>)
    3bda:	4b78      	ldr	r3, [pc, #480]	; (3dbc <atan+0x314>)
    3bdc:	192d      	adds	r5, r5, r4
    3bde:	191c      	adds	r4, r3, r4
    3be0:	6822      	ldr	r2, [r4, #0]
    3be2:	6863      	ldr	r3, [r4, #4]
    3be4:	f001 ff9e 	bl	5b24 <__aeabi_dsub>
    3be8:	4642      	mov	r2, r8
    3bea:	464b      	mov	r3, r9
    3bec:	f001 ff9a 	bl	5b24 <__aeabi_dsub>
    3bf0:	1c02      	adds	r2, r0, #0
    3bf2:	1c0b      	adds	r3, r1, #0
    3bf4:	6828      	ldr	r0, [r5, #0]
    3bf6:	6869      	ldr	r1, [r5, #4]
    3bf8:	f001 ff94 	bl	5b24 <__aeabi_dsub>
    3bfc:	4653      	mov	r3, sl
    3bfe:	1c0a      	adds	r2, r1, #0
    3c00:	2b00      	cmp	r3, #0
    3c02:	db4b      	blt.n	3c9c <atan+0x1f4>
    3c04:	1c03      	adds	r3, r0, #0
    3c06:	e00a      	b.n	3c1e <atan+0x176>
    3c08:	2800      	cmp	r0, #0
    3c0a:	d100      	bne.n	3c0e <atan+0x166>
    3c0c:	e760      	b.n	3ad0 <atan+0x28>
    3c0e:	4642      	mov	r2, r8
    3c10:	464b      	mov	r3, r9
    3c12:	4640      	mov	r0, r8
    3c14:	4649      	mov	r1, r9
    3c16:	f000 fd85 	bl	4724 <__aeabi_dadd>
    3c1a:	1c03      	adds	r3, r0, #0
    3c1c:	1c0a      	adds	r2, r1, #0
    3c1e:	1c18      	adds	r0, r3, #0
    3c20:	1c11      	adds	r1, r2, #0
    3c22:	bc3c      	pop	{r2, r3, r4, r5}
    3c24:	4690      	mov	r8, r2
    3c26:	4699      	mov	r9, r3
    3c28:	46a2      	mov	sl, r4
    3c2a:	46ab      	mov	fp, r5
    3c2c:	bdf8      	pop	{r3, r4, r5, r6, r7, pc}
    3c2e:	4a64      	ldr	r2, [pc, #400]	; (3dc0 <atan+0x318>)
    3c30:	4b64      	ldr	r3, [pc, #400]	; (3dc4 <atan+0x31c>)
    3c32:	f000 fd77 	bl	4724 <__aeabi_dadd>
    3c36:	2200      	movs	r2, #0
    3c38:	4b63      	ldr	r3, [pc, #396]	; (3dc8 <atan+0x320>)
    3c3a:	f000 f993 	bl	3f64 <__aeabi_dcmpgt>
    3c3e:	2800      	cmp	r0, #0
    3c40:	d100      	bne.n	3c44 <atan+0x19c>
    3c42:	e754      	b.n	3aee <atan+0x46>
    3c44:	4643      	mov	r3, r8
    3c46:	464a      	mov	r2, r9
    3c48:	e7e9      	b.n	3c1e <atan+0x176>
    3c4a:	f000 f8cb 	bl	3de4 <fabs>
    3c4e:	4b5f      	ldr	r3, [pc, #380]	; (3dcc <atan+0x324>)
    3c50:	1c04      	adds	r4, r0, #0
    3c52:	1c0d      	adds	r5, r1, #0
    3c54:	429e      	cmp	r6, r3
    3c56:	dc37      	bgt.n	3cc8 <atan+0x220>
    3c58:	4b5d      	ldr	r3, [pc, #372]	; (3dd0 <atan+0x328>)
    3c5a:	429e      	cmp	r6, r3
    3c5c:	dc5d      	bgt.n	3d1a <atan+0x272>
    3c5e:	1c22      	adds	r2, r4, #0
    3c60:	1c2b      	adds	r3, r5, #0
    3c62:	f000 fd5f 	bl	4724 <__aeabi_dadd>
    3c66:	2200      	movs	r2, #0
    3c68:	4b57      	ldr	r3, [pc, #348]	; (3dc8 <atan+0x320>)
    3c6a:	f001 ff5b 	bl	5b24 <__aeabi_dsub>
    3c6e:	2380      	movs	r3, #128	; 0x80
    3c70:	1c06      	adds	r6, r0, #0
    3c72:	1c0f      	adds	r7, r1, #0
    3c74:	2200      	movs	r2, #0
    3c76:	05db      	lsls	r3, r3, #23
    3c78:	1c20      	adds	r0, r4, #0
    3c7a:	1c29      	adds	r1, r5, #0
    3c7c:	f000 fd52 	bl	4724 <__aeabi_dadd>
    3c80:	1c0b      	adds	r3, r1, #0
    3c82:	1c02      	adds	r2, r0, #0
    3c84:	1c39      	adds	r1, r7, #0
    3c86:	1c30      	adds	r0, r6, #0
    3c88:	f001 f874 	bl	4d74 <__aeabi_ddiv>
    3c8c:	2300      	movs	r3, #0
    3c8e:	4680      	mov	r8, r0
    3c90:	4689      	mov	r9, r1
    3c92:	469b      	mov	fp, r3
    3c94:	e72e      	b.n	3af4 <atan+0x4c>
    3c96:	4b2e      	ldr	r3, [pc, #184]	; (3d50 <atan+0x2a8>)
    3c98:	4a4e      	ldr	r2, [pc, #312]	; (3dd4 <atan+0x32c>)
    3c9a:	e7c0      	b.n	3c1e <atan+0x176>
    3c9c:	2280      	movs	r2, #128	; 0x80
    3c9e:	0612      	lsls	r2, r2, #24
    3ca0:	1c03      	adds	r3, r0, #0
    3ca2:	188a      	adds	r2, r1, r2
    3ca4:	e7bb      	b.n	3c1e <atan+0x176>
    3ca6:	1c30      	adds	r0, r6, #0
    3ca8:	1c39      	adds	r1, r7, #0
    3caa:	f000 fd3b 	bl	4724 <__aeabi_dadd>
    3cae:	4642      	mov	r2, r8
    3cb0:	464b      	mov	r3, r9
    3cb2:	f001 fc9d 	bl	55f0 <__aeabi_dmul>
    3cb6:	1c02      	adds	r2, r0, #0
    3cb8:	1c0b      	adds	r3, r1, #0
    3cba:	4640      	mov	r0, r8
    3cbc:	4649      	mov	r1, r9
    3cbe:	f001 ff31 	bl	5b24 <__aeabi_dsub>
    3cc2:	1c03      	adds	r3, r0, #0
    3cc4:	1c0a      	adds	r2, r1, #0
    3cc6:	e7aa      	b.n	3c1e <atan+0x176>
    3cc8:	4b43      	ldr	r3, [pc, #268]	; (3dd8 <atan+0x330>)
    3cca:	429e      	cmp	r6, r3
    3ccc:	dc1a      	bgt.n	3d04 <atan+0x25c>
    3cce:	2200      	movs	r2, #0
    3cd0:	4b42      	ldr	r3, [pc, #264]	; (3ddc <atan+0x334>)
    3cd2:	f001 ff27 	bl	5b24 <__aeabi_dsub>
    3cd6:	2200      	movs	r2, #0
    3cd8:	1c06      	adds	r6, r0, #0
    3cda:	1c0f      	adds	r7, r1, #0
    3cdc:	4b3f      	ldr	r3, [pc, #252]	; (3ddc <atan+0x334>)
    3cde:	1c20      	adds	r0, r4, #0
    3ce0:	1c29      	adds	r1, r5, #0
    3ce2:	f001 fc85 	bl	55f0 <__aeabi_dmul>
    3ce6:	2200      	movs	r2, #0
    3ce8:	4b37      	ldr	r3, [pc, #220]	; (3dc8 <atan+0x320>)
    3cea:	f000 fd1b 	bl	4724 <__aeabi_dadd>
    3cee:	1c0b      	adds	r3, r1, #0
    3cf0:	1c02      	adds	r2, r0, #0
    3cf2:	1c39      	adds	r1, r7, #0
    3cf4:	1c30      	adds	r0, r6, #0
    3cf6:	f001 f83d 	bl	4d74 <__aeabi_ddiv>
    3cfa:	2302      	movs	r3, #2
    3cfc:	4680      	mov	r8, r0
    3cfe:	4689      	mov	r9, r1
    3d00:	469b      	mov	fp, r3
    3d02:	e6f7      	b.n	3af4 <atan+0x4c>
    3d04:	1c2b      	adds	r3, r5, #0
    3d06:	2000      	movs	r0, #0
    3d08:	4935      	ldr	r1, [pc, #212]	; (3de0 <atan+0x338>)
    3d0a:	1c22      	adds	r2, r4, #0
    3d0c:	f001 f832 	bl	4d74 <__aeabi_ddiv>
    3d10:	2303      	movs	r3, #3
    3d12:	4680      	mov	r8, r0
    3d14:	4689      	mov	r9, r1
    3d16:	469b      	mov	fp, r3
    3d18:	e6ec      	b.n	3af4 <atan+0x4c>
    3d1a:	2200      	movs	r2, #0
    3d1c:	4b2a      	ldr	r3, [pc, #168]	; (3dc8 <atan+0x320>)
    3d1e:	f001 ff01 	bl	5b24 <__aeabi_dsub>
    3d22:	2200      	movs	r2, #0
    3d24:	1c06      	adds	r6, r0, #0
    3d26:	1c0f      	adds	r7, r1, #0
    3d28:	4b27      	ldr	r3, [pc, #156]	; (3dc8 <atan+0x320>)
    3d2a:	1c20      	adds	r0, r4, #0
    3d2c:	1c29      	adds	r1, r5, #0
    3d2e:	f000 fcf9 	bl	4724 <__aeabi_dadd>
    3d32:	1c0b      	adds	r3, r1, #0
    3d34:	1c02      	adds	r2, r0, #0
    3d36:	1c39      	adds	r1, r7, #0
    3d38:	1c30      	adds	r0, r6, #0
    3d3a:	f001 f81b 	bl	4d74 <__aeabi_ddiv>
    3d3e:	2301      	movs	r3, #1
    3d40:	4680      	mov	r8, r0
    3d42:	4689      	mov	r9, r1
    3d44:	469b      	mov	fp, r3
    3d46:	e6d5      	b.n	3af4 <atan+0x4c>
    3d48:	440fffff 	.word	0x440fffff
    3d4c:	7ff00000 	.word	0x7ff00000
    3d50:	54442d18 	.word	0x54442d18
    3d54:	3ff921fb 	.word	0x3ff921fb
    3d58:	3fdbffff 	.word	0x3fdbffff
    3d5c:	3e1fffff 	.word	0x3e1fffff
    3d60:	e322da11 	.word	0xe322da11
    3d64:	3f90ad3a 	.word	0x3f90ad3a
    3d68:	24760deb 	.word	0x24760deb
    3d6c:	3fa97b4b 	.word	0x3fa97b4b
    3d70:	a0d03d51 	.word	0xa0d03d51
    3d74:	3fb10d66 	.word	0x3fb10d66
    3d78:	c54c206e 	.word	0xc54c206e
    3d7c:	3fb745cd 	.word	0x3fb745cd
    3d80:	920083ff 	.word	0x920083ff
    3d84:	3fc24924 	.word	0x3fc24924
    3d88:	5555550d 	.word	0x5555550d
    3d8c:	3fd55555 	.word	0x3fd55555
    3d90:	2c6a6c2f 	.word	0x2c6a6c2f
    3d94:	bfa2b444 	.word	0xbfa2b444
    3d98:	52defd9a 	.word	0x52defd9a
    3d9c:	3fadde2d 	.word	0x3fadde2d
    3da0:	af749a6d 	.word	0xaf749a6d
    3da4:	3fb3b0f2 	.word	0x3fb3b0f2
    3da8:	fe231671 	.word	0xfe231671
    3dac:	3fbc71c6 	.word	0x3fbc71c6
    3db0:	9998ebc4 	.word	0x9998ebc4
    3db4:	3fc99999 	.word	0x3fc99999
    3db8:	000076c0 	.word	0x000076c0
    3dbc:	000076a0 	.word	0x000076a0
    3dc0:	8800759c 	.word	0x8800759c
    3dc4:	7e37e43c 	.word	0x7e37e43c
    3dc8:	3ff00000 	.word	0x3ff00000
    3dcc:	3ff2ffff 	.word	0x3ff2ffff
    3dd0:	3fe5ffff 	.word	0x3fe5ffff
    3dd4:	bff921fb 	.word	0xbff921fb
    3dd8:	40037fff 	.word	0x40037fff
    3ddc:	3ff80000 	.word	0x3ff80000
    3de0:	bff00000 	.word	0xbff00000

00003de4 <fabs>:
    3de4:	0049      	lsls	r1, r1, #1
    3de6:	084b      	lsrs	r3, r1, #1
    3de8:	1c19      	adds	r1, r3, #0
    3dea:	4770      	bx	lr

00003dec <__aeabi_uidiv>:
    3dec:	2200      	movs	r2, #0
    3dee:	0843      	lsrs	r3, r0, #1
    3df0:	428b      	cmp	r3, r1
    3df2:	d374      	bcc.n	3ede <__aeabi_uidiv+0xf2>
    3df4:	0903      	lsrs	r3, r0, #4
    3df6:	428b      	cmp	r3, r1
    3df8:	d35f      	bcc.n	3eba <__aeabi_uidiv+0xce>
    3dfa:	0a03      	lsrs	r3, r0, #8
    3dfc:	428b      	cmp	r3, r1
    3dfe:	d344      	bcc.n	3e8a <__aeabi_uidiv+0x9e>
    3e00:	0b03      	lsrs	r3, r0, #12
    3e02:	428b      	cmp	r3, r1
    3e04:	d328      	bcc.n	3e58 <__aeabi_uidiv+0x6c>
    3e06:	0c03      	lsrs	r3, r0, #16
    3e08:	428b      	cmp	r3, r1
    3e0a:	d30d      	bcc.n	3e28 <__aeabi_uidiv+0x3c>
    3e0c:	22ff      	movs	r2, #255	; 0xff
    3e0e:	0209      	lsls	r1, r1, #8
    3e10:	ba12      	rev	r2, r2
    3e12:	0c03      	lsrs	r3, r0, #16
    3e14:	428b      	cmp	r3, r1
    3e16:	d302      	bcc.n	3e1e <__aeabi_uidiv+0x32>
    3e18:	1212      	asrs	r2, r2, #8
    3e1a:	0209      	lsls	r1, r1, #8
    3e1c:	d065      	beq.n	3eea <__aeabi_uidiv+0xfe>
    3e1e:	0b03      	lsrs	r3, r0, #12
    3e20:	428b      	cmp	r3, r1
    3e22:	d319      	bcc.n	3e58 <__aeabi_uidiv+0x6c>
    3e24:	e000      	b.n	3e28 <__aeabi_uidiv+0x3c>
    3e26:	0a09      	lsrs	r1, r1, #8
    3e28:	0bc3      	lsrs	r3, r0, #15
    3e2a:	428b      	cmp	r3, r1
    3e2c:	d301      	bcc.n	3e32 <__aeabi_uidiv+0x46>
    3e2e:	03cb      	lsls	r3, r1, #15
    3e30:	1ac0      	subs	r0, r0, r3
    3e32:	4152      	adcs	r2, r2
    3e34:	0b83      	lsrs	r3, r0, #14
    3e36:	428b      	cmp	r3, r1
    3e38:	d301      	bcc.n	3e3e <__aeabi_uidiv+0x52>
    3e3a:	038b      	lsls	r3, r1, #14
    3e3c:	1ac0      	subs	r0, r0, r3
    3e3e:	4152      	adcs	r2, r2
    3e40:	0b43      	lsrs	r3, r0, #13
    3e42:	428b      	cmp	r3, r1
    3e44:	d301      	bcc.n	3e4a <__aeabi_uidiv+0x5e>
    3e46:	034b      	lsls	r3, r1, #13
    3e48:	1ac0      	subs	r0, r0, r3
    3e4a:	4152      	adcs	r2, r2
    3e4c:	0b03      	lsrs	r3, r0, #12
    3e4e:	428b      	cmp	r3, r1
    3e50:	d301      	bcc.n	3e56 <__aeabi_uidiv+0x6a>
    3e52:	030b      	lsls	r3, r1, #12
    3e54:	1ac0      	subs	r0, r0, r3
    3e56:	4152      	adcs	r2, r2
    3e58:	0ac3      	lsrs	r3, r0, #11
    3e5a:	428b      	cmp	r3, r1
    3e5c:	d301      	bcc.n	3e62 <__aeabi_uidiv+0x76>
    3e5e:	02cb      	lsls	r3, r1, #11
    3e60:	1ac0      	subs	r0, r0, r3
    3e62:	4152      	adcs	r2, r2
    3e64:	0a83      	lsrs	r3, r0, #10
    3e66:	428b      	cmp	r3, r1
    3e68:	d301      	bcc.n	3e6e <__aeabi_uidiv+0x82>
    3e6a:	028b      	lsls	r3, r1, #10
    3e6c:	1ac0      	subs	r0, r0, r3
    3e6e:	4152      	adcs	r2, r2
    3e70:	0a43      	lsrs	r3, r0, #9
    3e72:	428b      	cmp	r3, r1
    3e74:	d301      	bcc.n	3e7a <__aeabi_uidiv+0x8e>
    3e76:	024b      	lsls	r3, r1, #9
    3e78:	1ac0      	subs	r0, r0, r3
    3e7a:	4152      	adcs	r2, r2
    3e7c:	0a03      	lsrs	r3, r0, #8
    3e7e:	428b      	cmp	r3, r1
    3e80:	d301      	bcc.n	3e86 <__aeabi_uidiv+0x9a>
    3e82:	020b      	lsls	r3, r1, #8
    3e84:	1ac0      	subs	r0, r0, r3
    3e86:	4152      	adcs	r2, r2
    3e88:	d2cd      	bcs.n	3e26 <__aeabi_uidiv+0x3a>
    3e8a:	09c3      	lsrs	r3, r0, #7
    3e8c:	428b      	cmp	r3, r1
    3e8e:	d301      	bcc.n	3e94 <__aeabi_uidiv+0xa8>
    3e90:	01cb      	lsls	r3, r1, #7
    3e92:	1ac0      	subs	r0, r0, r3
    3e94:	4152      	adcs	r2, r2
    3e96:	0983      	lsrs	r3, r0, #6
    3e98:	428b      	cmp	r3, r1
    3e9a:	d301      	bcc.n	3ea0 <__aeabi_uidiv+0xb4>
    3e9c:	018b      	lsls	r3, r1, #6
    3e9e:	1ac0      	subs	r0, r0, r3
    3ea0:	4152      	adcs	r2, r2
    3ea2:	0943      	lsrs	r3, r0, #5
    3ea4:	428b      	cmp	r3, r1
    3ea6:	d301      	bcc.n	3eac <__aeabi_uidiv+0xc0>
    3ea8:	014b      	lsls	r3, r1, #5
    3eaa:	1ac0      	subs	r0, r0, r3
    3eac:	4152      	adcs	r2, r2
    3eae:	0903      	lsrs	r3, r0, #4
    3eb0:	428b      	cmp	r3, r1
    3eb2:	d301      	bcc.n	3eb8 <__aeabi_uidiv+0xcc>
    3eb4:	010b      	lsls	r3, r1, #4
    3eb6:	1ac0      	subs	r0, r0, r3
    3eb8:	4152      	adcs	r2, r2
    3eba:	08c3      	lsrs	r3, r0, #3
    3ebc:	428b      	cmp	r3, r1
    3ebe:	d301      	bcc.n	3ec4 <__aeabi_uidiv+0xd8>
    3ec0:	00cb      	lsls	r3, r1, #3
    3ec2:	1ac0      	subs	r0, r0, r3
    3ec4:	4152      	adcs	r2, r2
    3ec6:	0883      	lsrs	r3, r0, #2
    3ec8:	428b      	cmp	r3, r1
    3eca:	d301      	bcc.n	3ed0 <__aeabi_uidiv+0xe4>
    3ecc:	008b      	lsls	r3, r1, #2
    3ece:	1ac0      	subs	r0, r0, r3
    3ed0:	4152      	adcs	r2, r2
    3ed2:	0843      	lsrs	r3, r0, #1
    3ed4:	428b      	cmp	r3, r1
    3ed6:	d301      	bcc.n	3edc <__aeabi_uidiv+0xf0>
    3ed8:	004b      	lsls	r3, r1, #1
    3eda:	1ac0      	subs	r0, r0, r3
    3edc:	4152      	adcs	r2, r2
    3ede:	1a41      	subs	r1, r0, r1
    3ee0:	d200      	bcs.n	3ee4 <__aeabi_uidiv+0xf8>
    3ee2:	4601      	mov	r1, r0
    3ee4:	4152      	adcs	r2, r2
    3ee6:	4610      	mov	r0, r2
    3ee8:	4770      	bx	lr
    3eea:	e7ff      	b.n	3eec <__aeabi_uidiv+0x100>
    3eec:	b501      	push	{r0, lr}
    3eee:	2000      	movs	r0, #0
    3ef0:	f000 f80c 	bl	3f0c <__aeabi_idiv0>
    3ef4:	bd02      	pop	{r1, pc}
    3ef6:	46c0      	nop			; (mov r8, r8)

00003ef8 <__aeabi_uidivmod>:
    3ef8:	2900      	cmp	r1, #0
    3efa:	d0f7      	beq.n	3eec <__aeabi_uidiv+0x100>
    3efc:	b503      	push	{r0, r1, lr}
    3efe:	f7ff ff75 	bl	3dec <__aeabi_uidiv>
    3f02:	bc0e      	pop	{r1, r2, r3}
    3f04:	4342      	muls	r2, r0
    3f06:	1a89      	subs	r1, r1, r2
    3f08:	4718      	bx	r3
    3f0a:	46c0      	nop			; (mov r8, r8)

00003f0c <__aeabi_idiv0>:
    3f0c:	4770      	bx	lr
    3f0e:	46c0      	nop			; (mov r8, r8)

00003f10 <__aeabi_cdrcmple>:
    3f10:	4684      	mov	ip, r0
    3f12:	1c10      	adds	r0, r2, #0
    3f14:	4662      	mov	r2, ip
    3f16:	468c      	mov	ip, r1
    3f18:	1c19      	adds	r1, r3, #0
    3f1a:	4663      	mov	r3, ip
    3f1c:	e000      	b.n	3f20 <__aeabi_cdcmpeq>
    3f1e:	46c0      	nop			; (mov r8, r8)

00003f20 <__aeabi_cdcmpeq>:
    3f20:	b51f      	push	{r0, r1, r2, r3, r4, lr}
    3f22:	f001 faff 	bl	5524 <__ledf2>
    3f26:	2800      	cmp	r0, #0
    3f28:	d401      	bmi.n	3f2e <__aeabi_cdcmpeq+0xe>
    3f2a:	2100      	movs	r1, #0
    3f2c:	42c8      	cmn	r0, r1
    3f2e:	bd1f      	pop	{r0, r1, r2, r3, r4, pc}

00003f30 <__aeabi_dcmpeq>:
    3f30:	b510      	push	{r4, lr}
    3f32:	f001 fa43 	bl	53bc <__eqdf2>
    3f36:	4240      	negs	r0, r0
    3f38:	3001      	adds	r0, #1
    3f3a:	bd10      	pop	{r4, pc}

00003f3c <__aeabi_dcmplt>:
    3f3c:	b510      	push	{r4, lr}
    3f3e:	f001 faf1 	bl	5524 <__ledf2>
    3f42:	2800      	cmp	r0, #0
    3f44:	db01      	blt.n	3f4a <__aeabi_dcmplt+0xe>
    3f46:	2000      	movs	r0, #0
    3f48:	bd10      	pop	{r4, pc}
    3f4a:	2001      	movs	r0, #1
    3f4c:	bd10      	pop	{r4, pc}
    3f4e:	46c0      	nop			; (mov r8, r8)

00003f50 <__aeabi_dcmple>:
    3f50:	b510      	push	{r4, lr}
    3f52:	f001 fae7 	bl	5524 <__ledf2>
    3f56:	2800      	cmp	r0, #0
    3f58:	dd01      	ble.n	3f5e <__aeabi_dcmple+0xe>
    3f5a:	2000      	movs	r0, #0
    3f5c:	bd10      	pop	{r4, pc}
    3f5e:	2001      	movs	r0, #1
    3f60:	bd10      	pop	{r4, pc}
    3f62:	46c0      	nop			; (mov r8, r8)

00003f64 <__aeabi_dcmpgt>:
    3f64:	b510      	push	{r4, lr}
    3f66:	f001 fa6d 	bl	5444 <__gedf2>
    3f6a:	2800      	cmp	r0, #0
    3f6c:	dc01      	bgt.n	3f72 <__aeabi_dcmpgt+0xe>
    3f6e:	2000      	movs	r0, #0
    3f70:	bd10      	pop	{r4, pc}
    3f72:	2001      	movs	r0, #1
    3f74:	bd10      	pop	{r4, pc}
    3f76:	46c0      	nop			; (mov r8, r8)

00003f78 <__aeabi_dcmpge>:
    3f78:	b510      	push	{r4, lr}
    3f7a:	f001 fa63 	bl	5444 <__gedf2>
    3f7e:	2800      	cmp	r0, #0
    3f80:	da01      	bge.n	3f86 <__aeabi_dcmpge+0xe>
    3f82:	2000      	movs	r0, #0
    3f84:	bd10      	pop	{r4, pc}
    3f86:	2001      	movs	r0, #1
    3f88:	bd10      	pop	{r4, pc}
    3f8a:	46c0      	nop			; (mov r8, r8)

00003f8c <__aeabi_cfrcmple>:
    3f8c:	4684      	mov	ip, r0
    3f8e:	1c08      	adds	r0, r1, #0
    3f90:	4661      	mov	r1, ip
    3f92:	e7ff      	b.n	3f94 <__aeabi_cfcmpeq>

00003f94 <__aeabi_cfcmpeq>:
    3f94:	b51f      	push	{r0, r1, r2, r3, r4, lr}
    3f96:	f000 fa4d 	bl	4434 <__lesf2>
    3f9a:	2800      	cmp	r0, #0
    3f9c:	d401      	bmi.n	3fa2 <__aeabi_cfcmpeq+0xe>
    3f9e:	2100      	movs	r1, #0
    3fa0:	42c8      	cmn	r0, r1
    3fa2:	bd1f      	pop	{r0, r1, r2, r3, r4, pc}

00003fa4 <__aeabi_fcmpeq>:
    3fa4:	b510      	push	{r4, lr}
    3fa6:	f000 f9d1 	bl	434c <__eqsf2>
    3faa:	4240      	negs	r0, r0
    3fac:	3001      	adds	r0, #1
    3fae:	bd10      	pop	{r4, pc}

00003fb0 <__aeabi_fcmplt>:
    3fb0:	b510      	push	{r4, lr}
    3fb2:	f000 fa3f 	bl	4434 <__lesf2>
    3fb6:	2800      	cmp	r0, #0
    3fb8:	db01      	blt.n	3fbe <__aeabi_fcmplt+0xe>
    3fba:	2000      	movs	r0, #0
    3fbc:	bd10      	pop	{r4, pc}
    3fbe:	2001      	movs	r0, #1
    3fc0:	bd10      	pop	{r4, pc}
    3fc2:	46c0      	nop			; (mov r8, r8)

00003fc4 <__aeabi_fcmple>:
    3fc4:	b510      	push	{r4, lr}
    3fc6:	f000 fa35 	bl	4434 <__lesf2>
    3fca:	2800      	cmp	r0, #0
    3fcc:	dd01      	ble.n	3fd2 <__aeabi_fcmple+0xe>
    3fce:	2000      	movs	r0, #0
    3fd0:	bd10      	pop	{r4, pc}
    3fd2:	2001      	movs	r0, #1
    3fd4:	bd10      	pop	{r4, pc}
    3fd6:	46c0      	nop			; (mov r8, r8)

00003fd8 <__aeabi_fcmpgt>:
    3fd8:	b510      	push	{r4, lr}
    3fda:	f000 f9e1 	bl	43a0 <__gesf2>
    3fde:	2800      	cmp	r0, #0
    3fe0:	dc01      	bgt.n	3fe6 <__aeabi_fcmpgt+0xe>
    3fe2:	2000      	movs	r0, #0
    3fe4:	bd10      	pop	{r4, pc}
    3fe6:	2001      	movs	r0, #1
    3fe8:	bd10      	pop	{r4, pc}
    3fea:	46c0      	nop			; (mov r8, r8)

00003fec <__aeabi_fcmpge>:
    3fec:	b510      	push	{r4, lr}
    3fee:	f000 f9d7 	bl	43a0 <__gesf2>
    3ff2:	2800      	cmp	r0, #0
    3ff4:	da01      	bge.n	3ffa <__aeabi_fcmpge+0xe>
    3ff6:	2000      	movs	r0, #0
    3ff8:	bd10      	pop	{r4, pc}
    3ffa:	2001      	movs	r0, #1
    3ffc:	bd10      	pop	{r4, pc}
    3ffe:	46c0      	nop			; (mov r8, r8)

00004000 <__aeabi_lmul>:
    4000:	b5f0      	push	{r4, r5, r6, r7, lr}
    4002:	464f      	mov	r7, r9
    4004:	4646      	mov	r6, r8
    4006:	0405      	lsls	r5, r0, #16
    4008:	0c2d      	lsrs	r5, r5, #16
    400a:	1c2c      	adds	r4, r5, #0
    400c:	b4c0      	push	{r6, r7}
    400e:	0417      	lsls	r7, r2, #16
    4010:	0c16      	lsrs	r6, r2, #16
    4012:	0c3f      	lsrs	r7, r7, #16
    4014:	4699      	mov	r9, r3
    4016:	0c03      	lsrs	r3, r0, #16
    4018:	437c      	muls	r4, r7
    401a:	4375      	muls	r5, r6
    401c:	435f      	muls	r7, r3
    401e:	4373      	muls	r3, r6
    4020:	197d      	adds	r5, r7, r5
    4022:	0c26      	lsrs	r6, r4, #16
    4024:	19ad      	adds	r5, r5, r6
    4026:	469c      	mov	ip, r3
    4028:	42af      	cmp	r7, r5
    402a:	d903      	bls.n	4034 <__aeabi_lmul+0x34>
    402c:	2380      	movs	r3, #128	; 0x80
    402e:	025b      	lsls	r3, r3, #9
    4030:	4698      	mov	r8, r3
    4032:	44c4      	add	ip, r8
    4034:	464b      	mov	r3, r9
    4036:	4351      	muls	r1, r2
    4038:	4343      	muls	r3, r0
    403a:	0424      	lsls	r4, r4, #16
    403c:	0c2e      	lsrs	r6, r5, #16
    403e:	0c24      	lsrs	r4, r4, #16
    4040:	042d      	lsls	r5, r5, #16
    4042:	4466      	add	r6, ip
    4044:	192c      	adds	r4, r5, r4
    4046:	1859      	adds	r1, r3, r1
    4048:	1989      	adds	r1, r1, r6
    404a:	1c20      	adds	r0, r4, #0
    404c:	bc0c      	pop	{r2, r3}
    404e:	4690      	mov	r8, r2
    4050:	4699      	mov	r9, r3
    4052:	bdf0      	pop	{r4, r5, r6, r7, pc}

00004054 <__aeabi_fadd>:
    4054:	b5f8      	push	{r3, r4, r5, r6, r7, lr}
    4056:	004a      	lsls	r2, r1, #1
    4058:	0243      	lsls	r3, r0, #9
    405a:	0044      	lsls	r4, r0, #1
    405c:	024e      	lsls	r6, r1, #9
    405e:	0fc5      	lsrs	r5, r0, #31
    4060:	0e24      	lsrs	r4, r4, #24
    4062:	1c28      	adds	r0, r5, #0
    4064:	099b      	lsrs	r3, r3, #6
    4066:	0e12      	lsrs	r2, r2, #24
    4068:	0fc9      	lsrs	r1, r1, #31
    406a:	09b7      	lsrs	r7, r6, #6
    406c:	428d      	cmp	r5, r1
    406e:	d040      	beq.n	40f2 <__aeabi_fadd+0x9e>
    4070:	1aa0      	subs	r0, r4, r2
    4072:	2800      	cmp	r0, #0
    4074:	dc00      	bgt.n	4078 <__aeabi_fadd+0x24>
    4076:	e084      	b.n	4182 <__aeabi_fadd+0x12e>
    4078:	2a00      	cmp	r2, #0
    407a:	d11c      	bne.n	40b6 <__aeabi_fadd+0x62>
    407c:	2f00      	cmp	r7, #0
    407e:	d15c      	bne.n	413a <__aeabi_fadd+0xe6>
    4080:	075a      	lsls	r2, r3, #29
    4082:	d004      	beq.n	408e <__aeabi_fadd+0x3a>
    4084:	220f      	movs	r2, #15
    4086:	401a      	ands	r2, r3
    4088:	2a04      	cmp	r2, #4
    408a:	d000      	beq.n	408e <__aeabi_fadd+0x3a>
    408c:	3304      	adds	r3, #4
    408e:	2280      	movs	r2, #128	; 0x80
    4090:	04d2      	lsls	r2, r2, #19
    4092:	401a      	ands	r2, r3
    4094:	1c28      	adds	r0, r5, #0
    4096:	2a00      	cmp	r2, #0
    4098:	d024      	beq.n	40e4 <__aeabi_fadd+0x90>
    409a:	3401      	adds	r4, #1
    409c:	2cff      	cmp	r4, #255	; 0xff
    409e:	d100      	bne.n	40a2 <__aeabi_fadd+0x4e>
    40a0:	e07b      	b.n	419a <__aeabi_fadd+0x146>
    40a2:	019b      	lsls	r3, r3, #6
    40a4:	0a5b      	lsrs	r3, r3, #9
    40a6:	b2e4      	uxtb	r4, r4
    40a8:	025b      	lsls	r3, r3, #9
    40aa:	05e4      	lsls	r4, r4, #23
    40ac:	0a5b      	lsrs	r3, r3, #9
    40ae:	4323      	orrs	r3, r4
    40b0:	07c0      	lsls	r0, r0, #31
    40b2:	4318      	orrs	r0, r3
    40b4:	bdf8      	pop	{r3, r4, r5, r6, r7, pc}
    40b6:	2cff      	cmp	r4, #255	; 0xff
    40b8:	d0e2      	beq.n	4080 <__aeabi_fadd+0x2c>
    40ba:	2280      	movs	r2, #128	; 0x80
    40bc:	04d2      	lsls	r2, r2, #19
    40be:	4317      	orrs	r7, r2
    40c0:	2601      	movs	r6, #1
    40c2:	281b      	cmp	r0, #27
    40c4:	dc08      	bgt.n	40d8 <__aeabi_fadd+0x84>
    40c6:	1c39      	adds	r1, r7, #0
    40c8:	2220      	movs	r2, #32
    40ca:	1c3e      	adds	r6, r7, #0
    40cc:	40c1      	lsrs	r1, r0
    40ce:	1a10      	subs	r0, r2, r0
    40d0:	4086      	lsls	r6, r0
    40d2:	1e77      	subs	r7, r6, #1
    40d4:	41be      	sbcs	r6, r7
    40d6:	430e      	orrs	r6, r1
    40d8:	1b9b      	subs	r3, r3, r6
    40da:	015a      	lsls	r2, r3, #5
    40dc:	d433      	bmi.n	4146 <__aeabi_fadd+0xf2>
    40de:	1c28      	adds	r0, r5, #0
    40e0:	075a      	lsls	r2, r3, #29
    40e2:	d1cf      	bne.n	4084 <__aeabi_fadd+0x30>
    40e4:	08db      	lsrs	r3, r3, #3
    40e6:	2cff      	cmp	r4, #255	; 0xff
    40e8:	d01e      	beq.n	4128 <__aeabi_fadd+0xd4>
    40ea:	025b      	lsls	r3, r3, #9
    40ec:	0a5b      	lsrs	r3, r3, #9
    40ee:	b2e4      	uxtb	r4, r4
    40f0:	e7da      	b.n	40a8 <__aeabi_fadd+0x54>
    40f2:	1aa1      	subs	r1, r4, r2
    40f4:	2900      	cmp	r1, #0
    40f6:	dd57      	ble.n	41a8 <__aeabi_fadd+0x154>
    40f8:	2a00      	cmp	r2, #0
    40fa:	d03a      	beq.n	4172 <__aeabi_fadd+0x11e>
    40fc:	2cff      	cmp	r4, #255	; 0xff
    40fe:	d0bf      	beq.n	4080 <__aeabi_fadd+0x2c>
    4100:	2280      	movs	r2, #128	; 0x80
    4102:	04d2      	lsls	r2, r2, #19
    4104:	4317      	orrs	r7, r2
    4106:	2601      	movs	r6, #1
    4108:	291b      	cmp	r1, #27
    410a:	dd72      	ble.n	41f2 <__aeabi_fadd+0x19e>
    410c:	199b      	adds	r3, r3, r6
    410e:	015a      	lsls	r2, r3, #5
    4110:	d5e5      	bpl.n	40de <__aeabi_fadd+0x8a>
    4112:	3401      	adds	r4, #1
    4114:	2cff      	cmp	r4, #255	; 0xff
    4116:	d100      	bne.n	411a <__aeabi_fadd+0xc6>
    4118:	e087      	b.n	422a <__aeabi_fadd+0x1d6>
    411a:	2101      	movs	r1, #1
    411c:	4a8a      	ldr	r2, [pc, #552]	; (4348 <__aeabi_fadd+0x2f4>)
    411e:	4019      	ands	r1, r3
    4120:	4013      	ands	r3, r2
    4122:	085b      	lsrs	r3, r3, #1
    4124:	430b      	orrs	r3, r1
    4126:	e7ab      	b.n	4080 <__aeabi_fadd+0x2c>
    4128:	2b00      	cmp	r3, #0
    412a:	d036      	beq.n	419a <__aeabi_fadd+0x146>
    412c:	2280      	movs	r2, #128	; 0x80
    412e:	03d2      	lsls	r2, r2, #15
    4130:	4313      	orrs	r3, r2
    4132:	025b      	lsls	r3, r3, #9
    4134:	0a5b      	lsrs	r3, r3, #9
    4136:	24ff      	movs	r4, #255	; 0xff
    4138:	e7b6      	b.n	40a8 <__aeabi_fadd+0x54>
    413a:	3801      	subs	r0, #1
    413c:	2800      	cmp	r0, #0
    413e:	d13f      	bne.n	41c0 <__aeabi_fadd+0x16c>
    4140:	1bdb      	subs	r3, r3, r7
    4142:	015a      	lsls	r2, r3, #5
    4144:	d5cb      	bpl.n	40de <__aeabi_fadd+0x8a>
    4146:	019b      	lsls	r3, r3, #6
    4148:	099e      	lsrs	r6, r3, #6
    414a:	1c30      	adds	r0, r6, #0
    414c:	f002 f984 	bl	6458 <__clzsi2>
    4150:	3805      	subs	r0, #5
    4152:	4086      	lsls	r6, r0
    4154:	4284      	cmp	r4, r0
    4156:	dc23      	bgt.n	41a0 <__aeabi_fadd+0x14c>
    4158:	1b00      	subs	r0, r0, r4
    415a:	241f      	movs	r4, #31
    415c:	1c32      	adds	r2, r6, #0
    415e:	1c43      	adds	r3, r0, #1
    4160:	1a20      	subs	r0, r4, r0
    4162:	40da      	lsrs	r2, r3
    4164:	4086      	lsls	r6, r0
    4166:	1c13      	adds	r3, r2, #0
    4168:	1e74      	subs	r4, r6, #1
    416a:	41a6      	sbcs	r6, r4
    416c:	2400      	movs	r4, #0
    416e:	4333      	orrs	r3, r6
    4170:	e786      	b.n	4080 <__aeabi_fadd+0x2c>
    4172:	2f00      	cmp	r7, #0
    4174:	d100      	bne.n	4178 <__aeabi_fadd+0x124>
    4176:	e783      	b.n	4080 <__aeabi_fadd+0x2c>
    4178:	3901      	subs	r1, #1
    417a:	2900      	cmp	r1, #0
    417c:	d150      	bne.n	4220 <__aeabi_fadd+0x1cc>
    417e:	19db      	adds	r3, r3, r7
    4180:	e7c5      	b.n	410e <__aeabi_fadd+0xba>
    4182:	2800      	cmp	r0, #0
    4184:	d120      	bne.n	41c8 <__aeabi_fadd+0x174>
    4186:	1c62      	adds	r2, r4, #1
    4188:	b2d2      	uxtb	r2, r2
    418a:	2a01      	cmp	r2, #1
    418c:	dd5e      	ble.n	424c <__aeabi_fadd+0x1f8>
    418e:	1bde      	subs	r6, r3, r7
    4190:	0172      	lsls	r2, r6, #5
    4192:	d528      	bpl.n	41e6 <__aeabi_fadd+0x192>
    4194:	1afe      	subs	r6, r7, r3
    4196:	1c0d      	adds	r5, r1, #0
    4198:	e7d7      	b.n	414a <__aeabi_fadd+0xf6>
    419a:	24ff      	movs	r4, #255	; 0xff
    419c:	2300      	movs	r3, #0
    419e:	e783      	b.n	40a8 <__aeabi_fadd+0x54>
    41a0:	4b69      	ldr	r3, [pc, #420]	; (4348 <__aeabi_fadd+0x2f4>)
    41a2:	1a24      	subs	r4, r4, r0
    41a4:	4033      	ands	r3, r6
    41a6:	e76b      	b.n	4080 <__aeabi_fadd+0x2c>
    41a8:	2900      	cmp	r1, #0
    41aa:	d158      	bne.n	425e <__aeabi_fadd+0x20a>
    41ac:	1c62      	adds	r2, r4, #1
    41ae:	b2d1      	uxtb	r1, r2
    41b0:	2901      	cmp	r1, #1
    41b2:	dd3c      	ble.n	422e <__aeabi_fadd+0x1da>
    41b4:	2aff      	cmp	r2, #255	; 0xff
    41b6:	d037      	beq.n	4228 <__aeabi_fadd+0x1d4>
    41b8:	18fb      	adds	r3, r7, r3
    41ba:	085b      	lsrs	r3, r3, #1
    41bc:	1c14      	adds	r4, r2, #0
    41be:	e75f      	b.n	4080 <__aeabi_fadd+0x2c>
    41c0:	2cff      	cmp	r4, #255	; 0xff
    41c2:	d000      	beq.n	41c6 <__aeabi_fadd+0x172>
    41c4:	e77c      	b.n	40c0 <__aeabi_fadd+0x6c>
    41c6:	e75b      	b.n	4080 <__aeabi_fadd+0x2c>
    41c8:	2c00      	cmp	r4, #0
    41ca:	d01e      	beq.n	420a <__aeabi_fadd+0x1b6>
    41cc:	2aff      	cmp	r2, #255	; 0xff
    41ce:	d023      	beq.n	4218 <__aeabi_fadd+0x1c4>
    41d0:	2480      	movs	r4, #128	; 0x80
    41d2:	04e4      	lsls	r4, r4, #19
    41d4:	4240      	negs	r0, r0
    41d6:	4323      	orrs	r3, r4
    41d8:	281b      	cmp	r0, #27
    41da:	dd5b      	ble.n	4294 <__aeabi_fadd+0x240>
    41dc:	2301      	movs	r3, #1
    41de:	1afb      	subs	r3, r7, r3
    41e0:	1c14      	adds	r4, r2, #0
    41e2:	1c0d      	adds	r5, r1, #0
    41e4:	e7ad      	b.n	4142 <__aeabi_fadd+0xee>
    41e6:	2e00      	cmp	r6, #0
    41e8:	d1af      	bne.n	414a <__aeabi_fadd+0xf6>
    41ea:	2300      	movs	r3, #0
    41ec:	2000      	movs	r0, #0
    41ee:	2400      	movs	r4, #0
    41f0:	e778      	b.n	40e4 <__aeabi_fadd+0x90>
    41f2:	1c3a      	adds	r2, r7, #0
    41f4:	40ca      	lsrs	r2, r1
    41f6:	4694      	mov	ip, r2
    41f8:	2220      	movs	r2, #32
    41fa:	1c3e      	adds	r6, r7, #0
    41fc:	1a51      	subs	r1, r2, r1
    41fe:	408e      	lsls	r6, r1
    4200:	4662      	mov	r2, ip
    4202:	1e77      	subs	r7, r6, #1
    4204:	41be      	sbcs	r6, r7
    4206:	4316      	orrs	r6, r2
    4208:	e780      	b.n	410c <__aeabi_fadd+0xb8>
    420a:	2b00      	cmp	r3, #0
    420c:	d03e      	beq.n	428c <__aeabi_fadd+0x238>
    420e:	43c0      	mvns	r0, r0
    4210:	2800      	cmp	r0, #0
    4212:	d0e4      	beq.n	41de <__aeabi_fadd+0x18a>
    4214:	2aff      	cmp	r2, #255	; 0xff
    4216:	d1df      	bne.n	41d8 <__aeabi_fadd+0x184>
    4218:	1c3b      	adds	r3, r7, #0
    421a:	24ff      	movs	r4, #255	; 0xff
    421c:	1c0d      	adds	r5, r1, #0
    421e:	e72f      	b.n	4080 <__aeabi_fadd+0x2c>
    4220:	2cff      	cmp	r4, #255	; 0xff
    4222:	d000      	beq.n	4226 <__aeabi_fadd+0x1d2>
    4224:	e76f      	b.n	4106 <__aeabi_fadd+0xb2>
    4226:	e72b      	b.n	4080 <__aeabi_fadd+0x2c>
    4228:	24ff      	movs	r4, #255	; 0xff
    422a:	2300      	movs	r3, #0
    422c:	e75a      	b.n	40e4 <__aeabi_fadd+0x90>
    422e:	2c00      	cmp	r4, #0
    4230:	d15a      	bne.n	42e8 <__aeabi_fadd+0x294>
    4232:	2b00      	cmp	r3, #0
    4234:	d07f      	beq.n	4336 <__aeabi_fadd+0x2e2>
    4236:	2f00      	cmp	r7, #0
    4238:	d100      	bne.n	423c <__aeabi_fadd+0x1e8>
    423a:	e721      	b.n	4080 <__aeabi_fadd+0x2c>
    423c:	19db      	adds	r3, r3, r7
    423e:	015a      	lsls	r2, r3, #5
    4240:	d400      	bmi.n	4244 <__aeabi_fadd+0x1f0>
    4242:	e74c      	b.n	40de <__aeabi_fadd+0x8a>
    4244:	4a40      	ldr	r2, [pc, #256]	; (4348 <__aeabi_fadd+0x2f4>)
    4246:	3401      	adds	r4, #1
    4248:	4013      	ands	r3, r2
    424a:	e719      	b.n	4080 <__aeabi_fadd+0x2c>
    424c:	2c00      	cmp	r4, #0
    424e:	d115      	bne.n	427c <__aeabi_fadd+0x228>
    4250:	2b00      	cmp	r3, #0
    4252:	d12f      	bne.n	42b4 <__aeabi_fadd+0x260>
    4254:	2f00      	cmp	r7, #0
    4256:	d05d      	beq.n	4314 <__aeabi_fadd+0x2c0>
    4258:	1c3b      	adds	r3, r7, #0
    425a:	1c0d      	adds	r5, r1, #0
    425c:	e710      	b.n	4080 <__aeabi_fadd+0x2c>
    425e:	2c00      	cmp	r4, #0
    4260:	d121      	bne.n	42a6 <__aeabi_fadd+0x252>
    4262:	2b00      	cmp	r3, #0
    4264:	d053      	beq.n	430e <__aeabi_fadd+0x2ba>
    4266:	43c9      	mvns	r1, r1
    4268:	2900      	cmp	r1, #0
    426a:	d004      	beq.n	4276 <__aeabi_fadd+0x222>
    426c:	2aff      	cmp	r2, #255	; 0xff
    426e:	d04b      	beq.n	4308 <__aeabi_fadd+0x2b4>
    4270:	291b      	cmp	r1, #27
    4272:	dd57      	ble.n	4324 <__aeabi_fadd+0x2d0>
    4274:	2301      	movs	r3, #1
    4276:	19db      	adds	r3, r3, r7
    4278:	1c14      	adds	r4, r2, #0
    427a:	e748      	b.n	410e <__aeabi_fadd+0xba>
    427c:	2b00      	cmp	r3, #0
    427e:	d122      	bne.n	42c6 <__aeabi_fadd+0x272>
    4280:	2f00      	cmp	r7, #0
    4282:	d04a      	beq.n	431a <__aeabi_fadd+0x2c6>
    4284:	1c3b      	adds	r3, r7, #0
    4286:	1c0d      	adds	r5, r1, #0
    4288:	24ff      	movs	r4, #255	; 0xff
    428a:	e6f9      	b.n	4080 <__aeabi_fadd+0x2c>
    428c:	1c3b      	adds	r3, r7, #0
    428e:	1c14      	adds	r4, r2, #0
    4290:	1c0d      	adds	r5, r1, #0
    4292:	e6f5      	b.n	4080 <__aeabi_fadd+0x2c>
    4294:	1c1d      	adds	r5, r3, #0
    4296:	2420      	movs	r4, #32
    4298:	40c5      	lsrs	r5, r0
    429a:	1a20      	subs	r0, r4, r0
    429c:	4083      	lsls	r3, r0
    429e:	1e58      	subs	r0, r3, #1
    42a0:	4183      	sbcs	r3, r0
    42a2:	432b      	orrs	r3, r5
    42a4:	e79b      	b.n	41de <__aeabi_fadd+0x18a>
    42a6:	2aff      	cmp	r2, #255	; 0xff
    42a8:	d02e      	beq.n	4308 <__aeabi_fadd+0x2b4>
    42aa:	2480      	movs	r4, #128	; 0x80
    42ac:	04e4      	lsls	r4, r4, #19
    42ae:	4249      	negs	r1, r1
    42b0:	4323      	orrs	r3, r4
    42b2:	e7dd      	b.n	4270 <__aeabi_fadd+0x21c>
    42b4:	2f00      	cmp	r7, #0
    42b6:	d100      	bne.n	42ba <__aeabi_fadd+0x266>
    42b8:	e6e2      	b.n	4080 <__aeabi_fadd+0x2c>
    42ba:	1bda      	subs	r2, r3, r7
    42bc:	0150      	lsls	r0, r2, #5
    42be:	d53c      	bpl.n	433a <__aeabi_fadd+0x2e6>
    42c0:	1afb      	subs	r3, r7, r3
    42c2:	1c0d      	adds	r5, r1, #0
    42c4:	e6dc      	b.n	4080 <__aeabi_fadd+0x2c>
    42c6:	24ff      	movs	r4, #255	; 0xff
    42c8:	2f00      	cmp	r7, #0
    42ca:	d100      	bne.n	42ce <__aeabi_fadd+0x27a>
    42cc:	e6d8      	b.n	4080 <__aeabi_fadd+0x2c>
    42ce:	2280      	movs	r2, #128	; 0x80
    42d0:	08db      	lsrs	r3, r3, #3
    42d2:	03d2      	lsls	r2, r2, #15
    42d4:	4213      	tst	r3, r2
    42d6:	d004      	beq.n	42e2 <__aeabi_fadd+0x28e>
    42d8:	08fe      	lsrs	r6, r7, #3
    42da:	4216      	tst	r6, r2
    42dc:	d101      	bne.n	42e2 <__aeabi_fadd+0x28e>
    42de:	1c33      	adds	r3, r6, #0
    42e0:	1c0d      	adds	r5, r1, #0
    42e2:	00db      	lsls	r3, r3, #3
    42e4:	24ff      	movs	r4, #255	; 0xff
    42e6:	e6cb      	b.n	4080 <__aeabi_fadd+0x2c>
    42e8:	2b00      	cmp	r3, #0
    42ea:	d00d      	beq.n	4308 <__aeabi_fadd+0x2b4>
    42ec:	24ff      	movs	r4, #255	; 0xff
    42ee:	2f00      	cmp	r7, #0
    42f0:	d100      	bne.n	42f4 <__aeabi_fadd+0x2a0>
    42f2:	e6c5      	b.n	4080 <__aeabi_fadd+0x2c>
    42f4:	2280      	movs	r2, #128	; 0x80
    42f6:	08db      	lsrs	r3, r3, #3
    42f8:	03d2      	lsls	r2, r2, #15
    42fa:	4213      	tst	r3, r2
    42fc:	d0f1      	beq.n	42e2 <__aeabi_fadd+0x28e>
    42fe:	08fe      	lsrs	r6, r7, #3
    4300:	4216      	tst	r6, r2
    4302:	d1ee      	bne.n	42e2 <__aeabi_fadd+0x28e>
    4304:	1c33      	adds	r3, r6, #0
    4306:	e7ec      	b.n	42e2 <__aeabi_fadd+0x28e>
    4308:	1c3b      	adds	r3, r7, #0
    430a:	24ff      	movs	r4, #255	; 0xff
    430c:	e6b8      	b.n	4080 <__aeabi_fadd+0x2c>
    430e:	1c3b      	adds	r3, r7, #0
    4310:	1c14      	adds	r4, r2, #0
    4312:	e6b5      	b.n	4080 <__aeabi_fadd+0x2c>
    4314:	1c23      	adds	r3, r4, #0
    4316:	2000      	movs	r0, #0
    4318:	e6e4      	b.n	40e4 <__aeabi_fadd+0x90>
    431a:	2380      	movs	r3, #128	; 0x80
    431c:	2000      	movs	r0, #0
    431e:	049b      	lsls	r3, r3, #18
    4320:	24ff      	movs	r4, #255	; 0xff
    4322:	e6df      	b.n	40e4 <__aeabi_fadd+0x90>
    4324:	1c1e      	adds	r6, r3, #0
    4326:	2420      	movs	r4, #32
    4328:	40ce      	lsrs	r6, r1
    432a:	1a61      	subs	r1, r4, r1
    432c:	408b      	lsls	r3, r1
    432e:	1e59      	subs	r1, r3, #1
    4330:	418b      	sbcs	r3, r1
    4332:	4333      	orrs	r3, r6
    4334:	e79f      	b.n	4276 <__aeabi_fadd+0x222>
    4336:	1c3b      	adds	r3, r7, #0
    4338:	e6a2      	b.n	4080 <__aeabi_fadd+0x2c>
    433a:	1e13      	subs	r3, r2, #0
    433c:	d000      	beq.n	4340 <__aeabi_fadd+0x2ec>
    433e:	e6ce      	b.n	40de <__aeabi_fadd+0x8a>
    4340:	2300      	movs	r3, #0
    4342:	2000      	movs	r0, #0
    4344:	e6ce      	b.n	40e4 <__aeabi_fadd+0x90>
    4346:	46c0      	nop			; (mov r8, r8)
    4348:	fbffffff 	.word	0xfbffffff

0000434c <__eqsf2>:
    434c:	0243      	lsls	r3, r0, #9
    434e:	b570      	push	{r4, r5, r6, lr}
    4350:	0042      	lsls	r2, r0, #1
    4352:	004c      	lsls	r4, r1, #1
    4354:	0a5d      	lsrs	r5, r3, #9
    4356:	0fc3      	lsrs	r3, r0, #31
    4358:	0248      	lsls	r0, r1, #9
    435a:	0e12      	lsrs	r2, r2, #24
    435c:	0a46      	lsrs	r6, r0, #9
    435e:	0e24      	lsrs	r4, r4, #24
    4360:	0fc9      	lsrs	r1, r1, #31
    4362:	2aff      	cmp	r2, #255	; 0xff
    4364:	d005      	beq.n	4372 <__eqsf2+0x26>
    4366:	2cff      	cmp	r4, #255	; 0xff
    4368:	d008      	beq.n	437c <__eqsf2+0x30>
    436a:	2001      	movs	r0, #1
    436c:	42a2      	cmp	r2, r4
    436e:	d00b      	beq.n	4388 <__eqsf2+0x3c>
    4370:	bd70      	pop	{r4, r5, r6, pc}
    4372:	2001      	movs	r0, #1
    4374:	2d00      	cmp	r5, #0
    4376:	d1fb      	bne.n	4370 <__eqsf2+0x24>
    4378:	2cff      	cmp	r4, #255	; 0xff
    437a:	d1f6      	bne.n	436a <__eqsf2+0x1e>
    437c:	2001      	movs	r0, #1
    437e:	2e00      	cmp	r6, #0
    4380:	d1f6      	bne.n	4370 <__eqsf2+0x24>
    4382:	2001      	movs	r0, #1
    4384:	42a2      	cmp	r2, r4
    4386:	d1f3      	bne.n	4370 <__eqsf2+0x24>
    4388:	42b5      	cmp	r5, r6
    438a:	d1f1      	bne.n	4370 <__eqsf2+0x24>
    438c:	428b      	cmp	r3, r1
    438e:	d005      	beq.n	439c <__eqsf2+0x50>
    4390:	2a00      	cmp	r2, #0
    4392:	d1ed      	bne.n	4370 <__eqsf2+0x24>
    4394:	1c28      	adds	r0, r5, #0
    4396:	1e43      	subs	r3, r0, #1
    4398:	4198      	sbcs	r0, r3
    439a:	e7e9      	b.n	4370 <__eqsf2+0x24>
    439c:	2000      	movs	r0, #0
    439e:	e7e7      	b.n	4370 <__eqsf2+0x24>

000043a0 <__gesf2>:
    43a0:	b5f0      	push	{r4, r5, r6, r7, lr}
    43a2:	0243      	lsls	r3, r0, #9
    43a4:	024d      	lsls	r5, r1, #9
    43a6:	004a      	lsls	r2, r1, #1
    43a8:	0044      	lsls	r4, r0, #1
    43aa:	0a5e      	lsrs	r6, r3, #9
    43ac:	0e24      	lsrs	r4, r4, #24
    43ae:	0fc3      	lsrs	r3, r0, #31
    43b0:	0a6d      	lsrs	r5, r5, #9
    43b2:	0e12      	lsrs	r2, r2, #24
    43b4:	0fc9      	lsrs	r1, r1, #31
    43b6:	2cff      	cmp	r4, #255	; 0xff
    43b8:	d00d      	beq.n	43d6 <__gesf2+0x36>
    43ba:	2aff      	cmp	r2, #255	; 0xff
    43bc:	d031      	beq.n	4422 <__gesf2+0x82>
    43be:	2c00      	cmp	r4, #0
    43c0:	d10d      	bne.n	43de <__gesf2+0x3e>
    43c2:	4277      	negs	r7, r6
    43c4:	4177      	adcs	r7, r6
    43c6:	2a00      	cmp	r2, #0
    43c8:	d123      	bne.n	4412 <__gesf2+0x72>
    43ca:	2d00      	cmp	r5, #0
    43cc:	d121      	bne.n	4412 <__gesf2+0x72>
    43ce:	2000      	movs	r0, #0
    43d0:	2f00      	cmp	r7, #0
    43d2:	d10b      	bne.n	43ec <__gesf2+0x4c>
    43d4:	e007      	b.n	43e6 <__gesf2+0x46>
    43d6:	2e00      	cmp	r6, #0
    43d8:	d128      	bne.n	442c <__gesf2+0x8c>
    43da:	2aff      	cmp	r2, #255	; 0xff
    43dc:	d021      	beq.n	4422 <__gesf2+0x82>
    43de:	2a00      	cmp	r2, #0
    43e0:	d005      	beq.n	43ee <__gesf2+0x4e>
    43e2:	428b      	cmp	r3, r1
    43e4:	d007      	beq.n	43f6 <__gesf2+0x56>
    43e6:	4258      	negs	r0, r3
    43e8:	2301      	movs	r3, #1
    43ea:	4318      	orrs	r0, r3
    43ec:	bdf0      	pop	{r4, r5, r6, r7, pc}
    43ee:	2d00      	cmp	r5, #0
    43f0:	d0f9      	beq.n	43e6 <__gesf2+0x46>
    43f2:	428b      	cmp	r3, r1
    43f4:	d1f7      	bne.n	43e6 <__gesf2+0x46>
    43f6:	4294      	cmp	r4, r2
    43f8:	dcf5      	bgt.n	43e6 <__gesf2+0x46>
    43fa:	db04      	blt.n	4406 <__gesf2+0x66>
    43fc:	42ae      	cmp	r6, r5
    43fe:	d8f2      	bhi.n	43e6 <__gesf2+0x46>
    4400:	2000      	movs	r0, #0
    4402:	42ae      	cmp	r6, r5
    4404:	d2f2      	bcs.n	43ec <__gesf2+0x4c>
    4406:	4258      	negs	r0, r3
    4408:	4143      	adcs	r3, r0
    440a:	2001      	movs	r0, #1
    440c:	425b      	negs	r3, r3
    440e:	4318      	orrs	r0, r3
    4410:	e7ec      	b.n	43ec <__gesf2+0x4c>
    4412:	2f00      	cmp	r7, #0
    4414:	d0e5      	beq.n	43e2 <__gesf2+0x42>
    4416:	4248      	negs	r0, r1
    4418:	4141      	adcs	r1, r0
    441a:	2001      	movs	r0, #1
    441c:	4249      	negs	r1, r1
    441e:	4308      	orrs	r0, r1
    4420:	e7e4      	b.n	43ec <__gesf2+0x4c>
    4422:	2d00      	cmp	r5, #0
    4424:	d102      	bne.n	442c <__gesf2+0x8c>
    4426:	2c00      	cmp	r4, #0
    4428:	d0cb      	beq.n	43c2 <__gesf2+0x22>
    442a:	e7da      	b.n	43e2 <__gesf2+0x42>
    442c:	2002      	movs	r0, #2
    442e:	4240      	negs	r0, r0
    4430:	e7dc      	b.n	43ec <__gesf2+0x4c>
    4432:	46c0      	nop			; (mov r8, r8)

00004434 <__lesf2>:
    4434:	0243      	lsls	r3, r0, #9
    4436:	b5f0      	push	{r4, r5, r6, r7, lr}
    4438:	0042      	lsls	r2, r0, #1
    443a:	004c      	lsls	r4, r1, #1
    443c:	0a5e      	lsrs	r6, r3, #9
    443e:	0fc3      	lsrs	r3, r0, #31
    4440:	0248      	lsls	r0, r1, #9
    4442:	0e12      	lsrs	r2, r2, #24
    4444:	0a45      	lsrs	r5, r0, #9
    4446:	0e24      	lsrs	r4, r4, #24
    4448:	0fc9      	lsrs	r1, r1, #31
    444a:	2aff      	cmp	r2, #255	; 0xff
    444c:	d00f      	beq.n	446e <__lesf2+0x3a>
    444e:	2cff      	cmp	r4, #255	; 0xff
    4450:	d01a      	beq.n	4488 <__lesf2+0x54>
    4452:	2a00      	cmp	r2, #0
    4454:	d110      	bne.n	4478 <__lesf2+0x44>
    4456:	4277      	negs	r7, r6
    4458:	4177      	adcs	r7, r6
    445a:	2c00      	cmp	r4, #0
    445c:	d029      	beq.n	44b2 <__lesf2+0x7e>
    445e:	2f00      	cmp	r7, #0
    4460:	d017      	beq.n	4492 <__lesf2+0x5e>
    4462:	4248      	negs	r0, r1
    4464:	4141      	adcs	r1, r0
    4466:	2001      	movs	r0, #1
    4468:	4249      	negs	r1, r1
    446a:	4308      	orrs	r0, r1
    446c:	e00b      	b.n	4486 <__lesf2+0x52>
    446e:	2002      	movs	r0, #2
    4470:	2e00      	cmp	r6, #0
    4472:	d108      	bne.n	4486 <__lesf2+0x52>
    4474:	2cff      	cmp	r4, #255	; 0xff
    4476:	d007      	beq.n	4488 <__lesf2+0x54>
    4478:	2c00      	cmp	r4, #0
    447a:	d10a      	bne.n	4492 <__lesf2+0x5e>
    447c:	2d00      	cmp	r5, #0
    447e:	d108      	bne.n	4492 <__lesf2+0x5e>
    4480:	4258      	negs	r0, r3
    4482:	2301      	movs	r3, #1
    4484:	4318      	orrs	r0, r3
    4486:	bdf0      	pop	{r4, r5, r6, r7, pc}
    4488:	2002      	movs	r0, #2
    448a:	2d00      	cmp	r5, #0
    448c:	d1fb      	bne.n	4486 <__lesf2+0x52>
    448e:	2a00      	cmp	r2, #0
    4490:	d0e1      	beq.n	4456 <__lesf2+0x22>
    4492:	428b      	cmp	r3, r1
    4494:	d1f4      	bne.n	4480 <__lesf2+0x4c>
    4496:	42a2      	cmp	r2, r4
    4498:	dcf2      	bgt.n	4480 <__lesf2+0x4c>
    449a:	db04      	blt.n	44a6 <__lesf2+0x72>
    449c:	42ae      	cmp	r6, r5
    449e:	d8ef      	bhi.n	4480 <__lesf2+0x4c>
    44a0:	2000      	movs	r0, #0
    44a2:	42ae      	cmp	r6, r5
    44a4:	d2ef      	bcs.n	4486 <__lesf2+0x52>
    44a6:	4258      	negs	r0, r3
    44a8:	4143      	adcs	r3, r0
    44aa:	2001      	movs	r0, #1
    44ac:	425b      	negs	r3, r3
    44ae:	4318      	orrs	r0, r3
    44b0:	e7e9      	b.n	4486 <__lesf2+0x52>
    44b2:	2d00      	cmp	r5, #0
    44b4:	d1d3      	bne.n	445e <__lesf2+0x2a>
    44b6:	2000      	movs	r0, #0
    44b8:	2f00      	cmp	r7, #0
    44ba:	d1e4      	bne.n	4486 <__lesf2+0x52>
    44bc:	e7e0      	b.n	4480 <__lesf2+0x4c>
    44be:	46c0      	nop			; (mov r8, r8)

000044c0 <__aeabi_fmul>:
    44c0:	b5f0      	push	{r4, r5, r6, r7, lr}
    44c2:	465f      	mov	r7, fp
    44c4:	4656      	mov	r6, sl
    44c6:	464d      	mov	r5, r9
    44c8:	4644      	mov	r4, r8
    44ca:	b4f0      	push	{r4, r5, r6, r7}
    44cc:	0245      	lsls	r5, r0, #9
    44ce:	0046      	lsls	r6, r0, #1
    44d0:	0fc4      	lsrs	r4, r0, #31
    44d2:	b083      	sub	sp, #12
    44d4:	1c0f      	adds	r7, r1, #0
    44d6:	0a6d      	lsrs	r5, r5, #9
    44d8:	0e36      	lsrs	r6, r6, #24
    44da:	46a3      	mov	fp, r4
    44dc:	d045      	beq.n	456a <__aeabi_fmul+0xaa>
    44de:	2eff      	cmp	r6, #255	; 0xff
    44e0:	d025      	beq.n	452e <__aeabi_fmul+0x6e>
    44e2:	2380      	movs	r3, #128	; 0x80
    44e4:	041b      	lsls	r3, r3, #16
    44e6:	431d      	orrs	r5, r3
    44e8:	2300      	movs	r3, #0
    44ea:	469a      	mov	sl, r3
    44ec:	00ed      	lsls	r5, r5, #3
    44ee:	3e7f      	subs	r6, #127	; 0x7f
    44f0:	9301      	str	r3, [sp, #4]
    44f2:	027b      	lsls	r3, r7, #9
    44f4:	0a5b      	lsrs	r3, r3, #9
    44f6:	4698      	mov	r8, r3
    44f8:	0078      	lsls	r0, r7, #1
    44fa:	0ffb      	lsrs	r3, r7, #31
    44fc:	0e00      	lsrs	r0, r0, #24
    44fe:	4699      	mov	r9, r3
    4500:	d040      	beq.n	4584 <__aeabi_fmul+0xc4>
    4502:	28ff      	cmp	r0, #255	; 0xff
    4504:	d038      	beq.n	4578 <__aeabi_fmul+0xb8>
    4506:	2380      	movs	r3, #128	; 0x80
    4508:	4642      	mov	r2, r8
    450a:	041b      	lsls	r3, r3, #16
    450c:	4313      	orrs	r3, r2
    450e:	00db      	lsls	r3, r3, #3
    4510:	4698      	mov	r8, r3
    4512:	2300      	movs	r3, #0
    4514:	387f      	subs	r0, #127	; 0x7f
    4516:	464a      	mov	r2, r9
    4518:	9f01      	ldr	r7, [sp, #4]
    451a:	1830      	adds	r0, r6, r0
    451c:	4062      	eors	r2, r4
    451e:	1c41      	adds	r1, r0, #1
    4520:	431f      	orrs	r7, r3
    4522:	2f0f      	cmp	r7, #15
    4524:	d869      	bhi.n	45fa <__aeabi_fmul+0x13a>
    4526:	4e7d      	ldr	r6, [pc, #500]	; (471c <__aeabi_fmul+0x25c>)
    4528:	00bf      	lsls	r7, r7, #2
    452a:	59f6      	ldr	r6, [r6, r7]
    452c:	46b7      	mov	pc, r6
    452e:	2d00      	cmp	r5, #0
    4530:	d145      	bne.n	45be <__aeabi_fmul+0xfe>
    4532:	2308      	movs	r3, #8
    4534:	9301      	str	r3, [sp, #4]
    4536:	3b06      	subs	r3, #6
    4538:	469a      	mov	sl, r3
    453a:	e7da      	b.n	44f2 <__aeabi_fmul+0x32>
    453c:	4693      	mov	fp, r2
    453e:	4653      	mov	r3, sl
    4540:	2b02      	cmp	r3, #2
    4542:	d12f      	bne.n	45a4 <__aeabi_fmul+0xe4>
    4544:	465b      	mov	r3, fp
    4546:	2401      	movs	r4, #1
    4548:	2500      	movs	r5, #0
    454a:	401c      	ands	r4, r3
    454c:	23ff      	movs	r3, #255	; 0xff
    454e:	026d      	lsls	r5, r5, #9
    4550:	05db      	lsls	r3, r3, #23
    4552:	0a6d      	lsrs	r5, r5, #9
    4554:	07e4      	lsls	r4, r4, #31
    4556:	431d      	orrs	r5, r3
    4558:	4325      	orrs	r5, r4
    455a:	1c28      	adds	r0, r5, #0
    455c:	b003      	add	sp, #12
    455e:	bc3c      	pop	{r2, r3, r4, r5}
    4560:	4690      	mov	r8, r2
    4562:	4699      	mov	r9, r3
    4564:	46a2      	mov	sl, r4
    4566:	46ab      	mov	fp, r5
    4568:	bdf0      	pop	{r4, r5, r6, r7, pc}
    456a:	2d00      	cmp	r5, #0
    456c:	d12c      	bne.n	45c8 <__aeabi_fmul+0x108>
    456e:	2304      	movs	r3, #4
    4570:	9301      	str	r3, [sp, #4]
    4572:	3b03      	subs	r3, #3
    4574:	469a      	mov	sl, r3
    4576:	e7bc      	b.n	44f2 <__aeabi_fmul+0x32>
    4578:	4643      	mov	r3, r8
    457a:	425a      	negs	r2, r3
    457c:	4153      	adcs	r3, r2
    457e:	2203      	movs	r2, #3
    4580:	1ad3      	subs	r3, r2, r3
    4582:	e7c8      	b.n	4516 <__aeabi_fmul+0x56>
    4584:	4642      	mov	r2, r8
    4586:	2301      	movs	r3, #1
    4588:	2a00      	cmp	r2, #0
    458a:	d0c4      	beq.n	4516 <__aeabi_fmul+0x56>
    458c:	4640      	mov	r0, r8
    458e:	f001 ff63 	bl	6458 <__clzsi2>
    4592:	4642      	mov	r2, r8
    4594:	1f43      	subs	r3, r0, #5
    4596:	409a      	lsls	r2, r3
    4598:	2376      	movs	r3, #118	; 0x76
    459a:	425b      	negs	r3, r3
    459c:	1a18      	subs	r0, r3, r0
    459e:	4690      	mov	r8, r2
    45a0:	2300      	movs	r3, #0
    45a2:	e7b8      	b.n	4516 <__aeabi_fmul+0x56>
    45a4:	2b03      	cmp	r3, #3
    45a6:	d100      	bne.n	45aa <__aeabi_fmul+0xea>
    45a8:	e0ad      	b.n	4706 <__aeabi_fmul+0x246>
    45aa:	2b01      	cmp	r3, #1
    45ac:	d000      	beq.n	45b0 <__aeabi_fmul+0xf0>
    45ae:	e08c      	b.n	46ca <__aeabi_fmul+0x20a>
    45b0:	465b      	mov	r3, fp
    45b2:	4654      	mov	r4, sl
    45b4:	401c      	ands	r4, r3
    45b6:	b2e4      	uxtb	r4, r4
    45b8:	2300      	movs	r3, #0
    45ba:	2500      	movs	r5, #0
    45bc:	e7c7      	b.n	454e <__aeabi_fmul+0x8e>
    45be:	230c      	movs	r3, #12
    45c0:	9301      	str	r3, [sp, #4]
    45c2:	3b09      	subs	r3, #9
    45c4:	469a      	mov	sl, r3
    45c6:	e794      	b.n	44f2 <__aeabi_fmul+0x32>
    45c8:	1c28      	adds	r0, r5, #0
    45ca:	f001 ff45 	bl	6458 <__clzsi2>
    45ce:	2676      	movs	r6, #118	; 0x76
    45d0:	1f43      	subs	r3, r0, #5
    45d2:	409d      	lsls	r5, r3
    45d4:	2300      	movs	r3, #0
    45d6:	4276      	negs	r6, r6
    45d8:	1a36      	subs	r6, r6, r0
    45da:	9301      	str	r3, [sp, #4]
    45dc:	469a      	mov	sl, r3
    45de:	e788      	b.n	44f2 <__aeabi_fmul+0x32>
    45e0:	2580      	movs	r5, #128	; 0x80
    45e2:	2400      	movs	r4, #0
    45e4:	03ed      	lsls	r5, r5, #15
    45e6:	23ff      	movs	r3, #255	; 0xff
    45e8:	e7b1      	b.n	454e <__aeabi_fmul+0x8e>
    45ea:	4645      	mov	r5, r8
    45ec:	46cb      	mov	fp, r9
    45ee:	469a      	mov	sl, r3
    45f0:	e7a5      	b.n	453e <__aeabi_fmul+0x7e>
    45f2:	4645      	mov	r5, r8
    45f4:	4693      	mov	fp, r2
    45f6:	469a      	mov	sl, r3
    45f8:	e7a1      	b.n	453e <__aeabi_fmul+0x7e>
    45fa:	4643      	mov	r3, r8
    45fc:	042c      	lsls	r4, r5, #16
    45fe:	0c1b      	lsrs	r3, r3, #16
    4600:	469c      	mov	ip, r3
    4602:	0c23      	lsrs	r3, r4, #16
    4604:	4644      	mov	r4, r8
    4606:	0426      	lsls	r6, r4, #16
    4608:	1c1c      	adds	r4, r3, #0
    460a:	0c36      	lsrs	r6, r6, #16
    460c:	0c2f      	lsrs	r7, r5, #16
    460e:	4374      	muls	r4, r6
    4610:	1c35      	adds	r5, r6, #0
    4612:	4666      	mov	r6, ip
    4614:	437d      	muls	r5, r7
    4616:	4373      	muls	r3, r6
    4618:	4377      	muls	r7, r6
    461a:	18eb      	adds	r3, r5, r3
    461c:	0c26      	lsrs	r6, r4, #16
    461e:	199e      	adds	r6, r3, r6
    4620:	42b5      	cmp	r5, r6
    4622:	d903      	bls.n	462c <__aeabi_fmul+0x16c>
    4624:	2380      	movs	r3, #128	; 0x80
    4626:	025b      	lsls	r3, r3, #9
    4628:	469c      	mov	ip, r3
    462a:	4467      	add	r7, ip
    462c:	0424      	lsls	r4, r4, #16
    462e:	0433      	lsls	r3, r6, #16
    4630:	0c24      	lsrs	r4, r4, #16
    4632:	191b      	adds	r3, r3, r4
    4634:	019d      	lsls	r5, r3, #6
    4636:	1e6c      	subs	r4, r5, #1
    4638:	41a5      	sbcs	r5, r4
    463a:	0e9b      	lsrs	r3, r3, #26
    463c:	0c36      	lsrs	r6, r6, #16
    463e:	432b      	orrs	r3, r5
    4640:	19bd      	adds	r5, r7, r6
    4642:	01ad      	lsls	r5, r5, #6
    4644:	431d      	orrs	r5, r3
    4646:	012b      	lsls	r3, r5, #4
    4648:	d504      	bpl.n	4654 <__aeabi_fmul+0x194>
    464a:	2301      	movs	r3, #1
    464c:	0868      	lsrs	r0, r5, #1
    464e:	401d      	ands	r5, r3
    4650:	4305      	orrs	r5, r0
    4652:	1c08      	adds	r0, r1, #0
    4654:	1c03      	adds	r3, r0, #0
    4656:	337f      	adds	r3, #127	; 0x7f
    4658:	2b00      	cmp	r3, #0
    465a:	dd2c      	ble.n	46b6 <__aeabi_fmul+0x1f6>
    465c:	0769      	lsls	r1, r5, #29
    465e:	d004      	beq.n	466a <__aeabi_fmul+0x1aa>
    4660:	210f      	movs	r1, #15
    4662:	4029      	ands	r1, r5
    4664:	2904      	cmp	r1, #4
    4666:	d000      	beq.n	466a <__aeabi_fmul+0x1aa>
    4668:	3504      	adds	r5, #4
    466a:	0129      	lsls	r1, r5, #4
    466c:	d503      	bpl.n	4676 <__aeabi_fmul+0x1b6>
    466e:	4b2c      	ldr	r3, [pc, #176]	; (4720 <__aeabi_fmul+0x260>)
    4670:	401d      	ands	r5, r3
    4672:	1c03      	adds	r3, r0, #0
    4674:	3380      	adds	r3, #128	; 0x80
    4676:	2bfe      	cmp	r3, #254	; 0xfe
    4678:	dd17      	ble.n	46aa <__aeabi_fmul+0x1ea>
    467a:	2401      	movs	r4, #1
    467c:	23ff      	movs	r3, #255	; 0xff
    467e:	4014      	ands	r4, r2
    4680:	2500      	movs	r5, #0
    4682:	e764      	b.n	454e <__aeabi_fmul+0x8e>
    4684:	2080      	movs	r0, #128	; 0x80
    4686:	03c0      	lsls	r0, r0, #15
    4688:	4205      	tst	r5, r0
    468a:	d009      	beq.n	46a0 <__aeabi_fmul+0x1e0>
    468c:	4643      	mov	r3, r8
    468e:	4203      	tst	r3, r0
    4690:	d106      	bne.n	46a0 <__aeabi_fmul+0x1e0>
    4692:	4645      	mov	r5, r8
    4694:	4305      	orrs	r5, r0
    4696:	026d      	lsls	r5, r5, #9
    4698:	0a6d      	lsrs	r5, r5, #9
    469a:	464c      	mov	r4, r9
    469c:	23ff      	movs	r3, #255	; 0xff
    469e:	e756      	b.n	454e <__aeabi_fmul+0x8e>
    46a0:	4305      	orrs	r5, r0
    46a2:	026d      	lsls	r5, r5, #9
    46a4:	0a6d      	lsrs	r5, r5, #9
    46a6:	23ff      	movs	r3, #255	; 0xff
    46a8:	e751      	b.n	454e <__aeabi_fmul+0x8e>
    46aa:	2401      	movs	r4, #1
    46ac:	01ad      	lsls	r5, r5, #6
    46ae:	0a6d      	lsrs	r5, r5, #9
    46b0:	b2db      	uxtb	r3, r3
    46b2:	4014      	ands	r4, r2
    46b4:	e74b      	b.n	454e <__aeabi_fmul+0x8e>
    46b6:	237e      	movs	r3, #126	; 0x7e
    46b8:	425b      	negs	r3, r3
    46ba:	1a1b      	subs	r3, r3, r0
    46bc:	2b1b      	cmp	r3, #27
    46be:	dd07      	ble.n	46d0 <__aeabi_fmul+0x210>
    46c0:	2401      	movs	r4, #1
    46c2:	2300      	movs	r3, #0
    46c4:	4014      	ands	r4, r2
    46c6:	2500      	movs	r5, #0
    46c8:	e741      	b.n	454e <__aeabi_fmul+0x8e>
    46ca:	1c08      	adds	r0, r1, #0
    46cc:	465a      	mov	r2, fp
    46ce:	e7c1      	b.n	4654 <__aeabi_fmul+0x194>
    46d0:	309e      	adds	r0, #158	; 0x9e
    46d2:	1c29      	adds	r1, r5, #0
    46d4:	4085      	lsls	r5, r0
    46d6:	40d9      	lsrs	r1, r3
    46d8:	1e68      	subs	r0, r5, #1
    46da:	4185      	sbcs	r5, r0
    46dc:	430d      	orrs	r5, r1
    46de:	076b      	lsls	r3, r5, #29
    46e0:	d004      	beq.n	46ec <__aeabi_fmul+0x22c>
    46e2:	230f      	movs	r3, #15
    46e4:	402b      	ands	r3, r5
    46e6:	2b04      	cmp	r3, #4
    46e8:	d000      	beq.n	46ec <__aeabi_fmul+0x22c>
    46ea:	3504      	adds	r5, #4
    46ec:	016b      	lsls	r3, r5, #5
    46ee:	d504      	bpl.n	46fa <__aeabi_fmul+0x23a>
    46f0:	2401      	movs	r4, #1
    46f2:	2301      	movs	r3, #1
    46f4:	4014      	ands	r4, r2
    46f6:	2500      	movs	r5, #0
    46f8:	e729      	b.n	454e <__aeabi_fmul+0x8e>
    46fa:	2401      	movs	r4, #1
    46fc:	01ad      	lsls	r5, r5, #6
    46fe:	0a6d      	lsrs	r5, r5, #9
    4700:	4014      	ands	r4, r2
    4702:	2300      	movs	r3, #0
    4704:	e723      	b.n	454e <__aeabi_fmul+0x8e>
    4706:	2380      	movs	r3, #128	; 0x80
    4708:	03db      	lsls	r3, r3, #15
    470a:	431d      	orrs	r5, r3
    470c:	2401      	movs	r4, #1
    470e:	465b      	mov	r3, fp
    4710:	026d      	lsls	r5, r5, #9
    4712:	4023      	ands	r3, r4
    4714:	1c1c      	adds	r4, r3, #0
    4716:	0a6d      	lsrs	r5, r5, #9
    4718:	23ff      	movs	r3, #255	; 0xff
    471a:	e718      	b.n	454e <__aeabi_fmul+0x8e>
    471c:	000076e0 	.word	0x000076e0
    4720:	f7ffffff 	.word	0xf7ffffff

00004724 <__aeabi_dadd>:
    4724:	b5f0      	push	{r4, r5, r6, r7, lr}
    4726:	4645      	mov	r5, r8
    4728:	4657      	mov	r7, sl
    472a:	464e      	mov	r6, r9
    472c:	4694      	mov	ip, r2
    472e:	004c      	lsls	r4, r1, #1
    4730:	030a      	lsls	r2, r1, #12
    4732:	0fc9      	lsrs	r1, r1, #31
    4734:	b4e0      	push	{r5, r6, r7}
    4736:	4688      	mov	r8, r1
    4738:	1c0e      	adds	r6, r1, #0
    473a:	0319      	lsls	r1, r3, #12
    473c:	0f47      	lsrs	r7, r0, #29
    473e:	00c5      	lsls	r5, r0, #3
    4740:	0a48      	lsrs	r0, r1, #9
    4742:	4661      	mov	r1, ip
    4744:	0f49      	lsrs	r1, r1, #29
    4746:	4301      	orrs	r1, r0
    4748:	4660      	mov	r0, ip
    474a:	0a52      	lsrs	r2, r2, #9
    474c:	4317      	orrs	r7, r2
    474e:	00c0      	lsls	r0, r0, #3
    4750:	005a      	lsls	r2, r3, #1
    4752:	0d64      	lsrs	r4, r4, #21
    4754:	0d52      	lsrs	r2, r2, #21
    4756:	0fdb      	lsrs	r3, r3, #31
    4758:	4684      	mov	ip, r0
    475a:	4598      	cmp	r8, r3
    475c:	d100      	bne.n	4760 <__aeabi_dadd+0x3c>
    475e:	e0a7      	b.n	48b0 <__aeabi_dadd+0x18c>
    4760:	1aa0      	subs	r0, r4, r2
    4762:	2800      	cmp	r0, #0
    4764:	dc00      	bgt.n	4768 <__aeabi_dadd+0x44>
    4766:	e101      	b.n	496c <__aeabi_dadd+0x248>
    4768:	2a00      	cmp	r2, #0
    476a:	d13d      	bne.n	47e8 <__aeabi_dadd+0xc4>
    476c:	4663      	mov	r3, ip
    476e:	430b      	orrs	r3, r1
    4770:	d000      	beq.n	4774 <__aeabi_dadd+0x50>
    4772:	e0d4      	b.n	491e <__aeabi_dadd+0x1fa>
    4774:	076b      	lsls	r3, r5, #29
    4776:	d100      	bne.n	477a <__aeabi_dadd+0x56>
    4778:	e088      	b.n	488c <__aeabi_dadd+0x168>
    477a:	230f      	movs	r3, #15
    477c:	402b      	ands	r3, r5
    477e:	2b04      	cmp	r3, #4
    4780:	d100      	bne.n	4784 <__aeabi_dadd+0x60>
    4782:	e083      	b.n	488c <__aeabi_dadd+0x168>
    4784:	1d2a      	adds	r2, r5, #4
    4786:	42aa      	cmp	r2, r5
    4788:	41ad      	sbcs	r5, r5
    478a:	2380      	movs	r3, #128	; 0x80
    478c:	426d      	negs	r5, r5
    478e:	197f      	adds	r7, r7, r5
    4790:	041b      	lsls	r3, r3, #16
    4792:	403b      	ands	r3, r7
    4794:	4646      	mov	r6, r8
    4796:	1c15      	adds	r5, r2, #0
    4798:	2b00      	cmp	r3, #0
    479a:	d100      	bne.n	479e <__aeabi_dadd+0x7a>
    479c:	e07c      	b.n	4898 <__aeabi_dadd+0x174>
    479e:	4bcc      	ldr	r3, [pc, #816]	; (4ad0 <__aeabi_dadd+0x3ac>)
    47a0:	3401      	adds	r4, #1
    47a2:	429c      	cmp	r4, r3
    47a4:	d100      	bne.n	47a8 <__aeabi_dadd+0x84>
    47a6:	e0fd      	b.n	49a4 <__aeabi_dadd+0x280>
    47a8:	1c3a      	adds	r2, r7, #0
    47aa:	4bca      	ldr	r3, [pc, #808]	; (4ad4 <__aeabi_dadd+0x3b0>)
    47ac:	08ed      	lsrs	r5, r5, #3
    47ae:	401a      	ands	r2, r3
    47b0:	0750      	lsls	r0, r2, #29
    47b2:	0564      	lsls	r4, r4, #21
    47b4:	0252      	lsls	r2, r2, #9
    47b6:	4305      	orrs	r5, r0
    47b8:	0b12      	lsrs	r2, r2, #12
    47ba:	0d64      	lsrs	r4, r4, #21
    47bc:	2100      	movs	r1, #0
    47be:	0312      	lsls	r2, r2, #12
    47c0:	0d0b      	lsrs	r3, r1, #20
    47c2:	051b      	lsls	r3, r3, #20
    47c4:	0564      	lsls	r4, r4, #21
    47c6:	0b12      	lsrs	r2, r2, #12
    47c8:	431a      	orrs	r2, r3
    47ca:	0863      	lsrs	r3, r4, #1
    47cc:	4cc2      	ldr	r4, [pc, #776]	; (4ad8 <__aeabi_dadd+0x3b4>)
    47ce:	07f6      	lsls	r6, r6, #31
    47d0:	4014      	ands	r4, r2
    47d2:	431c      	orrs	r4, r3
    47d4:	0064      	lsls	r4, r4, #1
    47d6:	0864      	lsrs	r4, r4, #1
    47d8:	4334      	orrs	r4, r6
    47da:	1c28      	adds	r0, r5, #0
    47dc:	1c21      	adds	r1, r4, #0
    47de:	bc1c      	pop	{r2, r3, r4}
    47e0:	4690      	mov	r8, r2
    47e2:	4699      	mov	r9, r3
    47e4:	46a2      	mov	sl, r4
    47e6:	bdf0      	pop	{r4, r5, r6, r7, pc}
    47e8:	4bb9      	ldr	r3, [pc, #740]	; (4ad0 <__aeabi_dadd+0x3ac>)
    47ea:	429c      	cmp	r4, r3
    47ec:	d0c2      	beq.n	4774 <__aeabi_dadd+0x50>
    47ee:	2380      	movs	r3, #128	; 0x80
    47f0:	041b      	lsls	r3, r3, #16
    47f2:	4319      	orrs	r1, r3
    47f4:	2838      	cmp	r0, #56	; 0x38
    47f6:	dd00      	ble.n	47fa <__aeabi_dadd+0xd6>
    47f8:	e0ec      	b.n	49d4 <__aeabi_dadd+0x2b0>
    47fa:	281f      	cmp	r0, #31
    47fc:	dd00      	ble.n	4800 <__aeabi_dadd+0xdc>
    47fe:	e121      	b.n	4a44 <__aeabi_dadd+0x320>
    4800:	2220      	movs	r2, #32
    4802:	1c0e      	adds	r6, r1, #0
    4804:	4663      	mov	r3, ip
    4806:	1a12      	subs	r2, r2, r0
    4808:	4096      	lsls	r6, r2
    480a:	40c3      	lsrs	r3, r0
    480c:	4333      	orrs	r3, r6
    480e:	4666      	mov	r6, ip
    4810:	4096      	lsls	r6, r2
    4812:	1c32      	adds	r2, r6, #0
    4814:	1e56      	subs	r6, r2, #1
    4816:	41b2      	sbcs	r2, r6
    4818:	4313      	orrs	r3, r2
    481a:	1c0a      	adds	r2, r1, #0
    481c:	40c2      	lsrs	r2, r0
    481e:	1aeb      	subs	r3, r5, r3
    4820:	429d      	cmp	r5, r3
    4822:	41b6      	sbcs	r6, r6
    4824:	1c1d      	adds	r5, r3, #0
    4826:	1aba      	subs	r2, r7, r2
    4828:	4276      	negs	r6, r6
    482a:	1b97      	subs	r7, r2, r6
    482c:	023b      	lsls	r3, r7, #8
    482e:	d400      	bmi.n	4832 <__aeabi_dadd+0x10e>
    4830:	e097      	b.n	4962 <__aeabi_dadd+0x23e>
    4832:	027a      	lsls	r2, r7, #9
    4834:	0a56      	lsrs	r6, r2, #9
    4836:	2e00      	cmp	r6, #0
    4838:	d100      	bne.n	483c <__aeabi_dadd+0x118>
    483a:	e0b6      	b.n	49aa <__aeabi_dadd+0x286>
    483c:	1c30      	adds	r0, r6, #0
    483e:	f001 fe0b 	bl	6458 <__clzsi2>
    4842:	1c03      	adds	r3, r0, #0
    4844:	3b08      	subs	r3, #8
    4846:	2b1f      	cmp	r3, #31
    4848:	dd00      	ble.n	484c <__aeabi_dadd+0x128>
    484a:	e0b7      	b.n	49bc <__aeabi_dadd+0x298>
    484c:	409e      	lsls	r6, r3
    484e:	1c37      	adds	r7, r6, #0
    4850:	2628      	movs	r6, #40	; 0x28
    4852:	1c2a      	adds	r2, r5, #0
    4854:	1a36      	subs	r6, r6, r0
    4856:	40f2      	lsrs	r2, r6
    4858:	1c16      	adds	r6, r2, #0
    485a:	409d      	lsls	r5, r3
    485c:	433e      	orrs	r6, r7
    485e:	429c      	cmp	r4, r3
    4860:	dd00      	ble.n	4864 <__aeabi_dadd+0x140>
    4862:	e0b2      	b.n	49ca <__aeabi_dadd+0x2a6>
    4864:	1b1c      	subs	r4, r3, r4
    4866:	1c62      	adds	r2, r4, #1
    4868:	2a1f      	cmp	r2, #31
    486a:	dd00      	ble.n	486e <__aeabi_dadd+0x14a>
    486c:	e0d8      	b.n	4a20 <__aeabi_dadd+0x2fc>
    486e:	231f      	movs	r3, #31
    4870:	1c29      	adds	r1, r5, #0
    4872:	1b1c      	subs	r4, r3, r4
    4874:	1c33      	adds	r3, r6, #0
    4876:	40a5      	lsls	r5, r4
    4878:	40a3      	lsls	r3, r4
    487a:	40d1      	lsrs	r1, r2
    487c:	1e6c      	subs	r4, r5, #1
    487e:	41a5      	sbcs	r5, r4
    4880:	40d6      	lsrs	r6, r2
    4882:	4319      	orrs	r1, r3
    4884:	430d      	orrs	r5, r1
    4886:	1c37      	adds	r7, r6, #0
    4888:	2400      	movs	r4, #0
    488a:	e773      	b.n	4774 <__aeabi_dadd+0x50>
    488c:	2380      	movs	r3, #128	; 0x80
    488e:	041b      	lsls	r3, r3, #16
    4890:	403b      	ands	r3, r7
    4892:	4646      	mov	r6, r8
    4894:	d000      	beq.n	4898 <__aeabi_dadd+0x174>
    4896:	e782      	b.n	479e <__aeabi_dadd+0x7a>
    4898:	4b8d      	ldr	r3, [pc, #564]	; (4ad0 <__aeabi_dadd+0x3ac>)
    489a:	08ed      	lsrs	r5, r5, #3
    489c:	0778      	lsls	r0, r7, #29
    489e:	4305      	orrs	r5, r0
    48a0:	08fa      	lsrs	r2, r7, #3
    48a2:	429c      	cmp	r4, r3
    48a4:	d032      	beq.n	490c <__aeabi_dadd+0x1e8>
    48a6:	0312      	lsls	r2, r2, #12
    48a8:	0564      	lsls	r4, r4, #21
    48aa:	0b12      	lsrs	r2, r2, #12
    48ac:	0d64      	lsrs	r4, r4, #21
    48ae:	e785      	b.n	47bc <__aeabi_dadd+0x98>
    48b0:	1aa3      	subs	r3, r4, r2
    48b2:	2b00      	cmp	r3, #0
    48b4:	dc00      	bgt.n	48b8 <__aeabi_dadd+0x194>
    48b6:	e094      	b.n	49e2 <__aeabi_dadd+0x2be>
    48b8:	2a00      	cmp	r2, #0
    48ba:	d03c      	beq.n	4936 <__aeabi_dadd+0x212>
    48bc:	4a84      	ldr	r2, [pc, #528]	; (4ad0 <__aeabi_dadd+0x3ac>)
    48be:	4294      	cmp	r4, r2
    48c0:	d100      	bne.n	48c4 <__aeabi_dadd+0x1a0>
    48c2:	e757      	b.n	4774 <__aeabi_dadd+0x50>
    48c4:	2280      	movs	r2, #128	; 0x80
    48c6:	0412      	lsls	r2, r2, #16
    48c8:	4311      	orrs	r1, r2
    48ca:	2b38      	cmp	r3, #56	; 0x38
    48cc:	dc00      	bgt.n	48d0 <__aeabi_dadd+0x1ac>
    48ce:	e105      	b.n	4adc <__aeabi_dadd+0x3b8>
    48d0:	4663      	mov	r3, ip
    48d2:	4319      	orrs	r1, r3
    48d4:	1e48      	subs	r0, r1, #1
    48d6:	4181      	sbcs	r1, r0
    48d8:	2200      	movs	r2, #0
    48da:	b2c8      	uxtb	r0, r1
    48dc:	1940      	adds	r0, r0, r5
    48de:	42a8      	cmp	r0, r5
    48e0:	419b      	sbcs	r3, r3
    48e2:	1c05      	adds	r5, r0, #0
    48e4:	19d2      	adds	r2, r2, r7
    48e6:	425b      	negs	r3, r3
    48e8:	18d7      	adds	r7, r2, r3
    48ea:	023b      	lsls	r3, r7, #8
    48ec:	d539      	bpl.n	4962 <__aeabi_dadd+0x23e>
    48ee:	4b78      	ldr	r3, [pc, #480]	; (4ad0 <__aeabi_dadd+0x3ac>)
    48f0:	3401      	adds	r4, #1
    48f2:	429c      	cmp	r4, r3
    48f4:	d100      	bne.n	48f8 <__aeabi_dadd+0x1d4>
    48f6:	e14c      	b.n	4b92 <__aeabi_dadd+0x46e>
    48f8:	2001      	movs	r0, #1
    48fa:	4a76      	ldr	r2, [pc, #472]	; (4ad4 <__aeabi_dadd+0x3b0>)
    48fc:	086b      	lsrs	r3, r5, #1
    48fe:	403a      	ands	r2, r7
    4900:	4028      	ands	r0, r5
    4902:	4318      	orrs	r0, r3
    4904:	07d5      	lsls	r5, r2, #31
    4906:	4305      	orrs	r5, r0
    4908:	0857      	lsrs	r7, r2, #1
    490a:	e733      	b.n	4774 <__aeabi_dadd+0x50>
    490c:	1c2b      	adds	r3, r5, #0
    490e:	4313      	orrs	r3, r2
    4910:	d048      	beq.n	49a4 <__aeabi_dadd+0x280>
    4912:	2380      	movs	r3, #128	; 0x80
    4914:	031b      	lsls	r3, r3, #12
    4916:	431a      	orrs	r2, r3
    4918:	0312      	lsls	r2, r2, #12
    491a:	0b12      	lsrs	r2, r2, #12
    491c:	e74e      	b.n	47bc <__aeabi_dadd+0x98>
    491e:	3801      	subs	r0, #1
    4920:	2800      	cmp	r0, #0
    4922:	d178      	bne.n	4a16 <__aeabi_dadd+0x2f2>
    4924:	4663      	mov	r3, ip
    4926:	1aee      	subs	r6, r5, r3
    4928:	42b5      	cmp	r5, r6
    492a:	419b      	sbcs	r3, r3
    492c:	1a7a      	subs	r2, r7, r1
    492e:	425b      	negs	r3, r3
    4930:	1ad7      	subs	r7, r2, r3
    4932:	1c35      	adds	r5, r6, #0
    4934:	e77a      	b.n	482c <__aeabi_dadd+0x108>
    4936:	1c02      	adds	r2, r0, #0
    4938:	430a      	orrs	r2, r1
    493a:	d100      	bne.n	493e <__aeabi_dadd+0x21a>
    493c:	e71a      	b.n	4774 <__aeabi_dadd+0x50>
    493e:	3b01      	subs	r3, #1
    4940:	2b00      	cmp	r3, #0
    4942:	d000      	beq.n	4946 <__aeabi_dadd+0x222>
    4944:	e0f2      	b.n	4b2c <__aeabi_dadd+0x408>
    4946:	1940      	adds	r0, r0, r5
    4948:	42a8      	cmp	r0, r5
    494a:	419b      	sbcs	r3, r3
    494c:	19ca      	adds	r2, r1, r7
    494e:	425b      	negs	r3, r3
    4950:	18d7      	adds	r7, r2, r3
    4952:	1c05      	adds	r5, r0, #0
    4954:	e7c9      	b.n	48ea <__aeabi_dadd+0x1c6>
    4956:	1c13      	adds	r3, r2, #0
    4958:	4333      	orrs	r3, r6
    495a:	d100      	bne.n	495e <__aeabi_dadd+0x23a>
    495c:	e118      	b.n	4b90 <__aeabi_dadd+0x46c>
    495e:	1c17      	adds	r7, r2, #0
    4960:	1c35      	adds	r5, r6, #0
    4962:	4646      	mov	r6, r8
    4964:	076b      	lsls	r3, r5, #29
    4966:	d000      	beq.n	496a <__aeabi_dadd+0x246>
    4968:	e707      	b.n	477a <__aeabi_dadd+0x56>
    496a:	e795      	b.n	4898 <__aeabi_dadd+0x174>
    496c:	2800      	cmp	r0, #0
    496e:	d17a      	bne.n	4a66 <__aeabi_dadd+0x342>
    4970:	1c62      	adds	r2, r4, #1
    4972:	0552      	lsls	r2, r2, #21
    4974:	0d52      	lsrs	r2, r2, #21
    4976:	2a01      	cmp	r2, #1
    4978:	dc00      	bgt.n	497c <__aeabi_dadd+0x258>
    497a:	e0fb      	b.n	4b74 <__aeabi_dadd+0x450>
    497c:	4662      	mov	r2, ip
    497e:	1aaa      	subs	r2, r5, r2
    4980:	4295      	cmp	r5, r2
    4982:	41b6      	sbcs	r6, r6
    4984:	4691      	mov	r9, r2
    4986:	1a78      	subs	r0, r7, r1
    4988:	4272      	negs	r2, r6
    498a:	1a86      	subs	r6, r0, r2
    498c:	0232      	lsls	r2, r6, #8
    498e:	d400      	bmi.n	4992 <__aeabi_dadd+0x26e>
    4990:	e093      	b.n	4aba <__aeabi_dadd+0x396>
    4992:	4662      	mov	r2, ip
    4994:	1b55      	subs	r5, r2, r5
    4996:	45ac      	cmp	ip, r5
    4998:	4180      	sbcs	r0, r0
    499a:	1bcf      	subs	r7, r1, r7
    499c:	4240      	negs	r0, r0
    499e:	1a3e      	subs	r6, r7, r0
    49a0:	4698      	mov	r8, r3
    49a2:	e748      	b.n	4836 <__aeabi_dadd+0x112>
    49a4:	2200      	movs	r2, #0
    49a6:	2500      	movs	r5, #0
    49a8:	e708      	b.n	47bc <__aeabi_dadd+0x98>
    49aa:	1c28      	adds	r0, r5, #0
    49ac:	f001 fd54 	bl	6458 <__clzsi2>
    49b0:	3020      	adds	r0, #32
    49b2:	1c03      	adds	r3, r0, #0
    49b4:	3b08      	subs	r3, #8
    49b6:	2b1f      	cmp	r3, #31
    49b8:	dc00      	bgt.n	49bc <__aeabi_dadd+0x298>
    49ba:	e747      	b.n	484c <__aeabi_dadd+0x128>
    49bc:	3828      	subs	r0, #40	; 0x28
    49be:	4085      	lsls	r5, r0
    49c0:	1c2e      	adds	r6, r5, #0
    49c2:	2500      	movs	r5, #0
    49c4:	429c      	cmp	r4, r3
    49c6:	dc00      	bgt.n	49ca <__aeabi_dadd+0x2a6>
    49c8:	e74c      	b.n	4864 <__aeabi_dadd+0x140>
    49ca:	4a42      	ldr	r2, [pc, #264]	; (4ad4 <__aeabi_dadd+0x3b0>)
    49cc:	1ae4      	subs	r4, r4, r3
    49ce:	4016      	ands	r6, r2
    49d0:	1c37      	adds	r7, r6, #0
    49d2:	e6cf      	b.n	4774 <__aeabi_dadd+0x50>
    49d4:	4663      	mov	r3, ip
    49d6:	4319      	orrs	r1, r3
    49d8:	1e4b      	subs	r3, r1, #1
    49da:	4199      	sbcs	r1, r3
    49dc:	2200      	movs	r2, #0
    49de:	b2cb      	uxtb	r3, r1
    49e0:	e71d      	b.n	481e <__aeabi_dadd+0xfa>
    49e2:	2b00      	cmp	r3, #0
    49e4:	d000      	beq.n	49e8 <__aeabi_dadd+0x2c4>
    49e6:	e0f2      	b.n	4bce <__aeabi_dadd+0x4aa>
    49e8:	1c60      	adds	r0, r4, #1
    49ea:	0543      	lsls	r3, r0, #21
    49ec:	0d5b      	lsrs	r3, r3, #21
    49ee:	2b01      	cmp	r3, #1
    49f0:	dc00      	bgt.n	49f4 <__aeabi_dadd+0x2d0>
    49f2:	e0a4      	b.n	4b3e <__aeabi_dadd+0x41a>
    49f4:	4b36      	ldr	r3, [pc, #216]	; (4ad0 <__aeabi_dadd+0x3ac>)
    49f6:	4298      	cmp	r0, r3
    49f8:	d100      	bne.n	49fc <__aeabi_dadd+0x2d8>
    49fa:	e121      	b.n	4c40 <__aeabi_dadd+0x51c>
    49fc:	4663      	mov	r3, ip
    49fe:	195c      	adds	r4, r3, r5
    4a00:	42ac      	cmp	r4, r5
    4a02:	419b      	sbcs	r3, r3
    4a04:	19cf      	adds	r7, r1, r7
    4a06:	425b      	negs	r3, r3
    4a08:	18fa      	adds	r2, r7, r3
    4a0a:	0864      	lsrs	r4, r4, #1
    4a0c:	07d5      	lsls	r5, r2, #31
    4a0e:	4325      	orrs	r5, r4
    4a10:	0857      	lsrs	r7, r2, #1
    4a12:	1c04      	adds	r4, r0, #0
    4a14:	e6ae      	b.n	4774 <__aeabi_dadd+0x50>
    4a16:	4b2e      	ldr	r3, [pc, #184]	; (4ad0 <__aeabi_dadd+0x3ac>)
    4a18:	429c      	cmp	r4, r3
    4a1a:	d000      	beq.n	4a1e <__aeabi_dadd+0x2fa>
    4a1c:	e6ea      	b.n	47f4 <__aeabi_dadd+0xd0>
    4a1e:	e6a9      	b.n	4774 <__aeabi_dadd+0x50>
    4a20:	1c21      	adds	r1, r4, #0
    4a22:	1c33      	adds	r3, r6, #0
    4a24:	391f      	subs	r1, #31
    4a26:	40cb      	lsrs	r3, r1
    4a28:	1c19      	adds	r1, r3, #0
    4a2a:	2a20      	cmp	r2, #32
    4a2c:	d100      	bne.n	4a30 <__aeabi_dadd+0x30c>
    4a2e:	e082      	b.n	4b36 <__aeabi_dadd+0x412>
    4a30:	233f      	movs	r3, #63	; 0x3f
    4a32:	1b1c      	subs	r4, r3, r4
    4a34:	40a6      	lsls	r6, r4
    4a36:	4335      	orrs	r5, r6
    4a38:	1e6e      	subs	r6, r5, #1
    4a3a:	41b5      	sbcs	r5, r6
    4a3c:	2700      	movs	r7, #0
    4a3e:	430d      	orrs	r5, r1
    4a40:	2400      	movs	r4, #0
    4a42:	e78e      	b.n	4962 <__aeabi_dadd+0x23e>
    4a44:	1c03      	adds	r3, r0, #0
    4a46:	1c0e      	adds	r6, r1, #0
    4a48:	3b20      	subs	r3, #32
    4a4a:	40de      	lsrs	r6, r3
    4a4c:	2820      	cmp	r0, #32
    4a4e:	d074      	beq.n	4b3a <__aeabi_dadd+0x416>
    4a50:	2340      	movs	r3, #64	; 0x40
    4a52:	1a1b      	subs	r3, r3, r0
    4a54:	4099      	lsls	r1, r3
    4a56:	1c0b      	adds	r3, r1, #0
    4a58:	4662      	mov	r2, ip
    4a5a:	4313      	orrs	r3, r2
    4a5c:	1e59      	subs	r1, r3, #1
    4a5e:	418b      	sbcs	r3, r1
    4a60:	2200      	movs	r2, #0
    4a62:	4333      	orrs	r3, r6
    4a64:	e6db      	b.n	481e <__aeabi_dadd+0xfa>
    4a66:	2c00      	cmp	r4, #0
    4a68:	d050      	beq.n	4b0c <__aeabi_dadd+0x3e8>
    4a6a:	4c19      	ldr	r4, [pc, #100]	; (4ad0 <__aeabi_dadd+0x3ac>)
    4a6c:	42a2      	cmp	r2, r4
    4a6e:	d100      	bne.n	4a72 <__aeabi_dadd+0x34e>
    4a70:	e0a8      	b.n	4bc4 <__aeabi_dadd+0x4a0>
    4a72:	2480      	movs	r4, #128	; 0x80
    4a74:	0424      	lsls	r4, r4, #16
    4a76:	4240      	negs	r0, r0
    4a78:	4327      	orrs	r7, r4
    4a7a:	2838      	cmp	r0, #56	; 0x38
    4a7c:	dd00      	ble.n	4a80 <__aeabi_dadd+0x35c>
    4a7e:	e0d9      	b.n	4c34 <__aeabi_dadd+0x510>
    4a80:	281f      	cmp	r0, #31
    4a82:	dd00      	ble.n	4a86 <__aeabi_dadd+0x362>
    4a84:	e139      	b.n	4cfa <__aeabi_dadd+0x5d6>
    4a86:	2420      	movs	r4, #32
    4a88:	1c3e      	adds	r6, r7, #0
    4a8a:	1a24      	subs	r4, r4, r0
    4a8c:	40a6      	lsls	r6, r4
    4a8e:	46b0      	mov	r8, r6
    4a90:	1c2e      	adds	r6, r5, #0
    4a92:	46a1      	mov	r9, r4
    4a94:	40c6      	lsrs	r6, r0
    4a96:	4644      	mov	r4, r8
    4a98:	4326      	orrs	r6, r4
    4a9a:	464c      	mov	r4, r9
    4a9c:	40a5      	lsls	r5, r4
    4a9e:	1e6c      	subs	r4, r5, #1
    4aa0:	41a5      	sbcs	r5, r4
    4aa2:	40c7      	lsrs	r7, r0
    4aa4:	4335      	orrs	r5, r6
    4aa6:	4660      	mov	r0, ip
    4aa8:	1b45      	subs	r5, r0, r5
    4aaa:	1bcf      	subs	r7, r1, r7
    4aac:	45ac      	cmp	ip, r5
    4aae:	4189      	sbcs	r1, r1
    4ab0:	4249      	negs	r1, r1
    4ab2:	1a7f      	subs	r7, r7, r1
    4ab4:	1c14      	adds	r4, r2, #0
    4ab6:	4698      	mov	r8, r3
    4ab8:	e6b8      	b.n	482c <__aeabi_dadd+0x108>
    4aba:	464b      	mov	r3, r9
    4abc:	464d      	mov	r5, r9
    4abe:	4333      	orrs	r3, r6
    4ac0:	d000      	beq.n	4ac4 <__aeabi_dadd+0x3a0>
    4ac2:	e6b8      	b.n	4836 <__aeabi_dadd+0x112>
    4ac4:	2600      	movs	r6, #0
    4ac6:	2700      	movs	r7, #0
    4ac8:	2400      	movs	r4, #0
    4aca:	2500      	movs	r5, #0
    4acc:	e6e4      	b.n	4898 <__aeabi_dadd+0x174>
    4ace:	46c0      	nop			; (mov r8, r8)
    4ad0:	000007ff 	.word	0x000007ff
    4ad4:	ff7fffff 	.word	0xff7fffff
    4ad8:	800fffff 	.word	0x800fffff
    4adc:	2b1f      	cmp	r3, #31
    4ade:	dc5b      	bgt.n	4b98 <__aeabi_dadd+0x474>
    4ae0:	2220      	movs	r2, #32
    4ae2:	1c08      	adds	r0, r1, #0
    4ae4:	1ad2      	subs	r2, r2, r3
    4ae6:	4090      	lsls	r0, r2
    4ae8:	4681      	mov	r9, r0
    4aea:	4660      	mov	r0, ip
    4aec:	4692      	mov	sl, r2
    4aee:	40d8      	lsrs	r0, r3
    4af0:	464a      	mov	r2, r9
    4af2:	4310      	orrs	r0, r2
    4af4:	4681      	mov	r9, r0
    4af6:	4652      	mov	r2, sl
    4af8:	4660      	mov	r0, ip
    4afa:	4090      	lsls	r0, r2
    4afc:	1c02      	adds	r2, r0, #0
    4afe:	1e50      	subs	r0, r2, #1
    4b00:	4182      	sbcs	r2, r0
    4b02:	4648      	mov	r0, r9
    4b04:	4310      	orrs	r0, r2
    4b06:	1c0a      	adds	r2, r1, #0
    4b08:	40da      	lsrs	r2, r3
    4b0a:	e6e7      	b.n	48dc <__aeabi_dadd+0x1b8>
    4b0c:	1c3c      	adds	r4, r7, #0
    4b0e:	432c      	orrs	r4, r5
    4b10:	d058      	beq.n	4bc4 <__aeabi_dadd+0x4a0>
    4b12:	43c0      	mvns	r0, r0
    4b14:	2800      	cmp	r0, #0
    4b16:	d151      	bne.n	4bbc <__aeabi_dadd+0x498>
    4b18:	4660      	mov	r0, ip
    4b1a:	1b45      	subs	r5, r0, r5
    4b1c:	45ac      	cmp	ip, r5
    4b1e:	4180      	sbcs	r0, r0
    4b20:	1bcf      	subs	r7, r1, r7
    4b22:	4240      	negs	r0, r0
    4b24:	1a3f      	subs	r7, r7, r0
    4b26:	1c14      	adds	r4, r2, #0
    4b28:	4698      	mov	r8, r3
    4b2a:	e67f      	b.n	482c <__aeabi_dadd+0x108>
    4b2c:	4a8f      	ldr	r2, [pc, #572]	; (4d6c <__aeabi_dadd+0x648>)
    4b2e:	4294      	cmp	r4, r2
    4b30:	d000      	beq.n	4b34 <__aeabi_dadd+0x410>
    4b32:	e6ca      	b.n	48ca <__aeabi_dadd+0x1a6>
    4b34:	e61e      	b.n	4774 <__aeabi_dadd+0x50>
    4b36:	2600      	movs	r6, #0
    4b38:	e77d      	b.n	4a36 <__aeabi_dadd+0x312>
    4b3a:	2300      	movs	r3, #0
    4b3c:	e78c      	b.n	4a58 <__aeabi_dadd+0x334>
    4b3e:	1c3b      	adds	r3, r7, #0
    4b40:	432b      	orrs	r3, r5
    4b42:	2c00      	cmp	r4, #0
    4b44:	d000      	beq.n	4b48 <__aeabi_dadd+0x424>
    4b46:	e0bd      	b.n	4cc4 <__aeabi_dadd+0x5a0>
    4b48:	2b00      	cmp	r3, #0
    4b4a:	d100      	bne.n	4b4e <__aeabi_dadd+0x42a>
    4b4c:	e0f5      	b.n	4d3a <__aeabi_dadd+0x616>
    4b4e:	4663      	mov	r3, ip
    4b50:	430b      	orrs	r3, r1
    4b52:	d100      	bne.n	4b56 <__aeabi_dadd+0x432>
    4b54:	e60e      	b.n	4774 <__aeabi_dadd+0x50>
    4b56:	4663      	mov	r3, ip
    4b58:	195b      	adds	r3, r3, r5
    4b5a:	42ab      	cmp	r3, r5
    4b5c:	4180      	sbcs	r0, r0
    4b5e:	19ca      	adds	r2, r1, r7
    4b60:	4240      	negs	r0, r0
    4b62:	1817      	adds	r7, r2, r0
    4b64:	023a      	lsls	r2, r7, #8
    4b66:	d400      	bmi.n	4b6a <__aeabi_dadd+0x446>
    4b68:	e0fc      	b.n	4d64 <__aeabi_dadd+0x640>
    4b6a:	4a81      	ldr	r2, [pc, #516]	; (4d70 <__aeabi_dadd+0x64c>)
    4b6c:	1c1d      	adds	r5, r3, #0
    4b6e:	4017      	ands	r7, r2
    4b70:	3401      	adds	r4, #1
    4b72:	e5ff      	b.n	4774 <__aeabi_dadd+0x50>
    4b74:	1c3a      	adds	r2, r7, #0
    4b76:	432a      	orrs	r2, r5
    4b78:	2c00      	cmp	r4, #0
    4b7a:	d151      	bne.n	4c20 <__aeabi_dadd+0x4fc>
    4b7c:	2a00      	cmp	r2, #0
    4b7e:	d000      	beq.n	4b82 <__aeabi_dadd+0x45e>
    4b80:	e085      	b.n	4c8e <__aeabi_dadd+0x56a>
    4b82:	4662      	mov	r2, ip
    4b84:	430a      	orrs	r2, r1
    4b86:	d003      	beq.n	4b90 <__aeabi_dadd+0x46c>
    4b88:	1c0f      	adds	r7, r1, #0
    4b8a:	4665      	mov	r5, ip
    4b8c:	4698      	mov	r8, r3
    4b8e:	e5f1      	b.n	4774 <__aeabi_dadd+0x50>
    4b90:	2600      	movs	r6, #0
    4b92:	2700      	movs	r7, #0
    4b94:	2500      	movs	r5, #0
    4b96:	e67f      	b.n	4898 <__aeabi_dadd+0x174>
    4b98:	1c18      	adds	r0, r3, #0
    4b9a:	1c0a      	adds	r2, r1, #0
    4b9c:	3820      	subs	r0, #32
    4b9e:	40c2      	lsrs	r2, r0
    4ba0:	2b20      	cmp	r3, #32
    4ba2:	d100      	bne.n	4ba6 <__aeabi_dadd+0x482>
    4ba4:	e0a7      	b.n	4cf6 <__aeabi_dadd+0x5d2>
    4ba6:	2040      	movs	r0, #64	; 0x40
    4ba8:	1ac0      	subs	r0, r0, r3
    4baa:	4081      	lsls	r1, r0
    4bac:	1c08      	adds	r0, r1, #0
    4bae:	4663      	mov	r3, ip
    4bb0:	4318      	orrs	r0, r3
    4bb2:	1e41      	subs	r1, r0, #1
    4bb4:	4188      	sbcs	r0, r1
    4bb6:	4310      	orrs	r0, r2
    4bb8:	2200      	movs	r2, #0
    4bba:	e68f      	b.n	48dc <__aeabi_dadd+0x1b8>
    4bbc:	4c6b      	ldr	r4, [pc, #428]	; (4d6c <__aeabi_dadd+0x648>)
    4bbe:	42a2      	cmp	r2, r4
    4bc0:	d000      	beq.n	4bc4 <__aeabi_dadd+0x4a0>
    4bc2:	e75a      	b.n	4a7a <__aeabi_dadd+0x356>
    4bc4:	1c0f      	adds	r7, r1, #0
    4bc6:	4665      	mov	r5, ip
    4bc8:	1c14      	adds	r4, r2, #0
    4bca:	4698      	mov	r8, r3
    4bcc:	e5d2      	b.n	4774 <__aeabi_dadd+0x50>
    4bce:	2c00      	cmp	r4, #0
    4bd0:	d13a      	bne.n	4c48 <__aeabi_dadd+0x524>
    4bd2:	1c38      	adds	r0, r7, #0
    4bd4:	4328      	orrs	r0, r5
    4bd6:	d071      	beq.n	4cbc <__aeabi_dadd+0x598>
    4bd8:	43db      	mvns	r3, r3
    4bda:	2b00      	cmp	r3, #0
    4bdc:	d018      	beq.n	4c10 <__aeabi_dadd+0x4ec>
    4bde:	4863      	ldr	r0, [pc, #396]	; (4d6c <__aeabi_dadd+0x648>)
    4be0:	4282      	cmp	r2, r0
    4be2:	d06b      	beq.n	4cbc <__aeabi_dadd+0x598>
    4be4:	2b38      	cmp	r3, #56	; 0x38
    4be6:	dd00      	ble.n	4bea <__aeabi_dadd+0x4c6>
    4be8:	e09d      	b.n	4d26 <__aeabi_dadd+0x602>
    4bea:	2b1f      	cmp	r3, #31
    4bec:	dd00      	ble.n	4bf0 <__aeabi_dadd+0x4cc>
    4bee:	e0a7      	b.n	4d40 <__aeabi_dadd+0x61c>
    4bf0:	2020      	movs	r0, #32
    4bf2:	1c3c      	adds	r4, r7, #0
    4bf4:	1ac0      	subs	r0, r0, r3
    4bf6:	4084      	lsls	r4, r0
    4bf8:	46a1      	mov	r9, r4
    4bfa:	1c2c      	adds	r4, r5, #0
    4bfc:	4682      	mov	sl, r0
    4bfe:	40dc      	lsrs	r4, r3
    4c00:	4648      	mov	r0, r9
    4c02:	4304      	orrs	r4, r0
    4c04:	4650      	mov	r0, sl
    4c06:	4085      	lsls	r5, r0
    4c08:	1e68      	subs	r0, r5, #1
    4c0a:	4185      	sbcs	r5, r0
    4c0c:	40df      	lsrs	r7, r3
    4c0e:	4325      	orrs	r5, r4
    4c10:	4465      	add	r5, ip
    4c12:	4565      	cmp	r5, ip
    4c14:	419b      	sbcs	r3, r3
    4c16:	187f      	adds	r7, r7, r1
    4c18:	425b      	negs	r3, r3
    4c1a:	18ff      	adds	r7, r7, r3
    4c1c:	1c14      	adds	r4, r2, #0
    4c1e:	e664      	b.n	48ea <__aeabi_dadd+0x1c6>
    4c20:	2a00      	cmp	r2, #0
    4c22:	d119      	bne.n	4c58 <__aeabi_dadd+0x534>
    4c24:	4662      	mov	r2, ip
    4c26:	430a      	orrs	r2, r1
    4c28:	d077      	beq.n	4d1a <__aeabi_dadd+0x5f6>
    4c2a:	1c0f      	adds	r7, r1, #0
    4c2c:	4665      	mov	r5, ip
    4c2e:	4698      	mov	r8, r3
    4c30:	4c4e      	ldr	r4, [pc, #312]	; (4d6c <__aeabi_dadd+0x648>)
    4c32:	e59f      	b.n	4774 <__aeabi_dadd+0x50>
    4c34:	433d      	orrs	r5, r7
    4c36:	1e6f      	subs	r7, r5, #1
    4c38:	41bd      	sbcs	r5, r7
    4c3a:	2700      	movs	r7, #0
    4c3c:	b2ed      	uxtb	r5, r5
    4c3e:	e732      	b.n	4aa6 <__aeabi_dadd+0x382>
    4c40:	1c04      	adds	r4, r0, #0
    4c42:	2700      	movs	r7, #0
    4c44:	2500      	movs	r5, #0
    4c46:	e627      	b.n	4898 <__aeabi_dadd+0x174>
    4c48:	4848      	ldr	r0, [pc, #288]	; (4d6c <__aeabi_dadd+0x648>)
    4c4a:	4282      	cmp	r2, r0
    4c4c:	d036      	beq.n	4cbc <__aeabi_dadd+0x598>
    4c4e:	2080      	movs	r0, #128	; 0x80
    4c50:	0400      	lsls	r0, r0, #16
    4c52:	425b      	negs	r3, r3
    4c54:	4307      	orrs	r7, r0
    4c56:	e7c5      	b.n	4be4 <__aeabi_dadd+0x4c0>
    4c58:	4662      	mov	r2, ip
    4c5a:	430a      	orrs	r2, r1
    4c5c:	d049      	beq.n	4cf2 <__aeabi_dadd+0x5ce>
    4c5e:	2480      	movs	r4, #128	; 0x80
    4c60:	08ed      	lsrs	r5, r5, #3
    4c62:	0778      	lsls	r0, r7, #29
    4c64:	08fa      	lsrs	r2, r7, #3
    4c66:	0324      	lsls	r4, r4, #12
    4c68:	4328      	orrs	r0, r5
    4c6a:	4222      	tst	r2, r4
    4c6c:	d009      	beq.n	4c82 <__aeabi_dadd+0x55e>
    4c6e:	08ce      	lsrs	r6, r1, #3
    4c70:	4226      	tst	r6, r4
    4c72:	d106      	bne.n	4c82 <__aeabi_dadd+0x55e>
    4c74:	4662      	mov	r2, ip
    4c76:	074f      	lsls	r7, r1, #29
    4c78:	1c38      	adds	r0, r7, #0
    4c7a:	08d2      	lsrs	r2, r2, #3
    4c7c:	4310      	orrs	r0, r2
    4c7e:	4698      	mov	r8, r3
    4c80:	1c32      	adds	r2, r6, #0
    4c82:	00d2      	lsls	r2, r2, #3
    4c84:	0f47      	lsrs	r7, r0, #29
    4c86:	4317      	orrs	r7, r2
    4c88:	00c5      	lsls	r5, r0, #3
    4c8a:	4c38      	ldr	r4, [pc, #224]	; (4d6c <__aeabi_dadd+0x648>)
    4c8c:	e572      	b.n	4774 <__aeabi_dadd+0x50>
    4c8e:	4662      	mov	r2, ip
    4c90:	430a      	orrs	r2, r1
    4c92:	d100      	bne.n	4c96 <__aeabi_dadd+0x572>
    4c94:	e56e      	b.n	4774 <__aeabi_dadd+0x50>
    4c96:	4662      	mov	r2, ip
    4c98:	1aae      	subs	r6, r5, r2
    4c9a:	42b5      	cmp	r5, r6
    4c9c:	4192      	sbcs	r2, r2
    4c9e:	1a78      	subs	r0, r7, r1
    4ca0:	4252      	negs	r2, r2
    4ca2:	1a82      	subs	r2, r0, r2
    4ca4:	0210      	lsls	r0, r2, #8
    4ca6:	d400      	bmi.n	4caa <__aeabi_dadd+0x586>
    4ca8:	e655      	b.n	4956 <__aeabi_dadd+0x232>
    4caa:	4662      	mov	r2, ip
    4cac:	1b55      	subs	r5, r2, r5
    4cae:	45ac      	cmp	ip, r5
    4cb0:	4180      	sbcs	r0, r0
    4cb2:	1bca      	subs	r2, r1, r7
    4cb4:	4240      	negs	r0, r0
    4cb6:	1a17      	subs	r7, r2, r0
    4cb8:	4698      	mov	r8, r3
    4cba:	e55b      	b.n	4774 <__aeabi_dadd+0x50>
    4cbc:	1c0f      	adds	r7, r1, #0
    4cbe:	4665      	mov	r5, ip
    4cc0:	1c14      	adds	r4, r2, #0
    4cc2:	e557      	b.n	4774 <__aeabi_dadd+0x50>
    4cc4:	2b00      	cmp	r3, #0
    4cc6:	d034      	beq.n	4d32 <__aeabi_dadd+0x60e>
    4cc8:	4663      	mov	r3, ip
    4cca:	430b      	orrs	r3, r1
    4ccc:	d011      	beq.n	4cf2 <__aeabi_dadd+0x5ce>
    4cce:	2480      	movs	r4, #128	; 0x80
    4cd0:	08ed      	lsrs	r5, r5, #3
    4cd2:	0778      	lsls	r0, r7, #29
    4cd4:	08fa      	lsrs	r2, r7, #3
    4cd6:	0324      	lsls	r4, r4, #12
    4cd8:	4328      	orrs	r0, r5
    4cda:	4222      	tst	r2, r4
    4cdc:	d0d1      	beq.n	4c82 <__aeabi_dadd+0x55e>
    4cde:	08cb      	lsrs	r3, r1, #3
    4ce0:	4223      	tst	r3, r4
    4ce2:	d1ce      	bne.n	4c82 <__aeabi_dadd+0x55e>
    4ce4:	4662      	mov	r2, ip
    4ce6:	074f      	lsls	r7, r1, #29
    4ce8:	1c38      	adds	r0, r7, #0
    4cea:	08d2      	lsrs	r2, r2, #3
    4cec:	4310      	orrs	r0, r2
    4cee:	1c1a      	adds	r2, r3, #0
    4cf0:	e7c7      	b.n	4c82 <__aeabi_dadd+0x55e>
    4cf2:	4c1e      	ldr	r4, [pc, #120]	; (4d6c <__aeabi_dadd+0x648>)
    4cf4:	e53e      	b.n	4774 <__aeabi_dadd+0x50>
    4cf6:	2000      	movs	r0, #0
    4cf8:	e759      	b.n	4bae <__aeabi_dadd+0x48a>
    4cfa:	1c04      	adds	r4, r0, #0
    4cfc:	1c3e      	adds	r6, r7, #0
    4cfe:	3c20      	subs	r4, #32
    4d00:	40e6      	lsrs	r6, r4
    4d02:	1c34      	adds	r4, r6, #0
    4d04:	2820      	cmp	r0, #32
    4d06:	d02b      	beq.n	4d60 <__aeabi_dadd+0x63c>
    4d08:	2640      	movs	r6, #64	; 0x40
    4d0a:	1a30      	subs	r0, r6, r0
    4d0c:	4087      	lsls	r7, r0
    4d0e:	433d      	orrs	r5, r7
    4d10:	1e6f      	subs	r7, r5, #1
    4d12:	41bd      	sbcs	r5, r7
    4d14:	2700      	movs	r7, #0
    4d16:	4325      	orrs	r5, r4
    4d18:	e6c5      	b.n	4aa6 <__aeabi_dadd+0x382>
    4d1a:	2780      	movs	r7, #128	; 0x80
    4d1c:	2600      	movs	r6, #0
    4d1e:	03ff      	lsls	r7, r7, #15
    4d20:	4c12      	ldr	r4, [pc, #72]	; (4d6c <__aeabi_dadd+0x648>)
    4d22:	2500      	movs	r5, #0
    4d24:	e5b8      	b.n	4898 <__aeabi_dadd+0x174>
    4d26:	433d      	orrs	r5, r7
    4d28:	1e6f      	subs	r7, r5, #1
    4d2a:	41bd      	sbcs	r5, r7
    4d2c:	2700      	movs	r7, #0
    4d2e:	b2ed      	uxtb	r5, r5
    4d30:	e76e      	b.n	4c10 <__aeabi_dadd+0x4ec>
    4d32:	1c0f      	adds	r7, r1, #0
    4d34:	4665      	mov	r5, ip
    4d36:	4c0d      	ldr	r4, [pc, #52]	; (4d6c <__aeabi_dadd+0x648>)
    4d38:	e51c      	b.n	4774 <__aeabi_dadd+0x50>
    4d3a:	1c0f      	adds	r7, r1, #0
    4d3c:	4665      	mov	r5, ip
    4d3e:	e519      	b.n	4774 <__aeabi_dadd+0x50>
    4d40:	1c1c      	adds	r4, r3, #0
    4d42:	1c38      	adds	r0, r7, #0
    4d44:	3c20      	subs	r4, #32
    4d46:	40e0      	lsrs	r0, r4
    4d48:	1c04      	adds	r4, r0, #0
    4d4a:	2b20      	cmp	r3, #32
    4d4c:	d00c      	beq.n	4d68 <__aeabi_dadd+0x644>
    4d4e:	2040      	movs	r0, #64	; 0x40
    4d50:	1ac3      	subs	r3, r0, r3
    4d52:	409f      	lsls	r7, r3
    4d54:	433d      	orrs	r5, r7
    4d56:	1e6f      	subs	r7, r5, #1
    4d58:	41bd      	sbcs	r5, r7
    4d5a:	2700      	movs	r7, #0
    4d5c:	4325      	orrs	r5, r4
    4d5e:	e757      	b.n	4c10 <__aeabi_dadd+0x4ec>
    4d60:	2700      	movs	r7, #0
    4d62:	e7d4      	b.n	4d0e <__aeabi_dadd+0x5ea>
    4d64:	1c1d      	adds	r5, r3, #0
    4d66:	e5fc      	b.n	4962 <__aeabi_dadd+0x23e>
    4d68:	2700      	movs	r7, #0
    4d6a:	e7f3      	b.n	4d54 <__aeabi_dadd+0x630>
    4d6c:	000007ff 	.word	0x000007ff
    4d70:	ff7fffff 	.word	0xff7fffff

00004d74 <__aeabi_ddiv>:
    4d74:	b5f0      	push	{r4, r5, r6, r7, lr}
    4d76:	465f      	mov	r7, fp
    4d78:	4656      	mov	r6, sl
    4d7a:	464d      	mov	r5, r9
    4d7c:	4644      	mov	r4, r8
    4d7e:	b4f0      	push	{r4, r5, r6, r7}
    4d80:	030f      	lsls	r7, r1, #12
    4d82:	b087      	sub	sp, #28
    4d84:	4698      	mov	r8, r3
    4d86:	004d      	lsls	r5, r1, #1
    4d88:	0b3b      	lsrs	r3, r7, #12
    4d8a:	0fcc      	lsrs	r4, r1, #31
    4d8c:	1c06      	adds	r6, r0, #0
    4d8e:	4692      	mov	sl, r2
    4d90:	4681      	mov	r9, r0
    4d92:	469b      	mov	fp, r3
    4d94:	0d6d      	lsrs	r5, r5, #21
    4d96:	9401      	str	r4, [sp, #4]
    4d98:	d06b      	beq.n	4e72 <__aeabi_ddiv+0xfe>
    4d9a:	4b66      	ldr	r3, [pc, #408]	; (4f34 <__aeabi_ddiv+0x1c0>)
    4d9c:	429d      	cmp	r5, r3
    4d9e:	d035      	beq.n	4e0c <__aeabi_ddiv+0x98>
    4da0:	2780      	movs	r7, #128	; 0x80
    4da2:	465b      	mov	r3, fp
    4da4:	037f      	lsls	r7, r7, #13
    4da6:	431f      	orrs	r7, r3
    4da8:	00f3      	lsls	r3, r6, #3
    4daa:	4699      	mov	r9, r3
    4dac:	4b62      	ldr	r3, [pc, #392]	; (4f38 <__aeabi_ddiv+0x1c4>)
    4dae:	00ff      	lsls	r7, r7, #3
    4db0:	0f40      	lsrs	r0, r0, #29
    4db2:	469c      	mov	ip, r3
    4db4:	4307      	orrs	r7, r0
    4db6:	2300      	movs	r3, #0
    4db8:	46bb      	mov	fp, r7
    4dba:	2600      	movs	r6, #0
    4dbc:	4465      	add	r5, ip
    4dbe:	9300      	str	r3, [sp, #0]
    4dc0:	4642      	mov	r2, r8
    4dc2:	0317      	lsls	r7, r2, #12
    4dc4:	0050      	lsls	r0, r2, #1
    4dc6:	0fd2      	lsrs	r2, r2, #31
    4dc8:	4653      	mov	r3, sl
    4dca:	0b3f      	lsrs	r7, r7, #12
    4dcc:	0d40      	lsrs	r0, r0, #21
    4dce:	4690      	mov	r8, r2
    4dd0:	d100      	bne.n	4dd4 <__aeabi_ddiv+0x60>
    4dd2:	e072      	b.n	4eba <__aeabi_ddiv+0x146>
    4dd4:	4a57      	ldr	r2, [pc, #348]	; (4f34 <__aeabi_ddiv+0x1c0>)
    4dd6:	4290      	cmp	r0, r2
    4dd8:	d067      	beq.n	4eaa <__aeabi_ddiv+0x136>
    4dda:	2380      	movs	r3, #128	; 0x80
    4ddc:	035b      	lsls	r3, r3, #13
    4dde:	431f      	orrs	r7, r3
    4de0:	4653      	mov	r3, sl
    4de2:	4a55      	ldr	r2, [pc, #340]	; (4f38 <__aeabi_ddiv+0x1c4>)
    4de4:	0f5b      	lsrs	r3, r3, #29
    4de6:	00ff      	lsls	r7, r7, #3
    4de8:	431f      	orrs	r7, r3
    4dea:	4694      	mov	ip, r2
    4dec:	4653      	mov	r3, sl
    4dee:	2100      	movs	r1, #0
    4df0:	00db      	lsls	r3, r3, #3
    4df2:	4460      	add	r0, ip
    4df4:	4642      	mov	r2, r8
    4df6:	4062      	eors	r2, r4
    4df8:	4692      	mov	sl, r2
    4dfa:	1a2d      	subs	r5, r5, r0
    4dfc:	430e      	orrs	r6, r1
    4dfe:	2e0f      	cmp	r6, #15
    4e00:	d900      	bls.n	4e04 <__aeabi_ddiv+0x90>
    4e02:	e0a1      	b.n	4f48 <__aeabi_ddiv+0x1d4>
    4e04:	484d      	ldr	r0, [pc, #308]	; (4f3c <__aeabi_ddiv+0x1c8>)
    4e06:	00b6      	lsls	r6, r6, #2
    4e08:	5980      	ldr	r0, [r0, r6]
    4e0a:	4687      	mov	pc, r0
    4e0c:	465b      	mov	r3, fp
    4e0e:	431e      	orrs	r6, r3
    4e10:	d000      	beq.n	4e14 <__aeabi_ddiv+0xa0>
    4e12:	e076      	b.n	4f02 <__aeabi_ddiv+0x18e>
    4e14:	2300      	movs	r3, #0
    4e16:	469b      	mov	fp, r3
    4e18:	4699      	mov	r9, r3
    4e1a:	3302      	adds	r3, #2
    4e1c:	2608      	movs	r6, #8
    4e1e:	9300      	str	r3, [sp, #0]
    4e20:	e7ce      	b.n	4dc0 <__aeabi_ddiv+0x4c>
    4e22:	4699      	mov	r9, r3
    4e24:	4643      	mov	r3, r8
    4e26:	46bb      	mov	fp, r7
    4e28:	9301      	str	r3, [sp, #4]
    4e2a:	9100      	str	r1, [sp, #0]
    4e2c:	9b00      	ldr	r3, [sp, #0]
    4e2e:	2b02      	cmp	r3, #2
    4e30:	d16b      	bne.n	4f0a <__aeabi_ddiv+0x196>
    4e32:	9b01      	ldr	r3, [sp, #4]
    4e34:	469a      	mov	sl, r3
    4e36:	2100      	movs	r1, #0
    4e38:	4653      	mov	r3, sl
    4e3a:	2201      	movs	r2, #1
    4e3c:	2700      	movs	r7, #0
    4e3e:	4689      	mov	r9, r1
    4e40:	401a      	ands	r2, r3
    4e42:	4b3c      	ldr	r3, [pc, #240]	; (4f34 <__aeabi_ddiv+0x1c0>)
    4e44:	2100      	movs	r1, #0
    4e46:	033f      	lsls	r7, r7, #12
    4e48:	0d0c      	lsrs	r4, r1, #20
    4e4a:	0524      	lsls	r4, r4, #20
    4e4c:	0b3f      	lsrs	r7, r7, #12
    4e4e:	4327      	orrs	r7, r4
    4e50:	4c3b      	ldr	r4, [pc, #236]	; (4f40 <__aeabi_ddiv+0x1cc>)
    4e52:	051b      	lsls	r3, r3, #20
    4e54:	4027      	ands	r7, r4
    4e56:	431f      	orrs	r7, r3
    4e58:	007f      	lsls	r7, r7, #1
    4e5a:	07d2      	lsls	r2, r2, #31
    4e5c:	087f      	lsrs	r7, r7, #1
    4e5e:	4317      	orrs	r7, r2
    4e60:	4648      	mov	r0, r9
    4e62:	1c39      	adds	r1, r7, #0
    4e64:	b007      	add	sp, #28
    4e66:	bc3c      	pop	{r2, r3, r4, r5}
    4e68:	4690      	mov	r8, r2
    4e6a:	4699      	mov	r9, r3
    4e6c:	46a2      	mov	sl, r4
    4e6e:	46ab      	mov	fp, r5
    4e70:	bdf0      	pop	{r4, r5, r6, r7, pc}
    4e72:	4303      	orrs	r3, r0
    4e74:	d03e      	beq.n	4ef4 <__aeabi_ddiv+0x180>
    4e76:	465b      	mov	r3, fp
    4e78:	2b00      	cmp	r3, #0
    4e7a:	d100      	bne.n	4e7e <__aeabi_ddiv+0x10a>
    4e7c:	e19c      	b.n	51b8 <__aeabi_ddiv+0x444>
    4e7e:	4658      	mov	r0, fp
    4e80:	f001 faea 	bl	6458 <__clzsi2>
    4e84:	2328      	movs	r3, #40	; 0x28
    4e86:	1c31      	adds	r1, r6, #0
    4e88:	1a1b      	subs	r3, r3, r0
    4e8a:	1c02      	adds	r2, r0, #0
    4e8c:	465f      	mov	r7, fp
    4e8e:	40d9      	lsrs	r1, r3
    4e90:	3a08      	subs	r2, #8
    4e92:	4097      	lsls	r7, r2
    4e94:	1c0b      	adds	r3, r1, #0
    4e96:	4096      	lsls	r6, r2
    4e98:	433b      	orrs	r3, r7
    4e9a:	469b      	mov	fp, r3
    4e9c:	46b1      	mov	r9, r6
    4e9e:	2300      	movs	r3, #0
    4ea0:	4d28      	ldr	r5, [pc, #160]	; (4f44 <__aeabi_ddiv+0x1d0>)
    4ea2:	2600      	movs	r6, #0
    4ea4:	1a2d      	subs	r5, r5, r0
    4ea6:	9300      	str	r3, [sp, #0]
    4ea8:	e78a      	b.n	4dc0 <__aeabi_ddiv+0x4c>
    4eaa:	4652      	mov	r2, sl
    4eac:	2103      	movs	r1, #3
    4eae:	433a      	orrs	r2, r7
    4eb0:	d1a0      	bne.n	4df4 <__aeabi_ddiv+0x80>
    4eb2:	2700      	movs	r7, #0
    4eb4:	2300      	movs	r3, #0
    4eb6:	2102      	movs	r1, #2
    4eb8:	e79c      	b.n	4df4 <__aeabi_ddiv+0x80>
    4eba:	4652      	mov	r2, sl
    4ebc:	433a      	orrs	r2, r7
    4ebe:	d015      	beq.n	4eec <__aeabi_ddiv+0x178>
    4ec0:	2f00      	cmp	r7, #0
    4ec2:	d100      	bne.n	4ec6 <__aeabi_ddiv+0x152>
    4ec4:	e185      	b.n	51d2 <__aeabi_ddiv+0x45e>
    4ec6:	1c38      	adds	r0, r7, #0
    4ec8:	f001 fac6 	bl	6458 <__clzsi2>
    4ecc:	1c02      	adds	r2, r0, #0
    4ece:	2128      	movs	r1, #40	; 0x28
    4ed0:	4650      	mov	r0, sl
    4ed2:	1a89      	subs	r1, r1, r2
    4ed4:	1c13      	adds	r3, r2, #0
    4ed6:	40c8      	lsrs	r0, r1
    4ed8:	4651      	mov	r1, sl
    4eda:	3b08      	subs	r3, #8
    4edc:	4099      	lsls	r1, r3
    4ede:	409f      	lsls	r7, r3
    4ee0:	1c0b      	adds	r3, r1, #0
    4ee2:	4307      	orrs	r7, r0
    4ee4:	4817      	ldr	r0, [pc, #92]	; (4f44 <__aeabi_ddiv+0x1d0>)
    4ee6:	2100      	movs	r1, #0
    4ee8:	1a80      	subs	r0, r0, r2
    4eea:	e783      	b.n	4df4 <__aeabi_ddiv+0x80>
    4eec:	2700      	movs	r7, #0
    4eee:	2300      	movs	r3, #0
    4ef0:	2101      	movs	r1, #1
    4ef2:	e77f      	b.n	4df4 <__aeabi_ddiv+0x80>
    4ef4:	2300      	movs	r3, #0
    4ef6:	469b      	mov	fp, r3
    4ef8:	4699      	mov	r9, r3
    4efa:	3301      	adds	r3, #1
    4efc:	2604      	movs	r6, #4
    4efe:	9300      	str	r3, [sp, #0]
    4f00:	e75e      	b.n	4dc0 <__aeabi_ddiv+0x4c>
    4f02:	2303      	movs	r3, #3
    4f04:	260c      	movs	r6, #12
    4f06:	9300      	str	r3, [sp, #0]
    4f08:	e75a      	b.n	4dc0 <__aeabi_ddiv+0x4c>
    4f0a:	2b03      	cmp	r3, #3
    4f0c:	d100      	bne.n	4f10 <__aeabi_ddiv+0x19c>
    4f0e:	e23c      	b.n	538a <__aeabi_ddiv+0x616>
    4f10:	2b01      	cmp	r3, #1
    4f12:	d000      	beq.n	4f16 <__aeabi_ddiv+0x1a2>
    4f14:	e1bf      	b.n	5296 <__aeabi_ddiv+0x522>
    4f16:	1c1a      	adds	r2, r3, #0
    4f18:	9b01      	ldr	r3, [sp, #4]
    4f1a:	401a      	ands	r2, r3
    4f1c:	2100      	movs	r1, #0
    4f1e:	2300      	movs	r3, #0
    4f20:	2700      	movs	r7, #0
    4f22:	4689      	mov	r9, r1
    4f24:	e78e      	b.n	4e44 <__aeabi_ddiv+0xd0>
    4f26:	2300      	movs	r3, #0
    4f28:	2780      	movs	r7, #128	; 0x80
    4f2a:	4699      	mov	r9, r3
    4f2c:	2200      	movs	r2, #0
    4f2e:	033f      	lsls	r7, r7, #12
    4f30:	4b00      	ldr	r3, [pc, #0]	; (4f34 <__aeabi_ddiv+0x1c0>)
    4f32:	e787      	b.n	4e44 <__aeabi_ddiv+0xd0>
    4f34:	000007ff 	.word	0x000007ff
    4f38:	fffffc01 	.word	0xfffffc01
    4f3c:	00007720 	.word	0x00007720
    4f40:	800fffff 	.word	0x800fffff
    4f44:	fffffc0d 	.word	0xfffffc0d
    4f48:	45bb      	cmp	fp, r7
    4f4a:	d900      	bls.n	4f4e <__aeabi_ddiv+0x1da>
    4f4c:	e151      	b.n	51f2 <__aeabi_ddiv+0x47e>
    4f4e:	d100      	bne.n	4f52 <__aeabi_ddiv+0x1de>
    4f50:	e14c      	b.n	51ec <__aeabi_ddiv+0x478>
    4f52:	464a      	mov	r2, r9
    4f54:	9203      	str	r2, [sp, #12]
    4f56:	2200      	movs	r2, #0
    4f58:	465c      	mov	r4, fp
    4f5a:	4690      	mov	r8, r2
    4f5c:	3d01      	subs	r5, #1
    4f5e:	0e18      	lsrs	r0, r3, #24
    4f60:	023f      	lsls	r7, r7, #8
    4f62:	4338      	orrs	r0, r7
    4f64:	021b      	lsls	r3, r3, #8
    4f66:	9301      	str	r3, [sp, #4]
    4f68:	0c03      	lsrs	r3, r0, #16
    4f6a:	4699      	mov	r9, r3
    4f6c:	0403      	lsls	r3, r0, #16
    4f6e:	0c1b      	lsrs	r3, r3, #16
    4f70:	4649      	mov	r1, r9
    4f72:	1c06      	adds	r6, r0, #0
    4f74:	1c20      	adds	r0, r4, #0
    4f76:	1c1f      	adds	r7, r3, #0
    4f78:	9300      	str	r3, [sp, #0]
    4f7a:	f7fe ff37 	bl	3dec <__aeabi_uidiv>
    4f7e:	1c02      	adds	r2, r0, #0
    4f80:	437a      	muls	r2, r7
    4f82:	9002      	str	r0, [sp, #8]
    4f84:	4649      	mov	r1, r9
    4f86:	1c20      	adds	r0, r4, #0
    4f88:	1c17      	adds	r7, r2, #0
    4f8a:	f7fe ffb5 	bl	3ef8 <__aeabi_uidivmod>
    4f8e:	9b03      	ldr	r3, [sp, #12]
    4f90:	0409      	lsls	r1, r1, #16
    4f92:	0c1b      	lsrs	r3, r3, #16
    4f94:	4319      	orrs	r1, r3
    4f96:	428f      	cmp	r7, r1
    4f98:	d90c      	bls.n	4fb4 <__aeabi_ddiv+0x240>
    4f9a:	9b02      	ldr	r3, [sp, #8]
    4f9c:	1989      	adds	r1, r1, r6
    4f9e:	3b01      	subs	r3, #1
    4fa0:	428e      	cmp	r6, r1
    4fa2:	d900      	bls.n	4fa6 <__aeabi_ddiv+0x232>
    4fa4:	e152      	b.n	524c <__aeabi_ddiv+0x4d8>
    4fa6:	428f      	cmp	r7, r1
    4fa8:	d800      	bhi.n	4fac <__aeabi_ddiv+0x238>
    4faa:	e14f      	b.n	524c <__aeabi_ddiv+0x4d8>
    4fac:	9b02      	ldr	r3, [sp, #8]
    4fae:	1989      	adds	r1, r1, r6
    4fb0:	3b02      	subs	r3, #2
    4fb2:	9302      	str	r3, [sp, #8]
    4fb4:	1bcc      	subs	r4, r1, r7
    4fb6:	1c20      	adds	r0, r4, #0
    4fb8:	4649      	mov	r1, r9
    4fba:	f7fe ff17 	bl	3dec <__aeabi_uidiv>
    4fbe:	9f00      	ldr	r7, [sp, #0]
    4fc0:	4683      	mov	fp, r0
    4fc2:	4347      	muls	r7, r0
    4fc4:	4649      	mov	r1, r9
    4fc6:	1c20      	adds	r0, r4, #0
    4fc8:	f7fe ff96 	bl	3ef8 <__aeabi_uidivmod>
    4fcc:	9a03      	ldr	r2, [sp, #12]
    4fce:	040b      	lsls	r3, r1, #16
    4fd0:	0414      	lsls	r4, r2, #16
    4fd2:	0c24      	lsrs	r4, r4, #16
    4fd4:	4323      	orrs	r3, r4
    4fd6:	429f      	cmp	r7, r3
    4fd8:	d90d      	bls.n	4ff6 <__aeabi_ddiv+0x282>
    4fda:	465a      	mov	r2, fp
    4fdc:	199b      	adds	r3, r3, r6
    4fde:	3a01      	subs	r2, #1
    4fe0:	429e      	cmp	r6, r3
    4fe2:	d900      	bls.n	4fe6 <__aeabi_ddiv+0x272>
    4fe4:	e130      	b.n	5248 <__aeabi_ddiv+0x4d4>
    4fe6:	429f      	cmp	r7, r3
    4fe8:	d800      	bhi.n	4fec <__aeabi_ddiv+0x278>
    4fea:	e12d      	b.n	5248 <__aeabi_ddiv+0x4d4>
    4fec:	2202      	movs	r2, #2
    4fee:	4252      	negs	r2, r2
    4ff0:	4694      	mov	ip, r2
    4ff2:	199b      	adds	r3, r3, r6
    4ff4:	44e3      	add	fp, ip
    4ff6:	9a02      	ldr	r2, [sp, #8]
    4ff8:	1bdb      	subs	r3, r3, r7
    4ffa:	0417      	lsls	r7, r2, #16
    4ffc:	465a      	mov	r2, fp
    4ffe:	433a      	orrs	r2, r7
    5000:	4693      	mov	fp, r2
    5002:	9c01      	ldr	r4, [sp, #4]
    5004:	0c17      	lsrs	r7, r2, #16
    5006:	0c22      	lsrs	r2, r4, #16
    5008:	1c10      	adds	r0, r2, #0
    500a:	9204      	str	r2, [sp, #16]
    500c:	465a      	mov	r2, fp
    500e:	0411      	lsls	r1, r2, #16
    5010:	0422      	lsls	r2, r4, #16
    5012:	0c12      	lsrs	r2, r2, #16
    5014:	1c14      	adds	r4, r2, #0
    5016:	0c09      	lsrs	r1, r1, #16
    5018:	437c      	muls	r4, r7
    501a:	9205      	str	r2, [sp, #20]
    501c:	434a      	muls	r2, r1
    501e:	4341      	muls	r1, r0
    5020:	4347      	muls	r7, r0
    5022:	1861      	adds	r1, r4, r1
    5024:	0c10      	lsrs	r0, r2, #16
    5026:	1809      	adds	r1, r1, r0
    5028:	428c      	cmp	r4, r1
    502a:	d903      	bls.n	5034 <__aeabi_ddiv+0x2c0>
    502c:	2080      	movs	r0, #128	; 0x80
    502e:	0240      	lsls	r0, r0, #9
    5030:	4684      	mov	ip, r0
    5032:	4467      	add	r7, ip
    5034:	0c0c      	lsrs	r4, r1, #16
    5036:	0412      	lsls	r2, r2, #16
    5038:	0408      	lsls	r0, r1, #16
    503a:	0c12      	lsrs	r2, r2, #16
    503c:	193c      	adds	r4, r7, r4
    503e:	1881      	adds	r1, r0, r2
    5040:	42a3      	cmp	r3, r4
    5042:	d200      	bcs.n	5046 <__aeabi_ddiv+0x2d2>
    5044:	e0e5      	b.n	5212 <__aeabi_ddiv+0x49e>
    5046:	d100      	bne.n	504a <__aeabi_ddiv+0x2d6>
    5048:	e0df      	b.n	520a <__aeabi_ddiv+0x496>
    504a:	1b1f      	subs	r7, r3, r4
    504c:	4643      	mov	r3, r8
    504e:	1a5c      	subs	r4, r3, r1
    5050:	45a0      	cmp	r8, r4
    5052:	4192      	sbcs	r2, r2
    5054:	4252      	negs	r2, r2
    5056:	1abf      	subs	r7, r7, r2
    5058:	42b7      	cmp	r7, r6
    505a:	d100      	bne.n	505e <__aeabi_ddiv+0x2ea>
    505c:	e10e      	b.n	527c <__aeabi_ddiv+0x508>
    505e:	1c38      	adds	r0, r7, #0
    5060:	4649      	mov	r1, r9
    5062:	f7fe fec3 	bl	3dec <__aeabi_uidiv>
    5066:	9b00      	ldr	r3, [sp, #0]
    5068:	9002      	str	r0, [sp, #8]
    506a:	4343      	muls	r3, r0
    506c:	4649      	mov	r1, r9
    506e:	1c38      	adds	r0, r7, #0
    5070:	4698      	mov	r8, r3
    5072:	f7fe ff41 	bl	3ef8 <__aeabi_uidivmod>
    5076:	0c23      	lsrs	r3, r4, #16
    5078:	040f      	lsls	r7, r1, #16
    507a:	431f      	orrs	r7, r3
    507c:	45b8      	cmp	r8, r7
    507e:	d90c      	bls.n	509a <__aeabi_ddiv+0x326>
    5080:	9b02      	ldr	r3, [sp, #8]
    5082:	19bf      	adds	r7, r7, r6
    5084:	3b01      	subs	r3, #1
    5086:	42be      	cmp	r6, r7
    5088:	d900      	bls.n	508c <__aeabi_ddiv+0x318>
    508a:	e0fb      	b.n	5284 <__aeabi_ddiv+0x510>
    508c:	45b8      	cmp	r8, r7
    508e:	d800      	bhi.n	5092 <__aeabi_ddiv+0x31e>
    5090:	e0f8      	b.n	5284 <__aeabi_ddiv+0x510>
    5092:	9b02      	ldr	r3, [sp, #8]
    5094:	19bf      	adds	r7, r7, r6
    5096:	3b02      	subs	r3, #2
    5098:	9302      	str	r3, [sp, #8]
    509a:	4643      	mov	r3, r8
    509c:	1aff      	subs	r7, r7, r3
    509e:	4649      	mov	r1, r9
    50a0:	1c38      	adds	r0, r7, #0
    50a2:	f7fe fea3 	bl	3dec <__aeabi_uidiv>
    50a6:	9b00      	ldr	r3, [sp, #0]
    50a8:	9003      	str	r0, [sp, #12]
    50aa:	4343      	muls	r3, r0
    50ac:	4649      	mov	r1, r9
    50ae:	1c38      	adds	r0, r7, #0
    50b0:	4698      	mov	r8, r3
    50b2:	f7fe ff21 	bl	3ef8 <__aeabi_uidivmod>
    50b6:	0424      	lsls	r4, r4, #16
    50b8:	0409      	lsls	r1, r1, #16
    50ba:	0c24      	lsrs	r4, r4, #16
    50bc:	4321      	orrs	r1, r4
    50be:	4588      	cmp	r8, r1
    50c0:	d90c      	bls.n	50dc <__aeabi_ddiv+0x368>
    50c2:	9b03      	ldr	r3, [sp, #12]
    50c4:	1989      	adds	r1, r1, r6
    50c6:	3b01      	subs	r3, #1
    50c8:	428e      	cmp	r6, r1
    50ca:	d900      	bls.n	50ce <__aeabi_ddiv+0x35a>
    50cc:	e0dc      	b.n	5288 <__aeabi_ddiv+0x514>
    50ce:	4588      	cmp	r8, r1
    50d0:	d800      	bhi.n	50d4 <__aeabi_ddiv+0x360>
    50d2:	e0d9      	b.n	5288 <__aeabi_ddiv+0x514>
    50d4:	9b03      	ldr	r3, [sp, #12]
    50d6:	1989      	adds	r1, r1, r6
    50d8:	3b02      	subs	r3, #2
    50da:	9303      	str	r3, [sp, #12]
    50dc:	4643      	mov	r3, r8
    50de:	1ac9      	subs	r1, r1, r3
    50e0:	9b02      	ldr	r3, [sp, #8]
    50e2:	9a03      	ldr	r2, [sp, #12]
    50e4:	041b      	lsls	r3, r3, #16
    50e6:	9c05      	ldr	r4, [sp, #20]
    50e8:	431a      	orrs	r2, r3
    50ea:	0c10      	lsrs	r0, r2, #16
    50ec:	0413      	lsls	r3, r2, #16
    50ee:	4691      	mov	r9, r2
    50f0:	1c22      	adds	r2, r4, #0
    50f2:	9f04      	ldr	r7, [sp, #16]
    50f4:	0c1b      	lsrs	r3, r3, #16
    50f6:	435a      	muls	r2, r3
    50f8:	4344      	muls	r4, r0
    50fa:	437b      	muls	r3, r7
    50fc:	4378      	muls	r0, r7
    50fe:	18e3      	adds	r3, r4, r3
    5100:	0c17      	lsrs	r7, r2, #16
    5102:	19db      	adds	r3, r3, r7
    5104:	429c      	cmp	r4, r3
    5106:	d903      	bls.n	5110 <__aeabi_ddiv+0x39c>
    5108:	2480      	movs	r4, #128	; 0x80
    510a:	0264      	lsls	r4, r4, #9
    510c:	46a4      	mov	ip, r4
    510e:	4460      	add	r0, ip
    5110:	0c1c      	lsrs	r4, r3, #16
    5112:	0412      	lsls	r2, r2, #16
    5114:	041b      	lsls	r3, r3, #16
    5116:	0c12      	lsrs	r2, r2, #16
    5118:	1900      	adds	r0, r0, r4
    511a:	189b      	adds	r3, r3, r2
    511c:	4281      	cmp	r1, r0
    511e:	d200      	bcs.n	5122 <__aeabi_ddiv+0x3ae>
    5120:	e096      	b.n	5250 <__aeabi_ddiv+0x4dc>
    5122:	d100      	bne.n	5126 <__aeabi_ddiv+0x3b2>
    5124:	e0fc      	b.n	5320 <__aeabi_ddiv+0x5ac>
    5126:	464a      	mov	r2, r9
    5128:	2301      	movs	r3, #1
    512a:	431a      	orrs	r2, r3
    512c:	4691      	mov	r9, r2
    512e:	4b9b      	ldr	r3, [pc, #620]	; (539c <__aeabi_ddiv+0x628>)
    5130:	18eb      	adds	r3, r5, r3
    5132:	2b00      	cmp	r3, #0
    5134:	dc00      	bgt.n	5138 <__aeabi_ddiv+0x3c4>
    5136:	e099      	b.n	526c <__aeabi_ddiv+0x4f8>
    5138:	464a      	mov	r2, r9
    513a:	0752      	lsls	r2, r2, #29
    513c:	d00a      	beq.n	5154 <__aeabi_ddiv+0x3e0>
    513e:	220f      	movs	r2, #15
    5140:	4649      	mov	r1, r9
    5142:	400a      	ands	r2, r1
    5144:	2a04      	cmp	r2, #4
    5146:	d005      	beq.n	5154 <__aeabi_ddiv+0x3e0>
    5148:	3104      	adds	r1, #4
    514a:	4549      	cmp	r1, r9
    514c:	4192      	sbcs	r2, r2
    514e:	4689      	mov	r9, r1
    5150:	4252      	negs	r2, r2
    5152:	4493      	add	fp, r2
    5154:	465a      	mov	r2, fp
    5156:	01d2      	lsls	r2, r2, #7
    5158:	d506      	bpl.n	5168 <__aeabi_ddiv+0x3f4>
    515a:	465a      	mov	r2, fp
    515c:	4b90      	ldr	r3, [pc, #576]	; (53a0 <__aeabi_ddiv+0x62c>)
    515e:	401a      	ands	r2, r3
    5160:	2380      	movs	r3, #128	; 0x80
    5162:	4693      	mov	fp, r2
    5164:	00db      	lsls	r3, r3, #3
    5166:	18eb      	adds	r3, r5, r3
    5168:	4a8e      	ldr	r2, [pc, #568]	; (53a4 <__aeabi_ddiv+0x630>)
    516a:	4293      	cmp	r3, r2
    516c:	dd00      	ble.n	5170 <__aeabi_ddiv+0x3fc>
    516e:	e662      	b.n	4e36 <__aeabi_ddiv+0xc2>
    5170:	464a      	mov	r2, r9
    5172:	4659      	mov	r1, fp
    5174:	08d2      	lsrs	r2, r2, #3
    5176:	0749      	lsls	r1, r1, #29
    5178:	4311      	orrs	r1, r2
    517a:	465a      	mov	r2, fp
    517c:	4689      	mov	r9, r1
    517e:	0257      	lsls	r7, r2, #9
    5180:	4651      	mov	r1, sl
    5182:	2201      	movs	r2, #1
    5184:	055b      	lsls	r3, r3, #21
    5186:	0b3f      	lsrs	r7, r7, #12
    5188:	0d5b      	lsrs	r3, r3, #21
    518a:	400a      	ands	r2, r1
    518c:	e65a      	b.n	4e44 <__aeabi_ddiv+0xd0>
    518e:	2080      	movs	r0, #128	; 0x80
    5190:	465a      	mov	r2, fp
    5192:	0300      	lsls	r0, r0, #12
    5194:	4202      	tst	r2, r0
    5196:	d008      	beq.n	51aa <__aeabi_ddiv+0x436>
    5198:	4207      	tst	r7, r0
    519a:	d106      	bne.n	51aa <__aeabi_ddiv+0x436>
    519c:	4307      	orrs	r7, r0
    519e:	033f      	lsls	r7, r7, #12
    51a0:	4699      	mov	r9, r3
    51a2:	0b3f      	lsrs	r7, r7, #12
    51a4:	4642      	mov	r2, r8
    51a6:	4b80      	ldr	r3, [pc, #512]	; (53a8 <__aeabi_ddiv+0x634>)
    51a8:	e64c      	b.n	4e44 <__aeabi_ddiv+0xd0>
    51aa:	465f      	mov	r7, fp
    51ac:	4307      	orrs	r7, r0
    51ae:	033f      	lsls	r7, r7, #12
    51b0:	0b3f      	lsrs	r7, r7, #12
    51b2:	1c22      	adds	r2, r4, #0
    51b4:	4b7c      	ldr	r3, [pc, #496]	; (53a8 <__aeabi_ddiv+0x634>)
    51b6:	e645      	b.n	4e44 <__aeabi_ddiv+0xd0>
    51b8:	f001 f94e 	bl	6458 <__clzsi2>
    51bc:	1c03      	adds	r3, r0, #0
    51be:	3020      	adds	r0, #32
    51c0:	2827      	cmp	r0, #39	; 0x27
    51c2:	dc00      	bgt.n	51c6 <__aeabi_ddiv+0x452>
    51c4:	e65e      	b.n	4e84 <__aeabi_ddiv+0x110>
    51c6:	3b08      	subs	r3, #8
    51c8:	409e      	lsls	r6, r3
    51ca:	2300      	movs	r3, #0
    51cc:	46b3      	mov	fp, r6
    51ce:	4699      	mov	r9, r3
    51d0:	e665      	b.n	4e9e <__aeabi_ddiv+0x12a>
    51d2:	4650      	mov	r0, sl
    51d4:	f001 f940 	bl	6458 <__clzsi2>
    51d8:	1c02      	adds	r2, r0, #0
    51da:	3220      	adds	r2, #32
    51dc:	2a27      	cmp	r2, #39	; 0x27
    51de:	dc00      	bgt.n	51e2 <__aeabi_ddiv+0x46e>
    51e0:	e675      	b.n	4ece <__aeabi_ddiv+0x15a>
    51e2:	4657      	mov	r7, sl
    51e4:	3808      	subs	r0, #8
    51e6:	4087      	lsls	r7, r0
    51e8:	2300      	movs	r3, #0
    51ea:	e67b      	b.n	4ee4 <__aeabi_ddiv+0x170>
    51ec:	4599      	cmp	r9, r3
    51ee:	d200      	bcs.n	51f2 <__aeabi_ddiv+0x47e>
    51f0:	e6af      	b.n	4f52 <__aeabi_ddiv+0x1de>
    51f2:	465a      	mov	r2, fp
    51f4:	4659      	mov	r1, fp
    51f6:	0854      	lsrs	r4, r2, #1
    51f8:	464a      	mov	r2, r9
    51fa:	07c8      	lsls	r0, r1, #31
    51fc:	0852      	lsrs	r2, r2, #1
    51fe:	4302      	orrs	r2, r0
    5200:	9203      	str	r2, [sp, #12]
    5202:	464a      	mov	r2, r9
    5204:	07d2      	lsls	r2, r2, #31
    5206:	4690      	mov	r8, r2
    5208:	e6a9      	b.n	4f5e <__aeabi_ddiv+0x1ea>
    520a:	2700      	movs	r7, #0
    520c:	4588      	cmp	r8, r1
    520e:	d300      	bcc.n	5212 <__aeabi_ddiv+0x49e>
    5210:	e71c      	b.n	504c <__aeabi_ddiv+0x2d8>
    5212:	9f01      	ldr	r7, [sp, #4]
    5214:	465a      	mov	r2, fp
    5216:	46bc      	mov	ip, r7
    5218:	44e0      	add	r8, ip
    521a:	45b8      	cmp	r8, r7
    521c:	41bf      	sbcs	r7, r7
    521e:	427f      	negs	r7, r7
    5220:	19bf      	adds	r7, r7, r6
    5222:	18ff      	adds	r7, r7, r3
    5224:	3a01      	subs	r2, #1
    5226:	42be      	cmp	r6, r7
    5228:	d206      	bcs.n	5238 <__aeabi_ddiv+0x4c4>
    522a:	42bc      	cmp	r4, r7
    522c:	d85f      	bhi.n	52ee <__aeabi_ddiv+0x57a>
    522e:	d100      	bne.n	5232 <__aeabi_ddiv+0x4be>
    5230:	e09f      	b.n	5372 <__aeabi_ddiv+0x5fe>
    5232:	1b3f      	subs	r7, r7, r4
    5234:	4693      	mov	fp, r2
    5236:	e709      	b.n	504c <__aeabi_ddiv+0x2d8>
    5238:	42b7      	cmp	r7, r6
    523a:	d1fa      	bne.n	5232 <__aeabi_ddiv+0x4be>
    523c:	9b01      	ldr	r3, [sp, #4]
    523e:	4543      	cmp	r3, r8
    5240:	d9f3      	bls.n	522a <__aeabi_ddiv+0x4b6>
    5242:	1b37      	subs	r7, r6, r4
    5244:	4693      	mov	fp, r2
    5246:	e701      	b.n	504c <__aeabi_ddiv+0x2d8>
    5248:	4693      	mov	fp, r2
    524a:	e6d4      	b.n	4ff6 <__aeabi_ddiv+0x282>
    524c:	9302      	str	r3, [sp, #8]
    524e:	e6b1      	b.n	4fb4 <__aeabi_ddiv+0x240>
    5250:	464a      	mov	r2, r9
    5252:	1989      	adds	r1, r1, r6
    5254:	3a01      	subs	r2, #1
    5256:	428e      	cmp	r6, r1
    5258:	d918      	bls.n	528c <__aeabi_ddiv+0x518>
    525a:	4691      	mov	r9, r2
    525c:	4281      	cmp	r1, r0
    525e:	d000      	beq.n	5262 <__aeabi_ddiv+0x4ee>
    5260:	e761      	b.n	5126 <__aeabi_ddiv+0x3b2>
    5262:	9a01      	ldr	r2, [sp, #4]
    5264:	429a      	cmp	r2, r3
    5266:	d000      	beq.n	526a <__aeabi_ddiv+0x4f6>
    5268:	e75d      	b.n	5126 <__aeabi_ddiv+0x3b2>
    526a:	e760      	b.n	512e <__aeabi_ddiv+0x3ba>
    526c:	4f4f      	ldr	r7, [pc, #316]	; (53ac <__aeabi_ddiv+0x638>)
    526e:	1b7f      	subs	r7, r7, r5
    5270:	2f38      	cmp	r7, #56	; 0x38
    5272:	dd13      	ble.n	529c <__aeabi_ddiv+0x528>
    5274:	2201      	movs	r2, #1
    5276:	4653      	mov	r3, sl
    5278:	401a      	ands	r2, r3
    527a:	e64f      	b.n	4f1c <__aeabi_ddiv+0x1a8>
    527c:	2301      	movs	r3, #1
    527e:	425b      	negs	r3, r3
    5280:	4699      	mov	r9, r3
    5282:	e754      	b.n	512e <__aeabi_ddiv+0x3ba>
    5284:	9302      	str	r3, [sp, #8]
    5286:	e708      	b.n	509a <__aeabi_ddiv+0x326>
    5288:	9303      	str	r3, [sp, #12]
    528a:	e727      	b.n	50dc <__aeabi_ddiv+0x368>
    528c:	4288      	cmp	r0, r1
    528e:	d83c      	bhi.n	530a <__aeabi_ddiv+0x596>
    5290:	d074      	beq.n	537c <__aeabi_ddiv+0x608>
    5292:	4691      	mov	r9, r2
    5294:	e747      	b.n	5126 <__aeabi_ddiv+0x3b2>
    5296:	9b01      	ldr	r3, [sp, #4]
    5298:	469a      	mov	sl, r3
    529a:	e748      	b.n	512e <__aeabi_ddiv+0x3ba>
    529c:	2f1f      	cmp	r7, #31
    529e:	dc44      	bgt.n	532a <__aeabi_ddiv+0x5b6>
    52a0:	4b43      	ldr	r3, [pc, #268]	; (53b0 <__aeabi_ddiv+0x63c>)
    52a2:	464a      	mov	r2, r9
    52a4:	469c      	mov	ip, r3
    52a6:	465b      	mov	r3, fp
    52a8:	4465      	add	r5, ip
    52aa:	40fa      	lsrs	r2, r7
    52ac:	40ab      	lsls	r3, r5
    52ae:	4313      	orrs	r3, r2
    52b0:	464a      	mov	r2, r9
    52b2:	40aa      	lsls	r2, r5
    52b4:	1c15      	adds	r5, r2, #0
    52b6:	1e6a      	subs	r2, r5, #1
    52b8:	4195      	sbcs	r5, r2
    52ba:	465a      	mov	r2, fp
    52bc:	40fa      	lsrs	r2, r7
    52be:	432b      	orrs	r3, r5
    52c0:	1c17      	adds	r7, r2, #0
    52c2:	075a      	lsls	r2, r3, #29
    52c4:	d009      	beq.n	52da <__aeabi_ddiv+0x566>
    52c6:	220f      	movs	r2, #15
    52c8:	401a      	ands	r2, r3
    52ca:	2a04      	cmp	r2, #4
    52cc:	d005      	beq.n	52da <__aeabi_ddiv+0x566>
    52ce:	1d1a      	adds	r2, r3, #4
    52d0:	429a      	cmp	r2, r3
    52d2:	419b      	sbcs	r3, r3
    52d4:	425b      	negs	r3, r3
    52d6:	18ff      	adds	r7, r7, r3
    52d8:	1c13      	adds	r3, r2, #0
    52da:	023a      	lsls	r2, r7, #8
    52dc:	d53e      	bpl.n	535c <__aeabi_ddiv+0x5e8>
    52de:	4653      	mov	r3, sl
    52e0:	2201      	movs	r2, #1
    52e2:	2100      	movs	r1, #0
    52e4:	401a      	ands	r2, r3
    52e6:	2700      	movs	r7, #0
    52e8:	2301      	movs	r3, #1
    52ea:	4689      	mov	r9, r1
    52ec:	e5aa      	b.n	4e44 <__aeabi_ddiv+0xd0>
    52ee:	2302      	movs	r3, #2
    52f0:	425b      	negs	r3, r3
    52f2:	469c      	mov	ip, r3
    52f4:	9a01      	ldr	r2, [sp, #4]
    52f6:	44e3      	add	fp, ip
    52f8:	4694      	mov	ip, r2
    52fa:	44e0      	add	r8, ip
    52fc:	4590      	cmp	r8, r2
    52fe:	419b      	sbcs	r3, r3
    5300:	425b      	negs	r3, r3
    5302:	199b      	adds	r3, r3, r6
    5304:	19df      	adds	r7, r3, r7
    5306:	1b3f      	subs	r7, r7, r4
    5308:	e6a0      	b.n	504c <__aeabi_ddiv+0x2d8>
    530a:	9f01      	ldr	r7, [sp, #4]
    530c:	464a      	mov	r2, r9
    530e:	007c      	lsls	r4, r7, #1
    5310:	42bc      	cmp	r4, r7
    5312:	41bf      	sbcs	r7, r7
    5314:	427f      	negs	r7, r7
    5316:	19bf      	adds	r7, r7, r6
    5318:	3a02      	subs	r2, #2
    531a:	19c9      	adds	r1, r1, r7
    531c:	9401      	str	r4, [sp, #4]
    531e:	e79c      	b.n	525a <__aeabi_ddiv+0x4e6>
    5320:	2b00      	cmp	r3, #0
    5322:	d195      	bne.n	5250 <__aeabi_ddiv+0x4dc>
    5324:	2200      	movs	r2, #0
    5326:	9201      	str	r2, [sp, #4]
    5328:	e79b      	b.n	5262 <__aeabi_ddiv+0x4ee>
    532a:	465a      	mov	r2, fp
    532c:	4b21      	ldr	r3, [pc, #132]	; (53b4 <__aeabi_ddiv+0x640>)
    532e:	1b5b      	subs	r3, r3, r5
    5330:	40da      	lsrs	r2, r3
    5332:	2f20      	cmp	r7, #32
    5334:	d027      	beq.n	5386 <__aeabi_ddiv+0x612>
    5336:	4b20      	ldr	r3, [pc, #128]	; (53b8 <__aeabi_ddiv+0x644>)
    5338:	469c      	mov	ip, r3
    533a:	465b      	mov	r3, fp
    533c:	4465      	add	r5, ip
    533e:	40ab      	lsls	r3, r5
    5340:	4649      	mov	r1, r9
    5342:	430b      	orrs	r3, r1
    5344:	1e59      	subs	r1, r3, #1
    5346:	418b      	sbcs	r3, r1
    5348:	4313      	orrs	r3, r2
    534a:	2207      	movs	r2, #7
    534c:	2700      	movs	r7, #0
    534e:	401a      	ands	r2, r3
    5350:	d007      	beq.n	5362 <__aeabi_ddiv+0x5ee>
    5352:	220f      	movs	r2, #15
    5354:	2700      	movs	r7, #0
    5356:	401a      	ands	r2, r3
    5358:	2a04      	cmp	r2, #4
    535a:	d1b8      	bne.n	52ce <__aeabi_ddiv+0x55a>
    535c:	077a      	lsls	r2, r7, #29
    535e:	027f      	lsls	r7, r7, #9
    5360:	0b3f      	lsrs	r7, r7, #12
    5362:	08db      	lsrs	r3, r3, #3
    5364:	4313      	orrs	r3, r2
    5366:	4699      	mov	r9, r3
    5368:	2201      	movs	r2, #1
    536a:	4653      	mov	r3, sl
    536c:	401a      	ands	r2, r3
    536e:	2300      	movs	r3, #0
    5370:	e568      	b.n	4e44 <__aeabi_ddiv+0xd0>
    5372:	4541      	cmp	r1, r8
    5374:	d8bb      	bhi.n	52ee <__aeabi_ddiv+0x57a>
    5376:	4693      	mov	fp, r2
    5378:	2700      	movs	r7, #0
    537a:	e667      	b.n	504c <__aeabi_ddiv+0x2d8>
    537c:	9c01      	ldr	r4, [sp, #4]
    537e:	429c      	cmp	r4, r3
    5380:	d3c3      	bcc.n	530a <__aeabi_ddiv+0x596>
    5382:	4691      	mov	r9, r2
    5384:	e76d      	b.n	5262 <__aeabi_ddiv+0x4ee>
    5386:	2300      	movs	r3, #0
    5388:	e7da      	b.n	5340 <__aeabi_ddiv+0x5cc>
    538a:	2780      	movs	r7, #128	; 0x80
    538c:	465b      	mov	r3, fp
    538e:	033f      	lsls	r7, r7, #12
    5390:	431f      	orrs	r7, r3
    5392:	033f      	lsls	r7, r7, #12
    5394:	0b3f      	lsrs	r7, r7, #12
    5396:	9a01      	ldr	r2, [sp, #4]
    5398:	4b03      	ldr	r3, [pc, #12]	; (53a8 <__aeabi_ddiv+0x634>)
    539a:	e553      	b.n	4e44 <__aeabi_ddiv+0xd0>
    539c:	000003ff 	.word	0x000003ff
    53a0:	feffffff 	.word	0xfeffffff
    53a4:	000007fe 	.word	0x000007fe
    53a8:	000007ff 	.word	0x000007ff
    53ac:	fffffc02 	.word	0xfffffc02
    53b0:	0000041e 	.word	0x0000041e
    53b4:	fffffbe2 	.word	0xfffffbe2
    53b8:	0000043e 	.word	0x0000043e

000053bc <__eqdf2>:
    53bc:	b5f0      	push	{r4, r5, r6, r7, lr}
    53be:	465f      	mov	r7, fp
    53c0:	464d      	mov	r5, r9
    53c2:	4644      	mov	r4, r8
    53c4:	4656      	mov	r6, sl
    53c6:	b4f0      	push	{r4, r5, r6, r7}
    53c8:	031f      	lsls	r7, r3, #12
    53ca:	005c      	lsls	r4, r3, #1
    53cc:	0fdb      	lsrs	r3, r3, #31
    53ce:	4699      	mov	r9, r3
    53d0:	4b1b      	ldr	r3, [pc, #108]	; (5440 <__eqdf2+0x84>)
    53d2:	030e      	lsls	r6, r1, #12
    53d4:	004d      	lsls	r5, r1, #1
    53d6:	0fc9      	lsrs	r1, r1, #31
    53d8:	4684      	mov	ip, r0
    53da:	0b36      	lsrs	r6, r6, #12
    53dc:	0d6d      	lsrs	r5, r5, #21
    53de:	468b      	mov	fp, r1
    53e0:	4690      	mov	r8, r2
    53e2:	0b3f      	lsrs	r7, r7, #12
    53e4:	0d64      	lsrs	r4, r4, #21
    53e6:	429d      	cmp	r5, r3
    53e8:	d00c      	beq.n	5404 <__eqdf2+0x48>
    53ea:	4b15      	ldr	r3, [pc, #84]	; (5440 <__eqdf2+0x84>)
    53ec:	429c      	cmp	r4, r3
    53ee:	d010      	beq.n	5412 <__eqdf2+0x56>
    53f0:	2301      	movs	r3, #1
    53f2:	42a5      	cmp	r5, r4
    53f4:	d014      	beq.n	5420 <__eqdf2+0x64>
    53f6:	1c18      	adds	r0, r3, #0
    53f8:	bc3c      	pop	{r2, r3, r4, r5}
    53fa:	4690      	mov	r8, r2
    53fc:	4699      	mov	r9, r3
    53fe:	46a2      	mov	sl, r4
    5400:	46ab      	mov	fp, r5
    5402:	bdf0      	pop	{r4, r5, r6, r7, pc}
    5404:	1c31      	adds	r1, r6, #0
    5406:	2301      	movs	r3, #1
    5408:	4301      	orrs	r1, r0
    540a:	d1f4      	bne.n	53f6 <__eqdf2+0x3a>
    540c:	4b0c      	ldr	r3, [pc, #48]	; (5440 <__eqdf2+0x84>)
    540e:	429c      	cmp	r4, r3
    5410:	d1ee      	bne.n	53f0 <__eqdf2+0x34>
    5412:	433a      	orrs	r2, r7
    5414:	2301      	movs	r3, #1
    5416:	2a00      	cmp	r2, #0
    5418:	d1ed      	bne.n	53f6 <__eqdf2+0x3a>
    541a:	2301      	movs	r3, #1
    541c:	42a5      	cmp	r5, r4
    541e:	d1ea      	bne.n	53f6 <__eqdf2+0x3a>
    5420:	42be      	cmp	r6, r7
    5422:	d1e8      	bne.n	53f6 <__eqdf2+0x3a>
    5424:	45c4      	cmp	ip, r8
    5426:	d1e6      	bne.n	53f6 <__eqdf2+0x3a>
    5428:	45cb      	cmp	fp, r9
    542a:	d006      	beq.n	543a <__eqdf2+0x7e>
    542c:	2d00      	cmp	r5, #0
    542e:	d1e2      	bne.n	53f6 <__eqdf2+0x3a>
    5430:	4330      	orrs	r0, r6
    5432:	1c03      	adds	r3, r0, #0
    5434:	1e58      	subs	r0, r3, #1
    5436:	4183      	sbcs	r3, r0
    5438:	e7dd      	b.n	53f6 <__eqdf2+0x3a>
    543a:	2300      	movs	r3, #0
    543c:	e7db      	b.n	53f6 <__eqdf2+0x3a>
    543e:	46c0      	nop			; (mov r8, r8)
    5440:	000007ff 	.word	0x000007ff

00005444 <__gedf2>:
    5444:	b5f0      	push	{r4, r5, r6, r7, lr}
    5446:	4657      	mov	r7, sl
    5448:	4645      	mov	r5, r8
    544a:	464e      	mov	r6, r9
    544c:	b4e0      	push	{r5, r6, r7}
    544e:	030f      	lsls	r7, r1, #12
    5450:	004e      	lsls	r6, r1, #1
    5452:	0fc9      	lsrs	r1, r1, #31
    5454:	468a      	mov	sl, r1
    5456:	4932      	ldr	r1, [pc, #200]	; (5520 <__gedf2+0xdc>)
    5458:	031d      	lsls	r5, r3, #12
    545a:	005c      	lsls	r4, r3, #1
    545c:	4684      	mov	ip, r0
    545e:	0b3f      	lsrs	r7, r7, #12
    5460:	0d76      	lsrs	r6, r6, #21
    5462:	4690      	mov	r8, r2
    5464:	0b2d      	lsrs	r5, r5, #12
    5466:	0d64      	lsrs	r4, r4, #21
    5468:	0fdb      	lsrs	r3, r3, #31
    546a:	428e      	cmp	r6, r1
    546c:	d00f      	beq.n	548e <__gedf2+0x4a>
    546e:	428c      	cmp	r4, r1
    5470:	d039      	beq.n	54e6 <__gedf2+0xa2>
    5472:	2e00      	cmp	r6, #0
    5474:	d110      	bne.n	5498 <__gedf2+0x54>
    5476:	4338      	orrs	r0, r7
    5478:	4241      	negs	r1, r0
    547a:	4141      	adcs	r1, r0
    547c:	4689      	mov	r9, r1
    547e:	2c00      	cmp	r4, #0
    5480:	d127      	bne.n	54d2 <__gedf2+0x8e>
    5482:	432a      	orrs	r2, r5
    5484:	d125      	bne.n	54d2 <__gedf2+0x8e>
    5486:	2000      	movs	r0, #0
    5488:	2900      	cmp	r1, #0
    548a:	d10e      	bne.n	54aa <__gedf2+0x66>
    548c:	e008      	b.n	54a0 <__gedf2+0x5c>
    548e:	1c39      	adds	r1, r7, #0
    5490:	4301      	orrs	r1, r0
    5492:	d12e      	bne.n	54f2 <__gedf2+0xae>
    5494:	42b4      	cmp	r4, r6
    5496:	d026      	beq.n	54e6 <__gedf2+0xa2>
    5498:	2c00      	cmp	r4, #0
    549a:	d00b      	beq.n	54b4 <__gedf2+0x70>
    549c:	459a      	cmp	sl, r3
    549e:	d00d      	beq.n	54bc <__gedf2+0x78>
    54a0:	4653      	mov	r3, sl
    54a2:	4259      	negs	r1, r3
    54a4:	2301      	movs	r3, #1
    54a6:	4319      	orrs	r1, r3
    54a8:	1c08      	adds	r0, r1, #0
    54aa:	bc1c      	pop	{r2, r3, r4}
    54ac:	4690      	mov	r8, r2
    54ae:	4699      	mov	r9, r3
    54b0:	46a2      	mov	sl, r4
    54b2:	bdf0      	pop	{r4, r5, r6, r7, pc}
    54b4:	432a      	orrs	r2, r5
    54b6:	d0f3      	beq.n	54a0 <__gedf2+0x5c>
    54b8:	459a      	cmp	sl, r3
    54ba:	d1f1      	bne.n	54a0 <__gedf2+0x5c>
    54bc:	42a6      	cmp	r6, r4
    54be:	dcef      	bgt.n	54a0 <__gedf2+0x5c>
    54c0:	da1a      	bge.n	54f8 <__gedf2+0xb4>
    54c2:	4650      	mov	r0, sl
    54c4:	4241      	negs	r1, r0
    54c6:	4148      	adcs	r0, r1
    54c8:	2301      	movs	r3, #1
    54ca:	4241      	negs	r1, r0
    54cc:	4319      	orrs	r1, r3
    54ce:	1c08      	adds	r0, r1, #0
    54d0:	e7eb      	b.n	54aa <__gedf2+0x66>
    54d2:	464a      	mov	r2, r9
    54d4:	2a00      	cmp	r2, #0
    54d6:	d0e1      	beq.n	549c <__gedf2+0x58>
    54d8:	4258      	negs	r0, r3
    54da:	4158      	adcs	r0, r3
    54dc:	2201      	movs	r2, #1
    54de:	4241      	negs	r1, r0
    54e0:	4311      	orrs	r1, r2
    54e2:	1c08      	adds	r0, r1, #0
    54e4:	e7e1      	b.n	54aa <__gedf2+0x66>
    54e6:	1c29      	adds	r1, r5, #0
    54e8:	4311      	orrs	r1, r2
    54ea:	d102      	bne.n	54f2 <__gedf2+0xae>
    54ec:	2e00      	cmp	r6, #0
    54ee:	d0c2      	beq.n	5476 <__gedf2+0x32>
    54f0:	e7d4      	b.n	549c <__gedf2+0x58>
    54f2:	2002      	movs	r0, #2
    54f4:	4240      	negs	r0, r0
    54f6:	e7d8      	b.n	54aa <__gedf2+0x66>
    54f8:	42af      	cmp	r7, r5
    54fa:	d8d1      	bhi.n	54a0 <__gedf2+0x5c>
    54fc:	d009      	beq.n	5512 <__gedf2+0xce>
    54fe:	2000      	movs	r0, #0
    5500:	42af      	cmp	r7, r5
    5502:	d2d2      	bcs.n	54aa <__gedf2+0x66>
    5504:	4650      	mov	r0, sl
    5506:	4241      	negs	r1, r0
    5508:	4148      	adcs	r0, r1
    550a:	2301      	movs	r3, #1
    550c:	4240      	negs	r0, r0
    550e:	4318      	orrs	r0, r3
    5510:	e7cb      	b.n	54aa <__gedf2+0x66>
    5512:	45c4      	cmp	ip, r8
    5514:	d8c4      	bhi.n	54a0 <__gedf2+0x5c>
    5516:	2000      	movs	r0, #0
    5518:	45c4      	cmp	ip, r8
    551a:	d3f3      	bcc.n	5504 <__gedf2+0xc0>
    551c:	e7c5      	b.n	54aa <__gedf2+0x66>
    551e:	46c0      	nop			; (mov r8, r8)
    5520:	000007ff 	.word	0x000007ff

00005524 <__ledf2>:
    5524:	b5f0      	push	{r4, r5, r6, r7, lr}
    5526:	465f      	mov	r7, fp
    5528:	464d      	mov	r5, r9
    552a:	4644      	mov	r4, r8
    552c:	4656      	mov	r6, sl
    552e:	4680      	mov	r8, r0
    5530:	b4f0      	push	{r4, r5, r6, r7}
    5532:	1c06      	adds	r6, r0, #0
    5534:	0308      	lsls	r0, r1, #12
    5536:	0b00      	lsrs	r0, r0, #12
    5538:	4684      	mov	ip, r0
    553a:	482c      	ldr	r0, [pc, #176]	; (55ec <__ledf2+0xc8>)
    553c:	004c      	lsls	r4, r1, #1
    553e:	031f      	lsls	r7, r3, #12
    5540:	005d      	lsls	r5, r3, #1
    5542:	0fc9      	lsrs	r1, r1, #31
    5544:	0d64      	lsrs	r4, r4, #21
    5546:	468b      	mov	fp, r1
    5548:	4691      	mov	r9, r2
    554a:	0b3f      	lsrs	r7, r7, #12
    554c:	0d6d      	lsrs	r5, r5, #21
    554e:	0fdb      	lsrs	r3, r3, #31
    5550:	4284      	cmp	r4, r0
    5552:	d012      	beq.n	557a <__ledf2+0x56>
    5554:	4285      	cmp	r5, r0
    5556:	d025      	beq.n	55a4 <__ledf2+0x80>
    5558:	2c00      	cmp	r4, #0
    555a:	d114      	bne.n	5586 <__ledf2+0x62>
    555c:	4661      	mov	r1, ip
    555e:	430e      	orrs	r6, r1
    5560:	4270      	negs	r0, r6
    5562:	4146      	adcs	r6, r0
    5564:	2d00      	cmp	r5, #0
    5566:	d035      	beq.n	55d4 <__ledf2+0xb0>
    5568:	2e00      	cmp	r6, #0
    556a:	d021      	beq.n	55b0 <__ledf2+0x8c>
    556c:	4258      	negs	r0, r3
    556e:	4158      	adcs	r0, r3
    5570:	2101      	movs	r1, #1
    5572:	4243      	negs	r3, r0
    5574:	430b      	orrs	r3, r1
    5576:	1c18      	adds	r0, r3, #0
    5578:	e00e      	b.n	5598 <__ledf2+0x74>
    557a:	4661      	mov	r1, ip
    557c:	2002      	movs	r0, #2
    557e:	4331      	orrs	r1, r6
    5580:	d10a      	bne.n	5598 <__ledf2+0x74>
    5582:	42a5      	cmp	r5, r4
    5584:	d00e      	beq.n	55a4 <__ledf2+0x80>
    5586:	2d00      	cmp	r5, #0
    5588:	d112      	bne.n	55b0 <__ledf2+0x8c>
    558a:	433a      	orrs	r2, r7
    558c:	d110      	bne.n	55b0 <__ledf2+0x8c>
    558e:	465b      	mov	r3, fp
    5590:	4259      	negs	r1, r3
    5592:	2301      	movs	r3, #1
    5594:	4319      	orrs	r1, r3
    5596:	1c08      	adds	r0, r1, #0
    5598:	bc3c      	pop	{r2, r3, r4, r5}
    559a:	4690      	mov	r8, r2
    559c:	4699      	mov	r9, r3
    559e:	46a2      	mov	sl, r4
    55a0:	46ab      	mov	fp, r5
    55a2:	bdf0      	pop	{r4, r5, r6, r7, pc}
    55a4:	1c39      	adds	r1, r7, #0
    55a6:	2002      	movs	r0, #2
    55a8:	4311      	orrs	r1, r2
    55aa:	d1f5      	bne.n	5598 <__ledf2+0x74>
    55ac:	2c00      	cmp	r4, #0
    55ae:	d0d5      	beq.n	555c <__ledf2+0x38>
    55b0:	459b      	cmp	fp, r3
    55b2:	d1ec      	bne.n	558e <__ledf2+0x6a>
    55b4:	42ac      	cmp	r4, r5
    55b6:	dcea      	bgt.n	558e <__ledf2+0x6a>
    55b8:	db05      	blt.n	55c6 <__ledf2+0xa2>
    55ba:	45bc      	cmp	ip, r7
    55bc:	d8e7      	bhi.n	558e <__ledf2+0x6a>
    55be:	d00f      	beq.n	55e0 <__ledf2+0xbc>
    55c0:	2000      	movs	r0, #0
    55c2:	45bc      	cmp	ip, r7
    55c4:	d2e8      	bcs.n	5598 <__ledf2+0x74>
    55c6:	4658      	mov	r0, fp
    55c8:	4241      	negs	r1, r0
    55ca:	4148      	adcs	r0, r1
    55cc:	4241      	negs	r1, r0
    55ce:	2001      	movs	r0, #1
    55d0:	4308      	orrs	r0, r1
    55d2:	e7e1      	b.n	5598 <__ledf2+0x74>
    55d4:	433a      	orrs	r2, r7
    55d6:	d1c7      	bne.n	5568 <__ledf2+0x44>
    55d8:	2000      	movs	r0, #0
    55da:	2e00      	cmp	r6, #0
    55dc:	d1dc      	bne.n	5598 <__ledf2+0x74>
    55de:	e7d6      	b.n	558e <__ledf2+0x6a>
    55e0:	45c8      	cmp	r8, r9
    55e2:	d8d4      	bhi.n	558e <__ledf2+0x6a>
    55e4:	2000      	movs	r0, #0
    55e6:	45c8      	cmp	r8, r9
    55e8:	d3ed      	bcc.n	55c6 <__ledf2+0xa2>
    55ea:	e7d5      	b.n	5598 <__ledf2+0x74>
    55ec:	000007ff 	.word	0x000007ff

000055f0 <__aeabi_dmul>:
    55f0:	b5f0      	push	{r4, r5, r6, r7, lr}
    55f2:	465f      	mov	r7, fp
    55f4:	4656      	mov	r6, sl
    55f6:	464d      	mov	r5, r9
    55f8:	4644      	mov	r4, r8
    55fa:	b4f0      	push	{r4, r5, r6, r7}
    55fc:	1c05      	adds	r5, r0, #0
    55fe:	1c06      	adds	r6, r0, #0
    5600:	0308      	lsls	r0, r1, #12
    5602:	b087      	sub	sp, #28
    5604:	4699      	mov	r9, r3
    5606:	004f      	lsls	r7, r1, #1
    5608:	0b03      	lsrs	r3, r0, #12
    560a:	0fcc      	lsrs	r4, r1, #31
    560c:	4692      	mov	sl, r2
    560e:	469b      	mov	fp, r3
    5610:	0d7f      	lsrs	r7, r7, #21
    5612:	9401      	str	r4, [sp, #4]
    5614:	d067      	beq.n	56e6 <__aeabi_dmul+0xf6>
    5616:	4b6c      	ldr	r3, [pc, #432]	; (57c8 <__aeabi_dmul+0x1d8>)
    5618:	429f      	cmp	r7, r3
    561a:	d036      	beq.n	568a <__aeabi_dmul+0x9a>
    561c:	2080      	movs	r0, #128	; 0x80
    561e:	465b      	mov	r3, fp
    5620:	0340      	lsls	r0, r0, #13
    5622:	4318      	orrs	r0, r3
    5624:	00c0      	lsls	r0, r0, #3
    5626:	0f6b      	lsrs	r3, r5, #29
    5628:	4318      	orrs	r0, r3
    562a:	4b68      	ldr	r3, [pc, #416]	; (57cc <__aeabi_dmul+0x1dc>)
    562c:	4683      	mov	fp, r0
    562e:	469c      	mov	ip, r3
    5630:	2300      	movs	r3, #0
    5632:	4698      	mov	r8, r3
    5634:	00ee      	lsls	r6, r5, #3
    5636:	4467      	add	r7, ip
    5638:	9300      	str	r3, [sp, #0]
    563a:	464b      	mov	r3, r9
    563c:	4649      	mov	r1, r9
    563e:	031d      	lsls	r5, r3, #12
    5640:	0fc9      	lsrs	r1, r1, #31
    5642:	005b      	lsls	r3, r3, #1
    5644:	4652      	mov	r2, sl
    5646:	0b2d      	lsrs	r5, r5, #12
    5648:	0d5b      	lsrs	r3, r3, #21
    564a:	4689      	mov	r9, r1
    564c:	d100      	bne.n	5650 <__aeabi_dmul+0x60>
    564e:	e06e      	b.n	572e <__aeabi_dmul+0x13e>
    5650:	495d      	ldr	r1, [pc, #372]	; (57c8 <__aeabi_dmul+0x1d8>)
    5652:	428b      	cmp	r3, r1
    5654:	d064      	beq.n	5720 <__aeabi_dmul+0x130>
    5656:	2080      	movs	r0, #128	; 0x80
    5658:	495c      	ldr	r1, [pc, #368]	; (57cc <__aeabi_dmul+0x1dc>)
    565a:	0340      	lsls	r0, r0, #13
    565c:	468c      	mov	ip, r1
    565e:	2100      	movs	r1, #0
    5660:	4305      	orrs	r5, r0
    5662:	00ed      	lsls	r5, r5, #3
    5664:	0f50      	lsrs	r0, r2, #29
    5666:	4305      	orrs	r5, r0
    5668:	00d2      	lsls	r2, r2, #3
    566a:	4463      	add	r3, ip
    566c:	4648      	mov	r0, r9
    566e:	18ff      	adds	r7, r7, r3
    5670:	1c7b      	adds	r3, r7, #1
    5672:	469a      	mov	sl, r3
    5674:	9b00      	ldr	r3, [sp, #0]
    5676:	4060      	eors	r0, r4
    5678:	9002      	str	r0, [sp, #8]
    567a:	430b      	orrs	r3, r1
    567c:	2b0f      	cmp	r3, #15
    567e:	d900      	bls.n	5682 <__aeabi_dmul+0x92>
    5680:	e0ac      	b.n	57dc <__aeabi_dmul+0x1ec>
    5682:	4853      	ldr	r0, [pc, #332]	; (57d0 <__aeabi_dmul+0x1e0>)
    5684:	009b      	lsls	r3, r3, #2
    5686:	58c3      	ldr	r3, [r0, r3]
    5688:	469f      	mov	pc, r3
    568a:	465b      	mov	r3, fp
    568c:	431d      	orrs	r5, r3
    568e:	d000      	beq.n	5692 <__aeabi_dmul+0xa2>
    5690:	e082      	b.n	5798 <__aeabi_dmul+0x1a8>
    5692:	2308      	movs	r3, #8
    5694:	9300      	str	r3, [sp, #0]
    5696:	2300      	movs	r3, #0
    5698:	469b      	mov	fp, r3
    569a:	3302      	adds	r3, #2
    569c:	2600      	movs	r6, #0
    569e:	4698      	mov	r8, r3
    56a0:	e7cb      	b.n	563a <__aeabi_dmul+0x4a>
    56a2:	9b02      	ldr	r3, [sp, #8]
    56a4:	9301      	str	r3, [sp, #4]
    56a6:	4643      	mov	r3, r8
    56a8:	2b02      	cmp	r3, #2
    56aa:	d159      	bne.n	5760 <__aeabi_dmul+0x170>
    56ac:	2401      	movs	r4, #1
    56ae:	2500      	movs	r5, #0
    56b0:	2600      	movs	r6, #0
    56b2:	9b01      	ldr	r3, [sp, #4]
    56b4:	401c      	ands	r4, r3
    56b6:	4b44      	ldr	r3, [pc, #272]	; (57c8 <__aeabi_dmul+0x1d8>)
    56b8:	2100      	movs	r1, #0
    56ba:	032d      	lsls	r5, r5, #12
    56bc:	0d0a      	lsrs	r2, r1, #20
    56be:	0512      	lsls	r2, r2, #20
    56c0:	0b2d      	lsrs	r5, r5, #12
    56c2:	4315      	orrs	r5, r2
    56c4:	4a43      	ldr	r2, [pc, #268]	; (57d4 <__aeabi_dmul+0x1e4>)
    56c6:	051b      	lsls	r3, r3, #20
    56c8:	4015      	ands	r5, r2
    56ca:	431d      	orrs	r5, r3
    56cc:	006d      	lsls	r5, r5, #1
    56ce:	07e4      	lsls	r4, r4, #31
    56d0:	086d      	lsrs	r5, r5, #1
    56d2:	4325      	orrs	r5, r4
    56d4:	1c30      	adds	r0, r6, #0
    56d6:	1c29      	adds	r1, r5, #0
    56d8:	b007      	add	sp, #28
    56da:	bc3c      	pop	{r2, r3, r4, r5}
    56dc:	4690      	mov	r8, r2
    56de:	4699      	mov	r9, r3
    56e0:	46a2      	mov	sl, r4
    56e2:	46ab      	mov	fp, r5
    56e4:	bdf0      	pop	{r4, r5, r6, r7, pc}
    56e6:	432b      	orrs	r3, r5
    56e8:	d04e      	beq.n	5788 <__aeabi_dmul+0x198>
    56ea:	465b      	mov	r3, fp
    56ec:	2b00      	cmp	r3, #0
    56ee:	d100      	bne.n	56f2 <__aeabi_dmul+0x102>
    56f0:	e185      	b.n	59fe <__aeabi_dmul+0x40e>
    56f2:	4658      	mov	r0, fp
    56f4:	f000 feb0 	bl	6458 <__clzsi2>
    56f8:	1c02      	adds	r2, r0, #0
    56fa:	2328      	movs	r3, #40	; 0x28
    56fc:	1c29      	adds	r1, r5, #0
    56fe:	1a9b      	subs	r3, r3, r2
    5700:	1c16      	adds	r6, r2, #0
    5702:	4658      	mov	r0, fp
    5704:	40d9      	lsrs	r1, r3
    5706:	3e08      	subs	r6, #8
    5708:	40b0      	lsls	r0, r6
    570a:	1c0b      	adds	r3, r1, #0
    570c:	40b5      	lsls	r5, r6
    570e:	4303      	orrs	r3, r0
    5710:	469b      	mov	fp, r3
    5712:	1c2e      	adds	r6, r5, #0
    5714:	2300      	movs	r3, #0
    5716:	4f30      	ldr	r7, [pc, #192]	; (57d8 <__aeabi_dmul+0x1e8>)
    5718:	9300      	str	r3, [sp, #0]
    571a:	1abf      	subs	r7, r7, r2
    571c:	4698      	mov	r8, r3
    571e:	e78c      	b.n	563a <__aeabi_dmul+0x4a>
    5720:	4651      	mov	r1, sl
    5722:	4329      	orrs	r1, r5
    5724:	d12e      	bne.n	5784 <__aeabi_dmul+0x194>
    5726:	2500      	movs	r5, #0
    5728:	2200      	movs	r2, #0
    572a:	2102      	movs	r1, #2
    572c:	e79e      	b.n	566c <__aeabi_dmul+0x7c>
    572e:	4651      	mov	r1, sl
    5730:	4329      	orrs	r1, r5
    5732:	d023      	beq.n	577c <__aeabi_dmul+0x18c>
    5734:	2d00      	cmp	r5, #0
    5736:	d100      	bne.n	573a <__aeabi_dmul+0x14a>
    5738:	e154      	b.n	59e4 <__aeabi_dmul+0x3f4>
    573a:	1c28      	adds	r0, r5, #0
    573c:	f000 fe8c 	bl	6458 <__clzsi2>
    5740:	1c03      	adds	r3, r0, #0
    5742:	2128      	movs	r1, #40	; 0x28
    5744:	4650      	mov	r0, sl
    5746:	1ac9      	subs	r1, r1, r3
    5748:	1c1a      	adds	r2, r3, #0
    574a:	40c8      	lsrs	r0, r1
    574c:	4651      	mov	r1, sl
    574e:	3a08      	subs	r2, #8
    5750:	4091      	lsls	r1, r2
    5752:	4095      	lsls	r5, r2
    5754:	1c0a      	adds	r2, r1, #0
    5756:	4305      	orrs	r5, r0
    5758:	481f      	ldr	r0, [pc, #124]	; (57d8 <__aeabi_dmul+0x1e8>)
    575a:	2100      	movs	r1, #0
    575c:	1ac3      	subs	r3, r0, r3
    575e:	e785      	b.n	566c <__aeabi_dmul+0x7c>
    5760:	2b03      	cmp	r3, #3
    5762:	d100      	bne.n	5766 <__aeabi_dmul+0x176>
    5764:	e1c2      	b.n	5aec <__aeabi_dmul+0x4fc>
    5766:	2b01      	cmp	r3, #1
    5768:	d000      	beq.n	576c <__aeabi_dmul+0x17c>
    576a:	e16d      	b.n	5a48 <__aeabi_dmul+0x458>
    576c:	4644      	mov	r4, r8
    576e:	9b01      	ldr	r3, [sp, #4]
    5770:	2500      	movs	r5, #0
    5772:	401c      	ands	r4, r3
    5774:	b2e4      	uxtb	r4, r4
    5776:	2300      	movs	r3, #0
    5778:	2600      	movs	r6, #0
    577a:	e79d      	b.n	56b8 <__aeabi_dmul+0xc8>
    577c:	2500      	movs	r5, #0
    577e:	2200      	movs	r2, #0
    5780:	2101      	movs	r1, #1
    5782:	e773      	b.n	566c <__aeabi_dmul+0x7c>
    5784:	2103      	movs	r1, #3
    5786:	e771      	b.n	566c <__aeabi_dmul+0x7c>
    5788:	2304      	movs	r3, #4
    578a:	9300      	str	r3, [sp, #0]
    578c:	2300      	movs	r3, #0
    578e:	469b      	mov	fp, r3
    5790:	3301      	adds	r3, #1
    5792:	2600      	movs	r6, #0
    5794:	4698      	mov	r8, r3
    5796:	e750      	b.n	563a <__aeabi_dmul+0x4a>
    5798:	230c      	movs	r3, #12
    579a:	9300      	str	r3, [sp, #0]
    579c:	3b09      	subs	r3, #9
    579e:	4698      	mov	r8, r3
    57a0:	e74b      	b.n	563a <__aeabi_dmul+0x4a>
    57a2:	2580      	movs	r5, #128	; 0x80
    57a4:	2400      	movs	r4, #0
    57a6:	032d      	lsls	r5, r5, #12
    57a8:	2600      	movs	r6, #0
    57aa:	4b07      	ldr	r3, [pc, #28]	; (57c8 <__aeabi_dmul+0x1d8>)
    57ac:	e784      	b.n	56b8 <__aeabi_dmul+0xc8>
    57ae:	464b      	mov	r3, r9
    57b0:	46ab      	mov	fp, r5
    57b2:	1c16      	adds	r6, r2, #0
    57b4:	9301      	str	r3, [sp, #4]
    57b6:	4688      	mov	r8, r1
    57b8:	e775      	b.n	56a6 <__aeabi_dmul+0xb6>
    57ba:	9b02      	ldr	r3, [sp, #8]
    57bc:	46ab      	mov	fp, r5
    57be:	1c16      	adds	r6, r2, #0
    57c0:	9301      	str	r3, [sp, #4]
    57c2:	4688      	mov	r8, r1
    57c4:	e76f      	b.n	56a6 <__aeabi_dmul+0xb6>
    57c6:	46c0      	nop			; (mov r8, r8)
    57c8:	000007ff 	.word	0x000007ff
    57cc:	fffffc01 	.word	0xfffffc01
    57d0:	00007760 	.word	0x00007760
    57d4:	800fffff 	.word	0x800fffff
    57d8:	fffffc0d 	.word	0xfffffc0d
    57dc:	0c33      	lsrs	r3, r6, #16
    57de:	0436      	lsls	r6, r6, #16
    57e0:	0c36      	lsrs	r6, r6, #16
    57e2:	469c      	mov	ip, r3
    57e4:	1c33      	adds	r3, r6, #0
    57e6:	0c14      	lsrs	r4, r2, #16
    57e8:	0412      	lsls	r2, r2, #16
    57ea:	0c12      	lsrs	r2, r2, #16
    57ec:	4353      	muls	r3, r2
    57ee:	4698      	mov	r8, r3
    57f0:	4663      	mov	r3, ip
    57f2:	4353      	muls	r3, r2
    57f4:	4699      	mov	r9, r3
    57f6:	4663      	mov	r3, ip
    57f8:	4363      	muls	r3, r4
    57fa:	9301      	str	r3, [sp, #4]
    57fc:	1c33      	adds	r3, r6, #0
    57fe:	4641      	mov	r1, r8
    5800:	4363      	muls	r3, r4
    5802:	0c09      	lsrs	r1, r1, #16
    5804:	444b      	add	r3, r9
    5806:	185b      	adds	r3, r3, r1
    5808:	4599      	cmp	r9, r3
    580a:	d905      	bls.n	5818 <__aeabi_dmul+0x228>
    580c:	2080      	movs	r0, #128	; 0x80
    580e:	0240      	lsls	r0, r0, #9
    5810:	4681      	mov	r9, r0
    5812:	9901      	ldr	r1, [sp, #4]
    5814:	4449      	add	r1, r9
    5816:	9101      	str	r1, [sp, #4]
    5818:	0c19      	lsrs	r1, r3, #16
    581a:	9103      	str	r1, [sp, #12]
    581c:	4641      	mov	r1, r8
    581e:	0409      	lsls	r1, r1, #16
    5820:	0c09      	lsrs	r1, r1, #16
    5822:	041b      	lsls	r3, r3, #16
    5824:	185b      	adds	r3, r3, r1
    5826:	9304      	str	r3, [sp, #16]
    5828:	0c2b      	lsrs	r3, r5, #16
    582a:	4698      	mov	r8, r3
    582c:	1c33      	adds	r3, r6, #0
    582e:	042d      	lsls	r5, r5, #16
    5830:	0c29      	lsrs	r1, r5, #16
    5832:	434b      	muls	r3, r1
    5834:	4660      	mov	r0, ip
    5836:	9300      	str	r3, [sp, #0]
    5838:	4643      	mov	r3, r8
    583a:	4665      	mov	r5, ip
    583c:	4358      	muls	r0, r3
    583e:	435e      	muls	r6, r3
    5840:	9b00      	ldr	r3, [sp, #0]
    5842:	434d      	muls	r5, r1
    5844:	0c1b      	lsrs	r3, r3, #16
    5846:	4699      	mov	r9, r3
    5848:	19ae      	adds	r6, r5, r6
    584a:	444e      	add	r6, r9
    584c:	4684      	mov	ip, r0
    584e:	42b5      	cmp	r5, r6
    5850:	d903      	bls.n	585a <__aeabi_dmul+0x26a>
    5852:	2380      	movs	r3, #128	; 0x80
    5854:	025b      	lsls	r3, r3, #9
    5856:	4699      	mov	r9, r3
    5858:	44cc      	add	ip, r9
    585a:	0c35      	lsrs	r5, r6, #16
    585c:	1c2b      	adds	r3, r5, #0
    585e:	9803      	ldr	r0, [sp, #12]
    5860:	4463      	add	r3, ip
    5862:	4684      	mov	ip, r0
    5864:	9305      	str	r3, [sp, #20]
    5866:	9b00      	ldr	r3, [sp, #0]
    5868:	0436      	lsls	r6, r6, #16
    586a:	041b      	lsls	r3, r3, #16
    586c:	0c1b      	lsrs	r3, r3, #16
    586e:	18f3      	adds	r3, r6, r3
    5870:	449c      	add	ip, r3
    5872:	4660      	mov	r0, ip
    5874:	9003      	str	r0, [sp, #12]
    5876:	4658      	mov	r0, fp
    5878:	0405      	lsls	r5, r0, #16
    587a:	0c06      	lsrs	r6, r0, #16
    587c:	0c28      	lsrs	r0, r5, #16
    587e:	4684      	mov	ip, r0
    5880:	4350      	muls	r0, r2
    5882:	1c35      	adds	r5, r6, #0
    5884:	4681      	mov	r9, r0
    5886:	4660      	mov	r0, ip
    5888:	4365      	muls	r5, r4
    588a:	4344      	muls	r4, r0
    588c:	4648      	mov	r0, r9
    588e:	0c00      	lsrs	r0, r0, #16
    5890:	4683      	mov	fp, r0
    5892:	4372      	muls	r2, r6
    5894:	1914      	adds	r4, r2, r4
    5896:	445c      	add	r4, fp
    5898:	42a2      	cmp	r2, r4
    589a:	d903      	bls.n	58a4 <__aeabi_dmul+0x2b4>
    589c:	2280      	movs	r2, #128	; 0x80
    589e:	0252      	lsls	r2, r2, #9
    58a0:	4693      	mov	fp, r2
    58a2:	445d      	add	r5, fp
    58a4:	0c22      	lsrs	r2, r4, #16
    58a6:	18ad      	adds	r5, r5, r2
    58a8:	464a      	mov	r2, r9
    58aa:	0412      	lsls	r2, r2, #16
    58ac:	0c12      	lsrs	r2, r2, #16
    58ae:	0424      	lsls	r4, r4, #16
    58b0:	4640      	mov	r0, r8
    58b2:	18a4      	adds	r4, r4, r2
    58b4:	4662      	mov	r2, ip
    58b6:	434a      	muls	r2, r1
    58b8:	4371      	muls	r1, r6
    58ba:	4346      	muls	r6, r0
    58bc:	4660      	mov	r0, ip
    58be:	9600      	str	r6, [sp, #0]
    58c0:	4646      	mov	r6, r8
    58c2:	4370      	muls	r0, r6
    58c4:	4680      	mov	r8, r0
    58c6:	0c10      	lsrs	r0, r2, #16
    58c8:	4684      	mov	ip, r0
    58ca:	4488      	add	r8, r1
    58cc:	44e0      	add	r8, ip
    58ce:	4541      	cmp	r1, r8
    58d0:	d905      	bls.n	58de <__aeabi_dmul+0x2ee>
    58d2:	2180      	movs	r1, #128	; 0x80
    58d4:	0249      	lsls	r1, r1, #9
    58d6:	468c      	mov	ip, r1
    58d8:	9900      	ldr	r1, [sp, #0]
    58da:	4461      	add	r1, ip
    58dc:	9100      	str	r1, [sp, #0]
    58de:	9801      	ldr	r0, [sp, #4]
    58e0:	9903      	ldr	r1, [sp, #12]
    58e2:	4684      	mov	ip, r0
    58e4:	4461      	add	r1, ip
    58e6:	4299      	cmp	r1, r3
    58e8:	419b      	sbcs	r3, r3
    58ea:	425b      	negs	r3, r3
    58ec:	4699      	mov	r9, r3
    58ee:	9805      	ldr	r0, [sp, #20]
    58f0:	4643      	mov	r3, r8
    58f2:	4684      	mov	ip, r0
    58f4:	0412      	lsls	r2, r2, #16
    58f6:	0c12      	lsrs	r2, r2, #16
    58f8:	041b      	lsls	r3, r3, #16
    58fa:	189b      	adds	r3, r3, r2
    58fc:	4463      	add	r3, ip
    58fe:	469c      	mov	ip, r3
    5900:	46ab      	mov	fp, r5
    5902:	4283      	cmp	r3, r0
    5904:	419b      	sbcs	r3, r3
    5906:	4640      	mov	r0, r8
    5908:	190a      	adds	r2, r1, r4
    590a:	44cc      	add	ip, r9
    590c:	42a2      	cmp	r2, r4
    590e:	4189      	sbcs	r1, r1
    5910:	44e3      	add	fp, ip
    5912:	45cc      	cmp	ip, r9
    5914:	41b6      	sbcs	r6, r6
    5916:	465c      	mov	r4, fp
    5918:	0c00      	lsrs	r0, r0, #16
    591a:	4680      	mov	r8, r0
    591c:	4249      	negs	r1, r1
    591e:	4276      	negs	r6, r6
    5920:	425b      	negs	r3, r3
    5922:	1864      	adds	r4, r4, r1
    5924:	4333      	orrs	r3, r6
    5926:	4498      	add	r8, r3
    5928:	428c      	cmp	r4, r1
    592a:	4189      	sbcs	r1, r1
    592c:	45ab      	cmp	fp, r5
    592e:	419b      	sbcs	r3, r3
    5930:	4249      	negs	r1, r1
    5932:	425b      	negs	r3, r3
    5934:	4319      	orrs	r1, r3
    5936:	1c0d      	adds	r5, r1, #0
    5938:	9b00      	ldr	r3, [sp, #0]
    593a:	4445      	add	r5, r8
    593c:	18ee      	adds	r6, r5, r3
    593e:	0276      	lsls	r6, r6, #9
    5940:	0de5      	lsrs	r5, r4, #23
    5942:	432e      	orrs	r6, r5
    5944:	46b3      	mov	fp, r6
    5946:	9b04      	ldr	r3, [sp, #16]
    5948:	0256      	lsls	r6, r2, #9
    594a:	431e      	orrs	r6, r3
    594c:	1e73      	subs	r3, r6, #1
    594e:	419e      	sbcs	r6, r3
    5950:	465b      	mov	r3, fp
    5952:	0dd2      	lsrs	r2, r2, #23
    5954:	4332      	orrs	r2, r6
    5956:	0266      	lsls	r6, r4, #9
    5958:	4316      	orrs	r6, r2
    595a:	01db      	lsls	r3, r3, #7
    595c:	d50a      	bpl.n	5974 <__aeabi_dmul+0x384>
    595e:	2301      	movs	r3, #1
    5960:	4033      	ands	r3, r6
    5962:	0876      	lsrs	r6, r6, #1
    5964:	431e      	orrs	r6, r3
    5966:	465b      	mov	r3, fp
    5968:	07db      	lsls	r3, r3, #31
    596a:	431e      	orrs	r6, r3
    596c:	465b      	mov	r3, fp
    596e:	085b      	lsrs	r3, r3, #1
    5970:	469b      	mov	fp, r3
    5972:	4657      	mov	r7, sl
    5974:	4b63      	ldr	r3, [pc, #396]	; (5b04 <__aeabi_dmul+0x514>)
    5976:	18fb      	adds	r3, r7, r3
    5978:	2b00      	cmp	r3, #0
    597a:	dd5a      	ble.n	5a32 <__aeabi_dmul+0x442>
    597c:	0772      	lsls	r2, r6, #29
    597e:	d009      	beq.n	5994 <__aeabi_dmul+0x3a4>
    5980:	220f      	movs	r2, #15
    5982:	4032      	ands	r2, r6
    5984:	2a04      	cmp	r2, #4
    5986:	d005      	beq.n	5994 <__aeabi_dmul+0x3a4>
    5988:	1d32      	adds	r2, r6, #4
    598a:	42b2      	cmp	r2, r6
    598c:	41b6      	sbcs	r6, r6
    598e:	4276      	negs	r6, r6
    5990:	44b3      	add	fp, r6
    5992:	1c16      	adds	r6, r2, #0
    5994:	465a      	mov	r2, fp
    5996:	01d2      	lsls	r2, r2, #7
    5998:	d506      	bpl.n	59a8 <__aeabi_dmul+0x3b8>
    599a:	465a      	mov	r2, fp
    599c:	4b5a      	ldr	r3, [pc, #360]	; (5b08 <__aeabi_dmul+0x518>)
    599e:	401a      	ands	r2, r3
    59a0:	2380      	movs	r3, #128	; 0x80
    59a2:	4693      	mov	fp, r2
    59a4:	00db      	lsls	r3, r3, #3
    59a6:	18fb      	adds	r3, r7, r3
    59a8:	4a58      	ldr	r2, [pc, #352]	; (5b0c <__aeabi_dmul+0x51c>)
    59aa:	4293      	cmp	r3, r2
    59ac:	dd34      	ble.n	5a18 <__aeabi_dmul+0x428>
    59ae:	2401      	movs	r4, #1
    59b0:	9b02      	ldr	r3, [sp, #8]
    59b2:	2500      	movs	r5, #0
    59b4:	401c      	ands	r4, r3
    59b6:	2600      	movs	r6, #0
    59b8:	4b55      	ldr	r3, [pc, #340]	; (5b10 <__aeabi_dmul+0x520>)
    59ba:	e67d      	b.n	56b8 <__aeabi_dmul+0xc8>
    59bc:	2080      	movs	r0, #128	; 0x80
    59be:	465b      	mov	r3, fp
    59c0:	0300      	lsls	r0, r0, #12
    59c2:	4203      	tst	r3, r0
    59c4:	d008      	beq.n	59d8 <__aeabi_dmul+0x3e8>
    59c6:	4205      	tst	r5, r0
    59c8:	d106      	bne.n	59d8 <__aeabi_dmul+0x3e8>
    59ca:	4305      	orrs	r5, r0
    59cc:	032d      	lsls	r5, r5, #12
    59ce:	0b2d      	lsrs	r5, r5, #12
    59d0:	464c      	mov	r4, r9
    59d2:	1c16      	adds	r6, r2, #0
    59d4:	4b4e      	ldr	r3, [pc, #312]	; (5b10 <__aeabi_dmul+0x520>)
    59d6:	e66f      	b.n	56b8 <__aeabi_dmul+0xc8>
    59d8:	465d      	mov	r5, fp
    59da:	4305      	orrs	r5, r0
    59dc:	032d      	lsls	r5, r5, #12
    59de:	0b2d      	lsrs	r5, r5, #12
    59e0:	4b4b      	ldr	r3, [pc, #300]	; (5b10 <__aeabi_dmul+0x520>)
    59e2:	e669      	b.n	56b8 <__aeabi_dmul+0xc8>
    59e4:	4650      	mov	r0, sl
    59e6:	f000 fd37 	bl	6458 <__clzsi2>
    59ea:	1c03      	adds	r3, r0, #0
    59ec:	3320      	adds	r3, #32
    59ee:	2b27      	cmp	r3, #39	; 0x27
    59f0:	dc00      	bgt.n	59f4 <__aeabi_dmul+0x404>
    59f2:	e6a6      	b.n	5742 <__aeabi_dmul+0x152>
    59f4:	4655      	mov	r5, sl
    59f6:	3808      	subs	r0, #8
    59f8:	4085      	lsls	r5, r0
    59fa:	2200      	movs	r2, #0
    59fc:	e6ac      	b.n	5758 <__aeabi_dmul+0x168>
    59fe:	1c28      	adds	r0, r5, #0
    5a00:	f000 fd2a 	bl	6458 <__clzsi2>
    5a04:	1c02      	adds	r2, r0, #0
    5a06:	3220      	adds	r2, #32
    5a08:	2a27      	cmp	r2, #39	; 0x27
    5a0a:	dc00      	bgt.n	5a0e <__aeabi_dmul+0x41e>
    5a0c:	e675      	b.n	56fa <__aeabi_dmul+0x10a>
    5a0e:	3808      	subs	r0, #8
    5a10:	4085      	lsls	r5, r0
    5a12:	2600      	movs	r6, #0
    5a14:	46ab      	mov	fp, r5
    5a16:	e67d      	b.n	5714 <__aeabi_dmul+0x124>
    5a18:	465a      	mov	r2, fp
    5a1a:	08f6      	lsrs	r6, r6, #3
    5a1c:	0752      	lsls	r2, r2, #29
    5a1e:	4316      	orrs	r6, r2
    5a20:	465a      	mov	r2, fp
    5a22:	2401      	movs	r4, #1
    5a24:	0255      	lsls	r5, r2, #9
    5a26:	9a02      	ldr	r2, [sp, #8]
    5a28:	055b      	lsls	r3, r3, #21
    5a2a:	0b2d      	lsrs	r5, r5, #12
    5a2c:	0d5b      	lsrs	r3, r3, #21
    5a2e:	4014      	ands	r4, r2
    5a30:	e642      	b.n	56b8 <__aeabi_dmul+0xc8>
    5a32:	4d38      	ldr	r5, [pc, #224]	; (5b14 <__aeabi_dmul+0x524>)
    5a34:	1bed      	subs	r5, r5, r7
    5a36:	2d38      	cmp	r5, #56	; 0x38
    5a38:	dd0a      	ble.n	5a50 <__aeabi_dmul+0x460>
    5a3a:	2401      	movs	r4, #1
    5a3c:	9b02      	ldr	r3, [sp, #8]
    5a3e:	2500      	movs	r5, #0
    5a40:	401c      	ands	r4, r3
    5a42:	2600      	movs	r6, #0
    5a44:	2300      	movs	r3, #0
    5a46:	e637      	b.n	56b8 <__aeabi_dmul+0xc8>
    5a48:	9b01      	ldr	r3, [sp, #4]
    5a4a:	4657      	mov	r7, sl
    5a4c:	9302      	str	r3, [sp, #8]
    5a4e:	e791      	b.n	5974 <__aeabi_dmul+0x384>
    5a50:	2d1f      	cmp	r5, #31
    5a52:	dc25      	bgt.n	5aa0 <__aeabi_dmul+0x4b0>
    5a54:	4b30      	ldr	r3, [pc, #192]	; (5b18 <__aeabi_dmul+0x528>)
    5a56:	1c32      	adds	r2, r6, #0
    5a58:	469c      	mov	ip, r3
    5a5a:	4467      	add	r7, ip
    5a5c:	40be      	lsls	r6, r7
    5a5e:	465b      	mov	r3, fp
    5a60:	40bb      	lsls	r3, r7
    5a62:	1c37      	adds	r7, r6, #0
    5a64:	40ea      	lsrs	r2, r5
    5a66:	1e7e      	subs	r6, r7, #1
    5a68:	41b7      	sbcs	r7, r6
    5a6a:	4313      	orrs	r3, r2
    5a6c:	433b      	orrs	r3, r7
    5a6e:	1c1e      	adds	r6, r3, #0
    5a70:	465b      	mov	r3, fp
    5a72:	40eb      	lsrs	r3, r5
    5a74:	1c1d      	adds	r5, r3, #0
    5a76:	0773      	lsls	r3, r6, #29
    5a78:	d009      	beq.n	5a8e <__aeabi_dmul+0x49e>
    5a7a:	230f      	movs	r3, #15
    5a7c:	4033      	ands	r3, r6
    5a7e:	2b04      	cmp	r3, #4
    5a80:	d005      	beq.n	5a8e <__aeabi_dmul+0x49e>
    5a82:	1d33      	adds	r3, r6, #4
    5a84:	42b3      	cmp	r3, r6
    5a86:	41b6      	sbcs	r6, r6
    5a88:	4276      	negs	r6, r6
    5a8a:	19ad      	adds	r5, r5, r6
    5a8c:	1c1e      	adds	r6, r3, #0
    5a8e:	022b      	lsls	r3, r5, #8
    5a90:	d520      	bpl.n	5ad4 <__aeabi_dmul+0x4e4>
    5a92:	2401      	movs	r4, #1
    5a94:	9b02      	ldr	r3, [sp, #8]
    5a96:	2500      	movs	r5, #0
    5a98:	401c      	ands	r4, r3
    5a9a:	2600      	movs	r6, #0
    5a9c:	2301      	movs	r3, #1
    5a9e:	e60b      	b.n	56b8 <__aeabi_dmul+0xc8>
    5aa0:	465a      	mov	r2, fp
    5aa2:	4b1e      	ldr	r3, [pc, #120]	; (5b1c <__aeabi_dmul+0x52c>)
    5aa4:	1bdb      	subs	r3, r3, r7
    5aa6:	40da      	lsrs	r2, r3
    5aa8:	1c13      	adds	r3, r2, #0
    5aaa:	2d20      	cmp	r5, #32
    5aac:	d01c      	beq.n	5ae8 <__aeabi_dmul+0x4f8>
    5aae:	4a1c      	ldr	r2, [pc, #112]	; (5b20 <__aeabi_dmul+0x530>)
    5ab0:	4694      	mov	ip, r2
    5ab2:	465a      	mov	r2, fp
    5ab4:	4467      	add	r7, ip
    5ab6:	40ba      	lsls	r2, r7
    5ab8:	1c17      	adds	r7, r2, #0
    5aba:	433e      	orrs	r6, r7
    5abc:	1e72      	subs	r2, r6, #1
    5abe:	4196      	sbcs	r6, r2
    5ac0:	431e      	orrs	r6, r3
    5ac2:	2307      	movs	r3, #7
    5ac4:	2500      	movs	r5, #0
    5ac6:	4033      	ands	r3, r6
    5ac8:	d007      	beq.n	5ada <__aeabi_dmul+0x4ea>
    5aca:	230f      	movs	r3, #15
    5acc:	2500      	movs	r5, #0
    5ace:	4033      	ands	r3, r6
    5ad0:	2b04      	cmp	r3, #4
    5ad2:	d1d6      	bne.n	5a82 <__aeabi_dmul+0x492>
    5ad4:	076b      	lsls	r3, r5, #29
    5ad6:	026d      	lsls	r5, r5, #9
    5ad8:	0b2d      	lsrs	r5, r5, #12
    5ada:	2401      	movs	r4, #1
    5adc:	08f6      	lsrs	r6, r6, #3
    5ade:	431e      	orrs	r6, r3
    5ae0:	9b02      	ldr	r3, [sp, #8]
    5ae2:	401c      	ands	r4, r3
    5ae4:	2300      	movs	r3, #0
    5ae6:	e5e7      	b.n	56b8 <__aeabi_dmul+0xc8>
    5ae8:	2700      	movs	r7, #0
    5aea:	e7e6      	b.n	5aba <__aeabi_dmul+0x4ca>
    5aec:	2580      	movs	r5, #128	; 0x80
    5aee:	465b      	mov	r3, fp
    5af0:	2401      	movs	r4, #1
    5af2:	032d      	lsls	r5, r5, #12
    5af4:	431d      	orrs	r5, r3
    5af6:	9b01      	ldr	r3, [sp, #4]
    5af8:	032d      	lsls	r5, r5, #12
    5afa:	4023      	ands	r3, r4
    5afc:	1c1c      	adds	r4, r3, #0
    5afe:	0b2d      	lsrs	r5, r5, #12
    5b00:	4b03      	ldr	r3, [pc, #12]	; (5b10 <__aeabi_dmul+0x520>)
    5b02:	e5d9      	b.n	56b8 <__aeabi_dmul+0xc8>
    5b04:	000003ff 	.word	0x000003ff
    5b08:	feffffff 	.word	0xfeffffff
    5b0c:	000007fe 	.word	0x000007fe
    5b10:	000007ff 	.word	0x000007ff
    5b14:	fffffc02 	.word	0xfffffc02
    5b18:	0000041e 	.word	0x0000041e
    5b1c:	fffffbe2 	.word	0xfffffbe2
    5b20:	0000043e 	.word	0x0000043e

00005b24 <__aeabi_dsub>:
    5b24:	b5f0      	push	{r4, r5, r6, r7, lr}
    5b26:	464d      	mov	r5, r9
    5b28:	4644      	mov	r4, r8
    5b2a:	465f      	mov	r7, fp
    5b2c:	4656      	mov	r6, sl
    5b2e:	b4f0      	push	{r4, r5, r6, r7}
    5b30:	1c0e      	adds	r6, r1, #0
    5b32:	1c11      	adds	r1, r2, #0
    5b34:	0332      	lsls	r2, r6, #12
    5b36:	0a52      	lsrs	r2, r2, #9
    5b38:	0f47      	lsrs	r7, r0, #29
    5b3a:	4317      	orrs	r7, r2
    5b3c:	00c5      	lsls	r5, r0, #3
    5b3e:	031a      	lsls	r2, r3, #12
    5b40:	0058      	lsls	r0, r3, #1
    5b42:	0fdb      	lsrs	r3, r3, #31
    5b44:	4699      	mov	r9, r3
    5b46:	0a52      	lsrs	r2, r2, #9
    5b48:	0f4b      	lsrs	r3, r1, #29
    5b4a:	b083      	sub	sp, #12
    5b4c:	431a      	orrs	r2, r3
    5b4e:	00cb      	lsls	r3, r1, #3
    5b50:	9301      	str	r3, [sp, #4]
    5b52:	4bcf      	ldr	r3, [pc, #828]	; (5e90 <__aeabi_dsub+0x36c>)
    5b54:	0074      	lsls	r4, r6, #1
    5b56:	0ff6      	lsrs	r6, r6, #31
    5b58:	0d64      	lsrs	r4, r4, #21
    5b5a:	46b0      	mov	r8, r6
    5b5c:	0d40      	lsrs	r0, r0, #21
    5b5e:	4298      	cmp	r0, r3
    5b60:	d100      	bne.n	5b64 <__aeabi_dsub+0x40>
    5b62:	e0e8      	b.n	5d36 <__aeabi_dsub+0x212>
    5b64:	2301      	movs	r3, #1
    5b66:	4649      	mov	r1, r9
    5b68:	4059      	eors	r1, r3
    5b6a:	1c0b      	adds	r3, r1, #0
    5b6c:	429e      	cmp	r6, r3
    5b6e:	d100      	bne.n	5b72 <__aeabi_dsub+0x4e>
    5b70:	e0b1      	b.n	5cd6 <__aeabi_dsub+0x1b2>
    5b72:	1a26      	subs	r6, r4, r0
    5b74:	2e00      	cmp	r6, #0
    5b76:	dc00      	bgt.n	5b7a <__aeabi_dsub+0x56>
    5b78:	e11c      	b.n	5db4 <__aeabi_dsub+0x290>
    5b7a:	2800      	cmp	r0, #0
    5b7c:	d142      	bne.n	5c04 <__aeabi_dsub+0xe0>
    5b7e:	1c13      	adds	r3, r2, #0
    5b80:	9901      	ldr	r1, [sp, #4]
    5b82:	430b      	orrs	r3, r1
    5b84:	d000      	beq.n	5b88 <__aeabi_dsub+0x64>
    5b86:	e0e6      	b.n	5d56 <__aeabi_dsub+0x232>
    5b88:	076b      	lsls	r3, r5, #29
    5b8a:	d100      	bne.n	5b8e <__aeabi_dsub+0x6a>
    5b8c:	e08e      	b.n	5cac <__aeabi_dsub+0x188>
    5b8e:	230f      	movs	r3, #15
    5b90:	402b      	ands	r3, r5
    5b92:	2b04      	cmp	r3, #4
    5b94:	d100      	bne.n	5b98 <__aeabi_dsub+0x74>
    5b96:	e089      	b.n	5cac <__aeabi_dsub+0x188>
    5b98:	1d2a      	adds	r2, r5, #4
    5b9a:	42aa      	cmp	r2, r5
    5b9c:	41ad      	sbcs	r5, r5
    5b9e:	2380      	movs	r3, #128	; 0x80
    5ba0:	2601      	movs	r6, #1
    5ba2:	4641      	mov	r1, r8
    5ba4:	426d      	negs	r5, r5
    5ba6:	197f      	adds	r7, r7, r5
    5ba8:	041b      	lsls	r3, r3, #16
    5baa:	403b      	ands	r3, r7
    5bac:	400e      	ands	r6, r1
    5bae:	1c15      	adds	r5, r2, #0
    5bb0:	2b00      	cmp	r3, #0
    5bb2:	d100      	bne.n	5bb6 <__aeabi_dsub+0x92>
    5bb4:	e083      	b.n	5cbe <__aeabi_dsub+0x19a>
    5bb6:	4bb6      	ldr	r3, [pc, #728]	; (5e90 <__aeabi_dsub+0x36c>)
    5bb8:	3401      	adds	r4, #1
    5bba:	429c      	cmp	r4, r3
    5bbc:	d100      	bne.n	5bc0 <__aeabi_dsub+0x9c>
    5bbe:	e116      	b.n	5dee <__aeabi_dsub+0x2ca>
    5bc0:	1c3a      	adds	r2, r7, #0
    5bc2:	4bb4      	ldr	r3, [pc, #720]	; (5e94 <__aeabi_dsub+0x370>)
    5bc4:	08ed      	lsrs	r5, r5, #3
    5bc6:	401a      	ands	r2, r3
    5bc8:	0750      	lsls	r0, r2, #29
    5bca:	0564      	lsls	r4, r4, #21
    5bcc:	0252      	lsls	r2, r2, #9
    5bce:	4305      	orrs	r5, r0
    5bd0:	0b12      	lsrs	r2, r2, #12
    5bd2:	0d64      	lsrs	r4, r4, #21
    5bd4:	2100      	movs	r1, #0
    5bd6:	0312      	lsls	r2, r2, #12
    5bd8:	0d0b      	lsrs	r3, r1, #20
    5bda:	051b      	lsls	r3, r3, #20
    5bdc:	0564      	lsls	r4, r4, #21
    5bde:	0b12      	lsrs	r2, r2, #12
    5be0:	431a      	orrs	r2, r3
    5be2:	0863      	lsrs	r3, r4, #1
    5be4:	4cac      	ldr	r4, [pc, #688]	; (5e98 <__aeabi_dsub+0x374>)
    5be6:	07f6      	lsls	r6, r6, #31
    5be8:	4014      	ands	r4, r2
    5bea:	431c      	orrs	r4, r3
    5bec:	0064      	lsls	r4, r4, #1
    5bee:	0864      	lsrs	r4, r4, #1
    5bf0:	4334      	orrs	r4, r6
    5bf2:	1c28      	adds	r0, r5, #0
    5bf4:	1c21      	adds	r1, r4, #0
    5bf6:	b003      	add	sp, #12
    5bf8:	bc3c      	pop	{r2, r3, r4, r5}
    5bfa:	4690      	mov	r8, r2
    5bfc:	4699      	mov	r9, r3
    5bfe:	46a2      	mov	sl, r4
    5c00:	46ab      	mov	fp, r5
    5c02:	bdf0      	pop	{r4, r5, r6, r7, pc}
    5c04:	4ba2      	ldr	r3, [pc, #648]	; (5e90 <__aeabi_dsub+0x36c>)
    5c06:	429c      	cmp	r4, r3
    5c08:	d0be      	beq.n	5b88 <__aeabi_dsub+0x64>
    5c0a:	2380      	movs	r3, #128	; 0x80
    5c0c:	041b      	lsls	r3, r3, #16
    5c0e:	431a      	orrs	r2, r3
    5c10:	2e38      	cmp	r6, #56	; 0x38
    5c12:	dd00      	ble.n	5c16 <__aeabi_dsub+0xf2>
    5c14:	e103      	b.n	5e1e <__aeabi_dsub+0x2fa>
    5c16:	2e1f      	cmp	r6, #31
    5c18:	dd00      	ble.n	5c1c <__aeabi_dsub+0xf8>
    5c1a:	e13f      	b.n	5e9c <__aeabi_dsub+0x378>
    5c1c:	2020      	movs	r0, #32
    5c1e:	1b83      	subs	r3, r0, r6
    5c20:	4699      	mov	r9, r3
    5c22:	1c13      	adds	r3, r2, #0
    5c24:	4649      	mov	r1, r9
    5c26:	408b      	lsls	r3, r1
    5c28:	469c      	mov	ip, r3
    5c2a:	9b01      	ldr	r3, [sp, #4]
    5c2c:	4660      	mov	r0, ip
    5c2e:	40f3      	lsrs	r3, r6
    5c30:	4303      	orrs	r3, r0
    5c32:	9801      	ldr	r0, [sp, #4]
    5c34:	40f2      	lsrs	r2, r6
    5c36:	4088      	lsls	r0, r1
    5c38:	1c01      	adds	r1, r0, #0
    5c3a:	1e48      	subs	r0, r1, #1
    5c3c:	4181      	sbcs	r1, r0
    5c3e:	430b      	orrs	r3, r1
    5c40:	1aeb      	subs	r3, r5, r3
    5c42:	429d      	cmp	r5, r3
    5c44:	4180      	sbcs	r0, r0
    5c46:	1c1d      	adds	r5, r3, #0
    5c48:	1aba      	subs	r2, r7, r2
    5c4a:	4240      	negs	r0, r0
    5c4c:	1a17      	subs	r7, r2, r0
    5c4e:	023b      	lsls	r3, r7, #8
    5c50:	d400      	bmi.n	5c54 <__aeabi_dsub+0x130>
    5c52:	e0a8      	b.n	5da6 <__aeabi_dsub+0x282>
    5c54:	027a      	lsls	r2, r7, #9
    5c56:	0a56      	lsrs	r6, r2, #9
    5c58:	2e00      	cmp	r6, #0
    5c5a:	d100      	bne.n	5c5e <__aeabi_dsub+0x13a>
    5c5c:	e0ca      	b.n	5df4 <__aeabi_dsub+0x2d0>
    5c5e:	1c30      	adds	r0, r6, #0
    5c60:	f000 fbfa 	bl	6458 <__clzsi2>
    5c64:	1c03      	adds	r3, r0, #0
    5c66:	3b08      	subs	r3, #8
    5c68:	2b1f      	cmp	r3, #31
    5c6a:	dd00      	ble.n	5c6e <__aeabi_dsub+0x14a>
    5c6c:	e0cb      	b.n	5e06 <__aeabi_dsub+0x2e2>
    5c6e:	2228      	movs	r2, #40	; 0x28
    5c70:	1c29      	adds	r1, r5, #0
    5c72:	1a12      	subs	r2, r2, r0
    5c74:	40d1      	lsrs	r1, r2
    5c76:	409e      	lsls	r6, r3
    5c78:	1c0a      	adds	r2, r1, #0
    5c7a:	409d      	lsls	r5, r3
    5c7c:	4332      	orrs	r2, r6
    5c7e:	429c      	cmp	r4, r3
    5c80:	dd00      	ble.n	5c84 <__aeabi_dsub+0x160>
    5c82:	e0c8      	b.n	5e16 <__aeabi_dsub+0x2f2>
    5c84:	1b1c      	subs	r4, r3, r4
    5c86:	1c67      	adds	r7, r4, #1
    5c88:	2f1f      	cmp	r7, #31
    5c8a:	dd00      	ble.n	5c8e <__aeabi_dsub+0x16a>
    5c8c:	e0ed      	b.n	5e6a <__aeabi_dsub+0x346>
    5c8e:	231f      	movs	r3, #31
    5c90:	1c29      	adds	r1, r5, #0
    5c92:	1b1c      	subs	r4, r3, r4
    5c94:	1c13      	adds	r3, r2, #0
    5c96:	40a5      	lsls	r5, r4
    5c98:	40a3      	lsls	r3, r4
    5c9a:	40f9      	lsrs	r1, r7
    5c9c:	1e6c      	subs	r4, r5, #1
    5c9e:	41a5      	sbcs	r5, r4
    5ca0:	40fa      	lsrs	r2, r7
    5ca2:	4319      	orrs	r1, r3
    5ca4:	430d      	orrs	r5, r1
    5ca6:	1c17      	adds	r7, r2, #0
    5ca8:	2400      	movs	r4, #0
    5caa:	e76d      	b.n	5b88 <__aeabi_dsub+0x64>
    5cac:	2380      	movs	r3, #128	; 0x80
    5cae:	2601      	movs	r6, #1
    5cb0:	4642      	mov	r2, r8
    5cb2:	041b      	lsls	r3, r3, #16
    5cb4:	403b      	ands	r3, r7
    5cb6:	4016      	ands	r6, r2
    5cb8:	2b00      	cmp	r3, #0
    5cba:	d000      	beq.n	5cbe <__aeabi_dsub+0x19a>
    5cbc:	e77b      	b.n	5bb6 <__aeabi_dsub+0x92>
    5cbe:	4b74      	ldr	r3, [pc, #464]	; (5e90 <__aeabi_dsub+0x36c>)
    5cc0:	08ed      	lsrs	r5, r5, #3
    5cc2:	0778      	lsls	r0, r7, #29
    5cc4:	4305      	orrs	r5, r0
    5cc6:	08fa      	lsrs	r2, r7, #3
    5cc8:	429c      	cmp	r4, r3
    5cca:	d03b      	beq.n	5d44 <__aeabi_dsub+0x220>
    5ccc:	0312      	lsls	r2, r2, #12
    5cce:	0564      	lsls	r4, r4, #21
    5cd0:	0b12      	lsrs	r2, r2, #12
    5cd2:	0d64      	lsrs	r4, r4, #21
    5cd4:	e77e      	b.n	5bd4 <__aeabi_dsub+0xb0>
    5cd6:	1a23      	subs	r3, r4, r0
    5cd8:	469a      	mov	sl, r3
    5cda:	2b00      	cmp	r3, #0
    5cdc:	dc00      	bgt.n	5ce0 <__aeabi_dsub+0x1bc>
    5cde:	e0a5      	b.n	5e2c <__aeabi_dsub+0x308>
    5ce0:	2800      	cmp	r0, #0
    5ce2:	d044      	beq.n	5d6e <__aeabi_dsub+0x24a>
    5ce4:	486a      	ldr	r0, [pc, #424]	; (5e90 <__aeabi_dsub+0x36c>)
    5ce6:	4284      	cmp	r4, r0
    5ce8:	d100      	bne.n	5cec <__aeabi_dsub+0x1c8>
    5cea:	e74d      	b.n	5b88 <__aeabi_dsub+0x64>
    5cec:	2080      	movs	r0, #128	; 0x80
    5cee:	0400      	lsls	r0, r0, #16
    5cf0:	4302      	orrs	r2, r0
    5cf2:	4653      	mov	r3, sl
    5cf4:	2b38      	cmp	r3, #56	; 0x38
    5cf6:	dc00      	bgt.n	5cfa <__aeabi_dsub+0x1d6>
    5cf8:	e11c      	b.n	5f34 <__aeabi_dsub+0x410>
    5cfa:	9b01      	ldr	r3, [sp, #4]
    5cfc:	431a      	orrs	r2, r3
    5cfe:	1e51      	subs	r1, r2, #1
    5d00:	418a      	sbcs	r2, r1
    5d02:	b2d1      	uxtb	r1, r2
    5d04:	2200      	movs	r2, #0
    5d06:	1949      	adds	r1, r1, r5
    5d08:	42a9      	cmp	r1, r5
    5d0a:	4180      	sbcs	r0, r0
    5d0c:	1c0d      	adds	r5, r1, #0
    5d0e:	19d2      	adds	r2, r2, r7
    5d10:	4240      	negs	r0, r0
    5d12:	1817      	adds	r7, r2, r0
    5d14:	023b      	lsls	r3, r7, #8
    5d16:	d546      	bpl.n	5da6 <__aeabi_dsub+0x282>
    5d18:	4b5d      	ldr	r3, [pc, #372]	; (5e90 <__aeabi_dsub+0x36c>)
    5d1a:	3401      	adds	r4, #1
    5d1c:	429c      	cmp	r4, r3
    5d1e:	d100      	bne.n	5d22 <__aeabi_dsub+0x1fe>
    5d20:	e169      	b.n	5ff6 <__aeabi_dsub+0x4d2>
    5d22:	2001      	movs	r0, #1
    5d24:	4a5b      	ldr	r2, [pc, #364]	; (5e94 <__aeabi_dsub+0x370>)
    5d26:	086b      	lsrs	r3, r5, #1
    5d28:	403a      	ands	r2, r7
    5d2a:	4028      	ands	r0, r5
    5d2c:	4318      	orrs	r0, r3
    5d2e:	07d5      	lsls	r5, r2, #31
    5d30:	4305      	orrs	r5, r0
    5d32:	0857      	lsrs	r7, r2, #1
    5d34:	e728      	b.n	5b88 <__aeabi_dsub+0x64>
    5d36:	1c13      	adds	r3, r2, #0
    5d38:	9901      	ldr	r1, [sp, #4]
    5d3a:	430b      	orrs	r3, r1
    5d3c:	d100      	bne.n	5d40 <__aeabi_dsub+0x21c>
    5d3e:	e711      	b.n	5b64 <__aeabi_dsub+0x40>
    5d40:	464b      	mov	r3, r9
    5d42:	e713      	b.n	5b6c <__aeabi_dsub+0x48>
    5d44:	1c2b      	adds	r3, r5, #0
    5d46:	4313      	orrs	r3, r2
    5d48:	d051      	beq.n	5dee <__aeabi_dsub+0x2ca>
    5d4a:	2380      	movs	r3, #128	; 0x80
    5d4c:	031b      	lsls	r3, r3, #12
    5d4e:	431a      	orrs	r2, r3
    5d50:	0312      	lsls	r2, r2, #12
    5d52:	0b12      	lsrs	r2, r2, #12
    5d54:	e73e      	b.n	5bd4 <__aeabi_dsub+0xb0>
    5d56:	3e01      	subs	r6, #1
    5d58:	2e00      	cmp	r6, #0
    5d5a:	d000      	beq.n	5d5e <__aeabi_dsub+0x23a>
    5d5c:	e080      	b.n	5e60 <__aeabi_dsub+0x33c>
    5d5e:	1a69      	subs	r1, r5, r1
    5d60:	428d      	cmp	r5, r1
    5d62:	419b      	sbcs	r3, r3
    5d64:	1aba      	subs	r2, r7, r2
    5d66:	425b      	negs	r3, r3
    5d68:	1ad7      	subs	r7, r2, r3
    5d6a:	1c0d      	adds	r5, r1, #0
    5d6c:	e76f      	b.n	5c4e <__aeabi_dsub+0x12a>
    5d6e:	1c10      	adds	r0, r2, #0
    5d70:	9b01      	ldr	r3, [sp, #4]
    5d72:	4318      	orrs	r0, r3
    5d74:	d100      	bne.n	5d78 <__aeabi_dsub+0x254>
    5d76:	e707      	b.n	5b88 <__aeabi_dsub+0x64>
    5d78:	2301      	movs	r3, #1
    5d7a:	425b      	negs	r3, r3
    5d7c:	469c      	mov	ip, r3
    5d7e:	44e2      	add	sl, ip
    5d80:	4653      	mov	r3, sl
    5d82:	2b00      	cmp	r3, #0
    5d84:	d000      	beq.n	5d88 <__aeabi_dsub+0x264>
    5d86:	e102      	b.n	5f8e <__aeabi_dsub+0x46a>
    5d88:	9b01      	ldr	r3, [sp, #4]
    5d8a:	19d2      	adds	r2, r2, r7
    5d8c:	1959      	adds	r1, r3, r5
    5d8e:	42a9      	cmp	r1, r5
    5d90:	419b      	sbcs	r3, r3
    5d92:	425b      	negs	r3, r3
    5d94:	18d7      	adds	r7, r2, r3
    5d96:	1c0d      	adds	r5, r1, #0
    5d98:	e7bc      	b.n	5d14 <__aeabi_dsub+0x1f0>
    5d9a:	4663      	mov	r3, ip
    5d9c:	4303      	orrs	r3, r0
    5d9e:	d100      	bne.n	5da2 <__aeabi_dsub+0x27e>
    5da0:	e128      	b.n	5ff4 <__aeabi_dsub+0x4d0>
    5da2:	1c07      	adds	r7, r0, #0
    5da4:	4665      	mov	r5, ip
    5da6:	076b      	lsls	r3, r5, #29
    5da8:	d000      	beq.n	5dac <__aeabi_dsub+0x288>
    5daa:	e6f0      	b.n	5b8e <__aeabi_dsub+0x6a>
    5dac:	2601      	movs	r6, #1
    5dae:	4643      	mov	r3, r8
    5db0:	401e      	ands	r6, r3
    5db2:	e784      	b.n	5cbe <__aeabi_dsub+0x19a>
    5db4:	2e00      	cmp	r6, #0
    5db6:	d000      	beq.n	5dba <__aeabi_dsub+0x296>
    5db8:	e081      	b.n	5ebe <__aeabi_dsub+0x39a>
    5dba:	1c60      	adds	r0, r4, #1
    5dbc:	0540      	lsls	r0, r0, #21
    5dbe:	0d40      	lsrs	r0, r0, #21
    5dc0:	2801      	cmp	r0, #1
    5dc2:	dc00      	bgt.n	5dc6 <__aeabi_dsub+0x2a2>
    5dc4:	e107      	b.n	5fd6 <__aeabi_dsub+0x4b2>
    5dc6:	9901      	ldr	r1, [sp, #4]
    5dc8:	1a68      	subs	r0, r5, r1
    5dca:	4684      	mov	ip, r0
    5dcc:	4565      	cmp	r5, ip
    5dce:	41b6      	sbcs	r6, r6
    5dd0:	1ab8      	subs	r0, r7, r2
    5dd2:	4276      	negs	r6, r6
    5dd4:	1b86      	subs	r6, r0, r6
    5dd6:	0230      	lsls	r0, r6, #8
    5dd8:	d400      	bmi.n	5ddc <__aeabi_dsub+0x2b8>
    5dda:	e0a1      	b.n	5f20 <__aeabi_dsub+0x3fc>
    5ddc:	468c      	mov	ip, r1
    5dde:	1b4d      	subs	r5, r1, r5
    5de0:	45ac      	cmp	ip, r5
    5de2:	4189      	sbcs	r1, r1
    5de4:	1bd2      	subs	r2, r2, r7
    5de6:	4249      	negs	r1, r1
    5de8:	1a56      	subs	r6, r2, r1
    5dea:	4698      	mov	r8, r3
    5dec:	e734      	b.n	5c58 <__aeabi_dsub+0x134>
    5dee:	2200      	movs	r2, #0
    5df0:	2500      	movs	r5, #0
    5df2:	e6ef      	b.n	5bd4 <__aeabi_dsub+0xb0>
    5df4:	1c28      	adds	r0, r5, #0
    5df6:	f000 fb2f 	bl	6458 <__clzsi2>
    5dfa:	3020      	adds	r0, #32
    5dfc:	1c03      	adds	r3, r0, #0
    5dfe:	3b08      	subs	r3, #8
    5e00:	2b1f      	cmp	r3, #31
    5e02:	dc00      	bgt.n	5e06 <__aeabi_dsub+0x2e2>
    5e04:	e733      	b.n	5c6e <__aeabi_dsub+0x14a>
    5e06:	1c02      	adds	r2, r0, #0
    5e08:	3a28      	subs	r2, #40	; 0x28
    5e0a:	4095      	lsls	r5, r2
    5e0c:	1c2a      	adds	r2, r5, #0
    5e0e:	2500      	movs	r5, #0
    5e10:	429c      	cmp	r4, r3
    5e12:	dc00      	bgt.n	5e16 <__aeabi_dsub+0x2f2>
    5e14:	e736      	b.n	5c84 <__aeabi_dsub+0x160>
    5e16:	4f1f      	ldr	r7, [pc, #124]	; (5e94 <__aeabi_dsub+0x370>)
    5e18:	1ae4      	subs	r4, r4, r3
    5e1a:	4017      	ands	r7, r2
    5e1c:	e6b4      	b.n	5b88 <__aeabi_dsub+0x64>
    5e1e:	9b01      	ldr	r3, [sp, #4]
    5e20:	431a      	orrs	r2, r3
    5e22:	1e51      	subs	r1, r2, #1
    5e24:	418a      	sbcs	r2, r1
    5e26:	b2d3      	uxtb	r3, r2
    5e28:	2200      	movs	r2, #0
    5e2a:	e709      	b.n	5c40 <__aeabi_dsub+0x11c>
    5e2c:	2b00      	cmp	r3, #0
    5e2e:	d000      	beq.n	5e32 <__aeabi_dsub+0x30e>
    5e30:	e101      	b.n	6036 <__aeabi_dsub+0x512>
    5e32:	1c60      	adds	r0, r4, #1
    5e34:	0543      	lsls	r3, r0, #21
    5e36:	0d5b      	lsrs	r3, r3, #21
    5e38:	2b01      	cmp	r3, #1
    5e3a:	dc00      	bgt.n	5e3e <__aeabi_dsub+0x31a>
    5e3c:	e0b0      	b.n	5fa0 <__aeabi_dsub+0x47c>
    5e3e:	4b14      	ldr	r3, [pc, #80]	; (5e90 <__aeabi_dsub+0x36c>)
    5e40:	4298      	cmp	r0, r3
    5e42:	d100      	bne.n	5e46 <__aeabi_dsub+0x322>
    5e44:	e11e      	b.n	6084 <__aeabi_dsub+0x560>
    5e46:	9b01      	ldr	r3, [sp, #4]
    5e48:	19d2      	adds	r2, r2, r7
    5e4a:	1959      	adds	r1, r3, r5
    5e4c:	42a9      	cmp	r1, r5
    5e4e:	419b      	sbcs	r3, r3
    5e50:	425b      	negs	r3, r3
    5e52:	18d2      	adds	r2, r2, r3
    5e54:	0849      	lsrs	r1, r1, #1
    5e56:	07d5      	lsls	r5, r2, #31
    5e58:	430d      	orrs	r5, r1
    5e5a:	0857      	lsrs	r7, r2, #1
    5e5c:	1c04      	adds	r4, r0, #0
    5e5e:	e693      	b.n	5b88 <__aeabi_dsub+0x64>
    5e60:	4b0b      	ldr	r3, [pc, #44]	; (5e90 <__aeabi_dsub+0x36c>)
    5e62:	429c      	cmp	r4, r3
    5e64:	d000      	beq.n	5e68 <__aeabi_dsub+0x344>
    5e66:	e6d3      	b.n	5c10 <__aeabi_dsub+0xec>
    5e68:	e68e      	b.n	5b88 <__aeabi_dsub+0x64>
    5e6a:	1c21      	adds	r1, r4, #0
    5e6c:	1c13      	adds	r3, r2, #0
    5e6e:	391f      	subs	r1, #31
    5e70:	40cb      	lsrs	r3, r1
    5e72:	1c19      	adds	r1, r3, #0
    5e74:	2f20      	cmp	r7, #32
    5e76:	d100      	bne.n	5e7a <__aeabi_dsub+0x356>
    5e78:	e08e      	b.n	5f98 <__aeabi_dsub+0x474>
    5e7a:	233f      	movs	r3, #63	; 0x3f
    5e7c:	1b1c      	subs	r4, r3, r4
    5e7e:	40a2      	lsls	r2, r4
    5e80:	4315      	orrs	r5, r2
    5e82:	1e6a      	subs	r2, r5, #1
    5e84:	4195      	sbcs	r5, r2
    5e86:	2700      	movs	r7, #0
    5e88:	430d      	orrs	r5, r1
    5e8a:	2400      	movs	r4, #0
    5e8c:	e78b      	b.n	5da6 <__aeabi_dsub+0x282>
    5e8e:	46c0      	nop			; (mov r8, r8)
    5e90:	000007ff 	.word	0x000007ff
    5e94:	ff7fffff 	.word	0xff7fffff
    5e98:	800fffff 	.word	0x800fffff
    5e9c:	1c33      	adds	r3, r6, #0
    5e9e:	1c10      	adds	r0, r2, #0
    5ea0:	3b20      	subs	r3, #32
    5ea2:	40d8      	lsrs	r0, r3
    5ea4:	2e20      	cmp	r6, #32
    5ea6:	d079      	beq.n	5f9c <__aeabi_dsub+0x478>
    5ea8:	2340      	movs	r3, #64	; 0x40
    5eaa:	1b9b      	subs	r3, r3, r6
    5eac:	409a      	lsls	r2, r3
    5eae:	1c13      	adds	r3, r2, #0
    5eb0:	9a01      	ldr	r2, [sp, #4]
    5eb2:	4313      	orrs	r3, r2
    5eb4:	1e59      	subs	r1, r3, #1
    5eb6:	418b      	sbcs	r3, r1
    5eb8:	2200      	movs	r2, #0
    5eba:	4303      	orrs	r3, r0
    5ebc:	e6c0      	b.n	5c40 <__aeabi_dsub+0x11c>
    5ebe:	2c00      	cmp	r4, #0
    5ec0:	d053      	beq.n	5f6a <__aeabi_dsub+0x446>
    5ec2:	4cc7      	ldr	r4, [pc, #796]	; (61e0 <__aeabi_dsub+0x6bc>)
    5ec4:	42a0      	cmp	r0, r4
    5ec6:	d100      	bne.n	5eca <__aeabi_dsub+0x3a6>
    5ec8:	e0b0      	b.n	602c <__aeabi_dsub+0x508>
    5eca:	2480      	movs	r4, #128	; 0x80
    5ecc:	4271      	negs	r1, r6
    5ece:	4689      	mov	r9, r1
    5ed0:	0424      	lsls	r4, r4, #16
    5ed2:	4327      	orrs	r7, r4
    5ed4:	4649      	mov	r1, r9
    5ed6:	2938      	cmp	r1, #56	; 0x38
    5ed8:	dd00      	ble.n	5edc <__aeabi_dsub+0x3b8>
    5eda:	e0cd      	b.n	6078 <__aeabi_dsub+0x554>
    5edc:	291f      	cmp	r1, #31
    5ede:	dd00      	ble.n	5ee2 <__aeabi_dsub+0x3be>
    5ee0:	e159      	b.n	6196 <__aeabi_dsub+0x672>
    5ee2:	2420      	movs	r4, #32
    5ee4:	1c3e      	adds	r6, r7, #0
    5ee6:	1a61      	subs	r1, r4, r1
    5ee8:	408e      	lsls	r6, r1
    5eea:	468a      	mov	sl, r1
    5eec:	46b0      	mov	r8, r6
    5eee:	4649      	mov	r1, r9
    5ef0:	1c2e      	adds	r6, r5, #0
    5ef2:	40ce      	lsrs	r6, r1
    5ef4:	4651      	mov	r1, sl
    5ef6:	46b4      	mov	ip, r6
    5ef8:	408d      	lsls	r5, r1
    5efa:	4664      	mov	r4, ip
    5efc:	4646      	mov	r6, r8
    5efe:	4649      	mov	r1, r9
    5f00:	4326      	orrs	r6, r4
    5f02:	1e6c      	subs	r4, r5, #1
    5f04:	41a5      	sbcs	r5, r4
    5f06:	40cf      	lsrs	r7, r1
    5f08:	4335      	orrs	r5, r6
    5f0a:	9901      	ldr	r1, [sp, #4]
    5f0c:	1bd7      	subs	r7, r2, r7
    5f0e:	468c      	mov	ip, r1
    5f10:	1b4d      	subs	r5, r1, r5
    5f12:	45ac      	cmp	ip, r5
    5f14:	4192      	sbcs	r2, r2
    5f16:	4252      	negs	r2, r2
    5f18:	1abf      	subs	r7, r7, r2
    5f1a:	1c04      	adds	r4, r0, #0
    5f1c:	4698      	mov	r8, r3
    5f1e:	e696      	b.n	5c4e <__aeabi_dsub+0x12a>
    5f20:	4663      	mov	r3, ip
    5f22:	4665      	mov	r5, ip
    5f24:	4333      	orrs	r3, r6
    5f26:	d000      	beq.n	5f2a <__aeabi_dsub+0x406>
    5f28:	e696      	b.n	5c58 <__aeabi_dsub+0x134>
    5f2a:	2600      	movs	r6, #0
    5f2c:	2700      	movs	r7, #0
    5f2e:	2400      	movs	r4, #0
    5f30:	2500      	movs	r5, #0
    5f32:	e6c4      	b.n	5cbe <__aeabi_dsub+0x19a>
    5f34:	2b1f      	cmp	r3, #31
    5f36:	dc61      	bgt.n	5ffc <__aeabi_dsub+0x4d8>
    5f38:	2020      	movs	r0, #32
    5f3a:	1ac3      	subs	r3, r0, r3
    5f3c:	469b      	mov	fp, r3
    5f3e:	1c13      	adds	r3, r2, #0
    5f40:	4659      	mov	r1, fp
    5f42:	408b      	lsls	r3, r1
    5f44:	4651      	mov	r1, sl
    5f46:	4699      	mov	r9, r3
    5f48:	9b01      	ldr	r3, [sp, #4]
    5f4a:	40cb      	lsrs	r3, r1
    5f4c:	469c      	mov	ip, r3
    5f4e:	464b      	mov	r3, r9
    5f50:	4660      	mov	r0, ip
    5f52:	4303      	orrs	r3, r0
    5f54:	469c      	mov	ip, r3
    5f56:	465b      	mov	r3, fp
    5f58:	9901      	ldr	r1, [sp, #4]
    5f5a:	4099      	lsls	r1, r3
    5f5c:	4663      	mov	r3, ip
    5f5e:	1e48      	subs	r0, r1, #1
    5f60:	4181      	sbcs	r1, r0
    5f62:	4319      	orrs	r1, r3
    5f64:	4653      	mov	r3, sl
    5f66:	40da      	lsrs	r2, r3
    5f68:	e6cd      	b.n	5d06 <__aeabi_dsub+0x1e2>
    5f6a:	1c3c      	adds	r4, r7, #0
    5f6c:	432c      	orrs	r4, r5
    5f6e:	d05d      	beq.n	602c <__aeabi_dsub+0x508>
    5f70:	43f1      	mvns	r1, r6
    5f72:	4689      	mov	r9, r1
    5f74:	2900      	cmp	r1, #0
    5f76:	d155      	bne.n	6024 <__aeabi_dsub+0x500>
    5f78:	9901      	ldr	r1, [sp, #4]
    5f7a:	1bd2      	subs	r2, r2, r7
    5f7c:	468c      	mov	ip, r1
    5f7e:	1b4d      	subs	r5, r1, r5
    5f80:	45ac      	cmp	ip, r5
    5f82:	4189      	sbcs	r1, r1
    5f84:	4249      	negs	r1, r1
    5f86:	1a57      	subs	r7, r2, r1
    5f88:	1c04      	adds	r4, r0, #0
    5f8a:	4698      	mov	r8, r3
    5f8c:	e65f      	b.n	5c4e <__aeabi_dsub+0x12a>
    5f8e:	4894      	ldr	r0, [pc, #592]	; (61e0 <__aeabi_dsub+0x6bc>)
    5f90:	4284      	cmp	r4, r0
    5f92:	d000      	beq.n	5f96 <__aeabi_dsub+0x472>
    5f94:	e6ad      	b.n	5cf2 <__aeabi_dsub+0x1ce>
    5f96:	e5f7      	b.n	5b88 <__aeabi_dsub+0x64>
    5f98:	2200      	movs	r2, #0
    5f9a:	e771      	b.n	5e80 <__aeabi_dsub+0x35c>
    5f9c:	2300      	movs	r3, #0
    5f9e:	e787      	b.n	5eb0 <__aeabi_dsub+0x38c>
    5fa0:	1c3b      	adds	r3, r7, #0
    5fa2:	432b      	orrs	r3, r5
    5fa4:	2c00      	cmp	r4, #0
    5fa6:	d000      	beq.n	5faa <__aeabi_dsub+0x486>
    5fa8:	e0da      	b.n	6160 <__aeabi_dsub+0x63c>
    5faa:	2b00      	cmp	r3, #0
    5fac:	d100      	bne.n	5fb0 <__aeabi_dsub+0x48c>
    5fae:	e113      	b.n	61d8 <__aeabi_dsub+0x6b4>
    5fb0:	1c13      	adds	r3, r2, #0
    5fb2:	9901      	ldr	r1, [sp, #4]
    5fb4:	430b      	orrs	r3, r1
    5fb6:	d100      	bne.n	5fba <__aeabi_dsub+0x496>
    5fb8:	e5e6      	b.n	5b88 <__aeabi_dsub+0x64>
    5fba:	1949      	adds	r1, r1, r5
    5fbc:	42a9      	cmp	r1, r5
    5fbe:	419b      	sbcs	r3, r3
    5fc0:	19d2      	adds	r2, r2, r7
    5fc2:	425b      	negs	r3, r3
    5fc4:	18d7      	adds	r7, r2, r3
    5fc6:	023b      	lsls	r3, r7, #8
    5fc8:	d400      	bmi.n	5fcc <__aeabi_dsub+0x4a8>
    5fca:	e121      	b.n	6210 <__aeabi_dsub+0x6ec>
    5fcc:	4b85      	ldr	r3, [pc, #532]	; (61e4 <__aeabi_dsub+0x6c0>)
    5fce:	1c0d      	adds	r5, r1, #0
    5fd0:	401f      	ands	r7, r3
    5fd2:	1c04      	adds	r4, r0, #0
    5fd4:	e5d8      	b.n	5b88 <__aeabi_dsub+0x64>
    5fd6:	1c38      	adds	r0, r7, #0
    5fd8:	4328      	orrs	r0, r5
    5fda:	2c00      	cmp	r4, #0
    5fdc:	d140      	bne.n	6060 <__aeabi_dsub+0x53c>
    5fde:	2800      	cmp	r0, #0
    5fe0:	d000      	beq.n	5fe4 <__aeabi_dsub+0x4c0>
    5fe2:	e083      	b.n	60ec <__aeabi_dsub+0x5c8>
    5fe4:	1c10      	adds	r0, r2, #0
    5fe6:	9901      	ldr	r1, [sp, #4]
    5fe8:	4308      	orrs	r0, r1
    5fea:	d003      	beq.n	5ff4 <__aeabi_dsub+0x4d0>
    5fec:	1c17      	adds	r7, r2, #0
    5fee:	1c0d      	adds	r5, r1, #0
    5ff0:	4698      	mov	r8, r3
    5ff2:	e5c9      	b.n	5b88 <__aeabi_dsub+0x64>
    5ff4:	2600      	movs	r6, #0
    5ff6:	2700      	movs	r7, #0
    5ff8:	2500      	movs	r5, #0
    5ffa:	e660      	b.n	5cbe <__aeabi_dsub+0x19a>
    5ffc:	4650      	mov	r0, sl
    5ffe:	1c13      	adds	r3, r2, #0
    6000:	3820      	subs	r0, #32
    6002:	40c3      	lsrs	r3, r0
    6004:	1c18      	adds	r0, r3, #0
    6006:	4653      	mov	r3, sl
    6008:	2b20      	cmp	r3, #32
    600a:	d100      	bne.n	600e <__aeabi_dsub+0x4ea>
    600c:	e0c1      	b.n	6192 <__aeabi_dsub+0x66e>
    600e:	2340      	movs	r3, #64	; 0x40
    6010:	4651      	mov	r1, sl
    6012:	1a5b      	subs	r3, r3, r1
    6014:	409a      	lsls	r2, r3
    6016:	9901      	ldr	r1, [sp, #4]
    6018:	4311      	orrs	r1, r2
    601a:	1e4a      	subs	r2, r1, #1
    601c:	4191      	sbcs	r1, r2
    601e:	2200      	movs	r2, #0
    6020:	4301      	orrs	r1, r0
    6022:	e670      	b.n	5d06 <__aeabi_dsub+0x1e2>
    6024:	4c6e      	ldr	r4, [pc, #440]	; (61e0 <__aeabi_dsub+0x6bc>)
    6026:	42a0      	cmp	r0, r4
    6028:	d000      	beq.n	602c <__aeabi_dsub+0x508>
    602a:	e753      	b.n	5ed4 <__aeabi_dsub+0x3b0>
    602c:	1c17      	adds	r7, r2, #0
    602e:	9d01      	ldr	r5, [sp, #4]
    6030:	1c04      	adds	r4, r0, #0
    6032:	4698      	mov	r8, r3
    6034:	e5a8      	b.n	5b88 <__aeabi_dsub+0x64>
    6036:	2c00      	cmp	r4, #0
    6038:	d128      	bne.n	608c <__aeabi_dsub+0x568>
    603a:	1c3c      	adds	r4, r7, #0
    603c:	432c      	orrs	r4, r5
    603e:	d100      	bne.n	6042 <__aeabi_dsub+0x51e>
    6040:	e08a      	b.n	6158 <__aeabi_dsub+0x634>
    6042:	43db      	mvns	r3, r3
    6044:	469a      	mov	sl, r3
    6046:	2b00      	cmp	r3, #0
    6048:	d000      	beq.n	604c <__aeabi_dsub+0x528>
    604a:	e082      	b.n	6152 <__aeabi_dsub+0x62e>
    604c:	9b01      	ldr	r3, [sp, #4]
    604e:	19d2      	adds	r2, r2, r7
    6050:	469c      	mov	ip, r3
    6052:	4465      	add	r5, ip
    6054:	429d      	cmp	r5, r3
    6056:	4189      	sbcs	r1, r1
    6058:	4249      	negs	r1, r1
    605a:	1857      	adds	r7, r2, r1
    605c:	1c04      	adds	r4, r0, #0
    605e:	e659      	b.n	5d14 <__aeabi_dsub+0x1f0>
    6060:	2800      	cmp	r0, #0
    6062:	d15b      	bne.n	611c <__aeabi_dsub+0x5f8>
    6064:	1c10      	adds	r0, r2, #0
    6066:	9901      	ldr	r1, [sp, #4]
    6068:	4308      	orrs	r0, r1
    606a:	d100      	bne.n	606e <__aeabi_dsub+0x54a>
    606c:	e0a4      	b.n	61b8 <__aeabi_dsub+0x694>
    606e:	1c17      	adds	r7, r2, #0
    6070:	1c0d      	adds	r5, r1, #0
    6072:	4698      	mov	r8, r3
    6074:	4c5a      	ldr	r4, [pc, #360]	; (61e0 <__aeabi_dsub+0x6bc>)
    6076:	e587      	b.n	5b88 <__aeabi_dsub+0x64>
    6078:	433d      	orrs	r5, r7
    607a:	1e6f      	subs	r7, r5, #1
    607c:	41bd      	sbcs	r5, r7
    607e:	2700      	movs	r7, #0
    6080:	b2ed      	uxtb	r5, r5
    6082:	e742      	b.n	5f0a <__aeabi_dsub+0x3e6>
    6084:	1c04      	adds	r4, r0, #0
    6086:	2700      	movs	r7, #0
    6088:	2500      	movs	r5, #0
    608a:	e618      	b.n	5cbe <__aeabi_dsub+0x19a>
    608c:	4c54      	ldr	r4, [pc, #336]	; (61e0 <__aeabi_dsub+0x6bc>)
    608e:	42a0      	cmp	r0, r4
    6090:	d062      	beq.n	6158 <__aeabi_dsub+0x634>
    6092:	4653      	mov	r3, sl
    6094:	2480      	movs	r4, #128	; 0x80
    6096:	425b      	negs	r3, r3
    6098:	469a      	mov	sl, r3
    609a:	0424      	lsls	r4, r4, #16
    609c:	4327      	orrs	r7, r4
    609e:	4653      	mov	r3, sl
    60a0:	2b38      	cmp	r3, #56	; 0x38
    60a2:	dd00      	ble.n	60a6 <__aeabi_dsub+0x582>
    60a4:	e08e      	b.n	61c4 <__aeabi_dsub+0x6a0>
    60a6:	2b1f      	cmp	r3, #31
    60a8:	dd00      	ble.n	60ac <__aeabi_dsub+0x588>
    60aa:	e09d      	b.n	61e8 <__aeabi_dsub+0x6c4>
    60ac:	2420      	movs	r4, #32
    60ae:	1ae3      	subs	r3, r4, r3
    60b0:	469b      	mov	fp, r3
    60b2:	1c3b      	adds	r3, r7, #0
    60b4:	4659      	mov	r1, fp
    60b6:	408b      	lsls	r3, r1
    60b8:	4651      	mov	r1, sl
    60ba:	4699      	mov	r9, r3
    60bc:	1c2b      	adds	r3, r5, #0
    60be:	40cb      	lsrs	r3, r1
    60c0:	469c      	mov	ip, r3
    60c2:	464b      	mov	r3, r9
    60c4:	4664      	mov	r4, ip
    60c6:	4323      	orrs	r3, r4
    60c8:	469c      	mov	ip, r3
    60ca:	465b      	mov	r3, fp
    60cc:	409d      	lsls	r5, r3
    60ce:	4663      	mov	r3, ip
    60d0:	1e6c      	subs	r4, r5, #1
    60d2:	41a5      	sbcs	r5, r4
    60d4:	40cf      	lsrs	r7, r1
    60d6:	431d      	orrs	r5, r3
    60d8:	9b01      	ldr	r3, [sp, #4]
    60da:	18bf      	adds	r7, r7, r2
    60dc:	469c      	mov	ip, r3
    60de:	4465      	add	r5, ip
    60e0:	429d      	cmp	r5, r3
    60e2:	4192      	sbcs	r2, r2
    60e4:	4252      	negs	r2, r2
    60e6:	18bf      	adds	r7, r7, r2
    60e8:	1c04      	adds	r4, r0, #0
    60ea:	e613      	b.n	5d14 <__aeabi_dsub+0x1f0>
    60ec:	1c10      	adds	r0, r2, #0
    60ee:	9901      	ldr	r1, [sp, #4]
    60f0:	4308      	orrs	r0, r1
    60f2:	d100      	bne.n	60f6 <__aeabi_dsub+0x5d2>
    60f4:	e548      	b.n	5b88 <__aeabi_dsub+0x64>
    60f6:	1a68      	subs	r0, r5, r1
    60f8:	4684      	mov	ip, r0
    60fa:	4285      	cmp	r5, r0
    60fc:	4180      	sbcs	r0, r0
    60fe:	1abe      	subs	r6, r7, r2
    6100:	4240      	negs	r0, r0
    6102:	1a30      	subs	r0, r6, r0
    6104:	0206      	lsls	r6, r0, #8
    6106:	d400      	bmi.n	610a <__aeabi_dsub+0x5e6>
    6108:	e647      	b.n	5d9a <__aeabi_dsub+0x276>
    610a:	468c      	mov	ip, r1
    610c:	1b4d      	subs	r5, r1, r5
    610e:	45ac      	cmp	ip, r5
    6110:	4189      	sbcs	r1, r1
    6112:	1bd2      	subs	r2, r2, r7
    6114:	4249      	negs	r1, r1
    6116:	1a57      	subs	r7, r2, r1
    6118:	4698      	mov	r8, r3
    611a:	e535      	b.n	5b88 <__aeabi_dsub+0x64>
    611c:	1c10      	adds	r0, r2, #0
    611e:	9901      	ldr	r1, [sp, #4]
    6120:	4308      	orrs	r0, r1
    6122:	d034      	beq.n	618e <__aeabi_dsub+0x66a>
    6124:	2480      	movs	r4, #128	; 0x80
    6126:	0778      	lsls	r0, r7, #29
    6128:	08ed      	lsrs	r5, r5, #3
    612a:	08ff      	lsrs	r7, r7, #3
    612c:	0324      	lsls	r4, r4, #12
    612e:	4328      	orrs	r0, r5
    6130:	4227      	tst	r7, r4
    6132:	d008      	beq.n	6146 <__aeabi_dsub+0x622>
    6134:	08d6      	lsrs	r6, r2, #3
    6136:	4226      	tst	r6, r4
    6138:	d105      	bne.n	6146 <__aeabi_dsub+0x622>
    613a:	08c9      	lsrs	r1, r1, #3
    613c:	0752      	lsls	r2, r2, #29
    613e:	430a      	orrs	r2, r1
    6140:	1c10      	adds	r0, r2, #0
    6142:	1c37      	adds	r7, r6, #0
    6144:	4698      	mov	r8, r3
    6146:	00ff      	lsls	r7, r7, #3
    6148:	0f42      	lsrs	r2, r0, #29
    614a:	4317      	orrs	r7, r2
    614c:	00c5      	lsls	r5, r0, #3
    614e:	4c24      	ldr	r4, [pc, #144]	; (61e0 <__aeabi_dsub+0x6bc>)
    6150:	e51a      	b.n	5b88 <__aeabi_dsub+0x64>
    6152:	4c23      	ldr	r4, [pc, #140]	; (61e0 <__aeabi_dsub+0x6bc>)
    6154:	42a0      	cmp	r0, r4
    6156:	d1a2      	bne.n	609e <__aeabi_dsub+0x57a>
    6158:	1c17      	adds	r7, r2, #0
    615a:	9d01      	ldr	r5, [sp, #4]
    615c:	1c04      	adds	r4, r0, #0
    615e:	e513      	b.n	5b88 <__aeabi_dsub+0x64>
    6160:	2b00      	cmp	r3, #0
    6162:	d035      	beq.n	61d0 <__aeabi_dsub+0x6ac>
    6164:	1c13      	adds	r3, r2, #0
    6166:	9901      	ldr	r1, [sp, #4]
    6168:	430b      	orrs	r3, r1
    616a:	d010      	beq.n	618e <__aeabi_dsub+0x66a>
    616c:	2480      	movs	r4, #128	; 0x80
    616e:	0778      	lsls	r0, r7, #29
    6170:	08ed      	lsrs	r5, r5, #3
    6172:	08ff      	lsrs	r7, r7, #3
    6174:	0324      	lsls	r4, r4, #12
    6176:	4328      	orrs	r0, r5
    6178:	4227      	tst	r7, r4
    617a:	d0e4      	beq.n	6146 <__aeabi_dsub+0x622>
    617c:	08d3      	lsrs	r3, r2, #3
    617e:	4223      	tst	r3, r4
    6180:	d1e1      	bne.n	6146 <__aeabi_dsub+0x622>
    6182:	08c9      	lsrs	r1, r1, #3
    6184:	0752      	lsls	r2, r2, #29
    6186:	430a      	orrs	r2, r1
    6188:	1c10      	adds	r0, r2, #0
    618a:	1c1f      	adds	r7, r3, #0
    618c:	e7db      	b.n	6146 <__aeabi_dsub+0x622>
    618e:	4c14      	ldr	r4, [pc, #80]	; (61e0 <__aeabi_dsub+0x6bc>)
    6190:	e4fa      	b.n	5b88 <__aeabi_dsub+0x64>
    6192:	2200      	movs	r2, #0
    6194:	e73f      	b.n	6016 <__aeabi_dsub+0x4f2>
    6196:	464c      	mov	r4, r9
    6198:	1c3e      	adds	r6, r7, #0
    619a:	3c20      	subs	r4, #32
    619c:	40e6      	lsrs	r6, r4
    619e:	4649      	mov	r1, r9
    61a0:	1c34      	adds	r4, r6, #0
    61a2:	2920      	cmp	r1, #32
    61a4:	d032      	beq.n	620c <__aeabi_dsub+0x6e8>
    61a6:	2640      	movs	r6, #64	; 0x40
    61a8:	1a76      	subs	r6, r6, r1
    61aa:	40b7      	lsls	r7, r6
    61ac:	433d      	orrs	r5, r7
    61ae:	1e6f      	subs	r7, r5, #1
    61b0:	41bd      	sbcs	r5, r7
    61b2:	2700      	movs	r7, #0
    61b4:	4325      	orrs	r5, r4
    61b6:	e6a8      	b.n	5f0a <__aeabi_dsub+0x3e6>
    61b8:	2780      	movs	r7, #128	; 0x80
    61ba:	2600      	movs	r6, #0
    61bc:	03ff      	lsls	r7, r7, #15
    61be:	4c08      	ldr	r4, [pc, #32]	; (61e0 <__aeabi_dsub+0x6bc>)
    61c0:	2500      	movs	r5, #0
    61c2:	e57c      	b.n	5cbe <__aeabi_dsub+0x19a>
    61c4:	433d      	orrs	r5, r7
    61c6:	1e6f      	subs	r7, r5, #1
    61c8:	41bd      	sbcs	r5, r7
    61ca:	2700      	movs	r7, #0
    61cc:	b2ed      	uxtb	r5, r5
    61ce:	e783      	b.n	60d8 <__aeabi_dsub+0x5b4>
    61d0:	1c17      	adds	r7, r2, #0
    61d2:	9d01      	ldr	r5, [sp, #4]
    61d4:	4c02      	ldr	r4, [pc, #8]	; (61e0 <__aeabi_dsub+0x6bc>)
    61d6:	e4d7      	b.n	5b88 <__aeabi_dsub+0x64>
    61d8:	1c17      	adds	r7, r2, #0
    61da:	9d01      	ldr	r5, [sp, #4]
    61dc:	e4d4      	b.n	5b88 <__aeabi_dsub+0x64>
    61de:	46c0      	nop			; (mov r8, r8)
    61e0:	000007ff 	.word	0x000007ff
    61e4:	ff7fffff 	.word	0xff7fffff
    61e8:	4654      	mov	r4, sl
    61ea:	1c3b      	adds	r3, r7, #0
    61ec:	3c20      	subs	r4, #32
    61ee:	40e3      	lsrs	r3, r4
    61f0:	1c1c      	adds	r4, r3, #0
    61f2:	4653      	mov	r3, sl
    61f4:	2b20      	cmp	r3, #32
    61f6:	d00d      	beq.n	6214 <__aeabi_dsub+0x6f0>
    61f8:	2340      	movs	r3, #64	; 0x40
    61fa:	4651      	mov	r1, sl
    61fc:	1a5b      	subs	r3, r3, r1
    61fe:	409f      	lsls	r7, r3
    6200:	433d      	orrs	r5, r7
    6202:	1e6f      	subs	r7, r5, #1
    6204:	41bd      	sbcs	r5, r7
    6206:	2700      	movs	r7, #0
    6208:	4325      	orrs	r5, r4
    620a:	e765      	b.n	60d8 <__aeabi_dsub+0x5b4>
    620c:	2700      	movs	r7, #0
    620e:	e7cd      	b.n	61ac <__aeabi_dsub+0x688>
    6210:	1c0d      	adds	r5, r1, #0
    6212:	e5c8      	b.n	5da6 <__aeabi_dsub+0x282>
    6214:	2700      	movs	r7, #0
    6216:	e7f3      	b.n	6200 <__aeabi_dsub+0x6dc>

00006218 <__aeabi_i2d>:
    6218:	b538      	push	{r3, r4, r5, lr}
    621a:	1e04      	subs	r4, r0, #0
    621c:	d016      	beq.n	624c <__aeabi_i2d+0x34>
    621e:	0fc5      	lsrs	r5, r0, #31
    6220:	d000      	beq.n	6224 <__aeabi_i2d+0xc>
    6222:	4244      	negs	r4, r0
    6224:	1c20      	adds	r0, r4, #0
    6226:	f000 f917 	bl	6458 <__clzsi2>
    622a:	4b17      	ldr	r3, [pc, #92]	; (6288 <__aeabi_i2d+0x70>)
    622c:	1a1b      	subs	r3, r3, r0
    622e:	280a      	cmp	r0, #10
    6230:	dc21      	bgt.n	6276 <__aeabi_i2d+0x5e>
    6232:	1c02      	adds	r2, r0, #0
    6234:	1c21      	adds	r1, r4, #0
    6236:	3215      	adds	r2, #21
    6238:	4091      	lsls	r1, r2
    623a:	1c0a      	adds	r2, r1, #0
    623c:	210b      	movs	r1, #11
    623e:	1a08      	subs	r0, r1, r0
    6240:	40c4      	lsrs	r4, r0
    6242:	055b      	lsls	r3, r3, #21
    6244:	0324      	lsls	r4, r4, #12
    6246:	0b24      	lsrs	r4, r4, #12
    6248:	0d5b      	lsrs	r3, r3, #21
    624a:	e003      	b.n	6254 <__aeabi_i2d+0x3c>
    624c:	2500      	movs	r5, #0
    624e:	2300      	movs	r3, #0
    6250:	2400      	movs	r4, #0
    6252:	2200      	movs	r2, #0
    6254:	2100      	movs	r1, #0
    6256:	1c10      	adds	r0, r2, #0
    6258:	0324      	lsls	r4, r4, #12
    625a:	0d0a      	lsrs	r2, r1, #20
    625c:	0512      	lsls	r2, r2, #20
    625e:	0b24      	lsrs	r4, r4, #12
    6260:	4314      	orrs	r4, r2
    6262:	4a0a      	ldr	r2, [pc, #40]	; (628c <__aeabi_i2d+0x74>)
    6264:	051b      	lsls	r3, r3, #20
    6266:	4014      	ands	r4, r2
    6268:	431c      	orrs	r4, r3
    626a:	0064      	lsls	r4, r4, #1
    626c:	07ed      	lsls	r5, r5, #31
    626e:	0864      	lsrs	r4, r4, #1
    6270:	432c      	orrs	r4, r5
    6272:	1c21      	adds	r1, r4, #0
    6274:	bd38      	pop	{r3, r4, r5, pc}
    6276:	380b      	subs	r0, #11
    6278:	4084      	lsls	r4, r0
    627a:	055b      	lsls	r3, r3, #21
    627c:	0324      	lsls	r4, r4, #12
    627e:	0b24      	lsrs	r4, r4, #12
    6280:	0d5b      	lsrs	r3, r3, #21
    6282:	2200      	movs	r2, #0
    6284:	e7e6      	b.n	6254 <__aeabi_i2d+0x3c>
    6286:	46c0      	nop			; (mov r8, r8)
    6288:	0000041e 	.word	0x0000041e
    628c:	800fffff 	.word	0x800fffff

00006290 <__aeabi_f2d>:
    6290:	0042      	lsls	r2, r0, #1
    6292:	0e12      	lsrs	r2, r2, #24
    6294:	1c51      	adds	r1, r2, #1
    6296:	b538      	push	{r3, r4, r5, lr}
    6298:	b2c9      	uxtb	r1, r1
    629a:	0243      	lsls	r3, r0, #9
    629c:	0a5d      	lsrs	r5, r3, #9
    629e:	0fc4      	lsrs	r4, r0, #31
    62a0:	2901      	cmp	r1, #1
    62a2:	dd15      	ble.n	62d0 <__aeabi_f2d+0x40>
    62a4:	21e0      	movs	r1, #224	; 0xe0
    62a6:	0089      	lsls	r1, r1, #2
    62a8:	468c      	mov	ip, r1
    62aa:	076d      	lsls	r5, r5, #29
    62ac:	0b1b      	lsrs	r3, r3, #12
    62ae:	4462      	add	r2, ip
    62b0:	2100      	movs	r1, #0
    62b2:	1c28      	adds	r0, r5, #0
    62b4:	0d0d      	lsrs	r5, r1, #20
    62b6:	052d      	lsls	r5, r5, #20
    62b8:	432b      	orrs	r3, r5
    62ba:	4d1c      	ldr	r5, [pc, #112]	; (632c <__aeabi_f2d+0x9c>)
    62bc:	0552      	lsls	r2, r2, #21
    62be:	402b      	ands	r3, r5
    62c0:	0852      	lsrs	r2, r2, #1
    62c2:	4313      	orrs	r3, r2
    62c4:	005b      	lsls	r3, r3, #1
    62c6:	07e4      	lsls	r4, r4, #31
    62c8:	085b      	lsrs	r3, r3, #1
    62ca:	4323      	orrs	r3, r4
    62cc:	1c19      	adds	r1, r3, #0
    62ce:	bd38      	pop	{r3, r4, r5, pc}
    62d0:	2a00      	cmp	r2, #0
    62d2:	d115      	bne.n	6300 <__aeabi_f2d+0x70>
    62d4:	2d00      	cmp	r5, #0
    62d6:	d01f      	beq.n	6318 <__aeabi_f2d+0x88>
    62d8:	1c28      	adds	r0, r5, #0
    62da:	f000 f8bd 	bl	6458 <__clzsi2>
    62de:	280a      	cmp	r0, #10
    62e0:	dc1d      	bgt.n	631e <__aeabi_f2d+0x8e>
    62e2:	230b      	movs	r3, #11
    62e4:	1c2a      	adds	r2, r5, #0
    62e6:	1a1b      	subs	r3, r3, r0
    62e8:	40da      	lsrs	r2, r3
    62ea:	1c13      	adds	r3, r2, #0
    62ec:	1c02      	adds	r2, r0, #0
    62ee:	3215      	adds	r2, #21
    62f0:	4095      	lsls	r5, r2
    62f2:	4a0f      	ldr	r2, [pc, #60]	; (6330 <__aeabi_f2d+0xa0>)
    62f4:	031b      	lsls	r3, r3, #12
    62f6:	1a12      	subs	r2, r2, r0
    62f8:	0552      	lsls	r2, r2, #21
    62fa:	0b1b      	lsrs	r3, r3, #12
    62fc:	0d52      	lsrs	r2, r2, #21
    62fe:	e7d7      	b.n	62b0 <__aeabi_f2d+0x20>
    6300:	2d00      	cmp	r5, #0
    6302:	d006      	beq.n	6312 <__aeabi_f2d+0x82>
    6304:	2280      	movs	r2, #128	; 0x80
    6306:	0b1b      	lsrs	r3, r3, #12
    6308:	0312      	lsls	r2, r2, #12
    630a:	4313      	orrs	r3, r2
    630c:	076d      	lsls	r5, r5, #29
    630e:	4a09      	ldr	r2, [pc, #36]	; (6334 <__aeabi_f2d+0xa4>)
    6310:	e7ce      	b.n	62b0 <__aeabi_f2d+0x20>
    6312:	4a08      	ldr	r2, [pc, #32]	; (6334 <__aeabi_f2d+0xa4>)
    6314:	2300      	movs	r3, #0
    6316:	e7cb      	b.n	62b0 <__aeabi_f2d+0x20>
    6318:	2200      	movs	r2, #0
    631a:	2300      	movs	r3, #0
    631c:	e7c8      	b.n	62b0 <__aeabi_f2d+0x20>
    631e:	1c03      	adds	r3, r0, #0
    6320:	3b0b      	subs	r3, #11
    6322:	409d      	lsls	r5, r3
    6324:	1c2b      	adds	r3, r5, #0
    6326:	2500      	movs	r5, #0
    6328:	e7e3      	b.n	62f2 <__aeabi_f2d+0x62>
    632a:	46c0      	nop			; (mov r8, r8)
    632c:	800fffff 	.word	0x800fffff
    6330:	00000389 	.word	0x00000389
    6334:	000007ff 	.word	0x000007ff

00006338 <__aeabi_d2f>:
    6338:	b570      	push	{r4, r5, r6, lr}
    633a:	030b      	lsls	r3, r1, #12
    633c:	004d      	lsls	r5, r1, #1
    633e:	0f44      	lsrs	r4, r0, #29
    6340:	0d6d      	lsrs	r5, r5, #21
    6342:	0a5b      	lsrs	r3, r3, #9
    6344:	4323      	orrs	r3, r4
    6346:	1c6c      	adds	r4, r5, #1
    6348:	0564      	lsls	r4, r4, #21
    634a:	0fc9      	lsrs	r1, r1, #31
    634c:	00c2      	lsls	r2, r0, #3
    634e:	0d64      	lsrs	r4, r4, #21
    6350:	2c01      	cmp	r4, #1
    6352:	dd2a      	ble.n	63aa <__aeabi_d2f+0x72>
    6354:	4c3b      	ldr	r4, [pc, #236]	; (6444 <__aeabi_d2f+0x10c>)
    6356:	192c      	adds	r4, r5, r4
    6358:	2cfe      	cmp	r4, #254	; 0xfe
    635a:	dc1a      	bgt.n	6392 <__aeabi_d2f+0x5a>
    635c:	2c00      	cmp	r4, #0
    635e:	dd35      	ble.n	63cc <__aeabi_d2f+0x94>
    6360:	0180      	lsls	r0, r0, #6
    6362:	1e45      	subs	r5, r0, #1
    6364:	41a8      	sbcs	r0, r5
    6366:	00db      	lsls	r3, r3, #3
    6368:	4303      	orrs	r3, r0
    636a:	0f52      	lsrs	r2, r2, #29
    636c:	4313      	orrs	r3, r2
    636e:	075a      	lsls	r2, r3, #29
    6370:	d004      	beq.n	637c <__aeabi_d2f+0x44>
    6372:	220f      	movs	r2, #15
    6374:	401a      	ands	r2, r3
    6376:	2a04      	cmp	r2, #4
    6378:	d000      	beq.n	637c <__aeabi_d2f+0x44>
    637a:	3304      	adds	r3, #4
    637c:	2280      	movs	r2, #128	; 0x80
    637e:	04d2      	lsls	r2, r2, #19
    6380:	401a      	ands	r2, r3
    6382:	d027      	beq.n	63d4 <__aeabi_d2f+0x9c>
    6384:	3401      	adds	r4, #1
    6386:	2cff      	cmp	r4, #255	; 0xff
    6388:	d003      	beq.n	6392 <__aeabi_d2f+0x5a>
    638a:	019b      	lsls	r3, r3, #6
    638c:	0a5b      	lsrs	r3, r3, #9
    638e:	b2e4      	uxtb	r4, r4
    6390:	e001      	b.n	6396 <__aeabi_d2f+0x5e>
    6392:	24ff      	movs	r4, #255	; 0xff
    6394:	2300      	movs	r3, #0
    6396:	025b      	lsls	r3, r3, #9
    6398:	05e4      	lsls	r4, r4, #23
    639a:	0a5b      	lsrs	r3, r3, #9
    639c:	4323      	orrs	r3, r4
    639e:	005b      	lsls	r3, r3, #1
    63a0:	07c9      	lsls	r1, r1, #31
    63a2:	085b      	lsrs	r3, r3, #1
    63a4:	430b      	orrs	r3, r1
    63a6:	1c18      	adds	r0, r3, #0
    63a8:	bd70      	pop	{r4, r5, r6, pc}
    63aa:	2d00      	cmp	r5, #0
    63ac:	d106      	bne.n	63bc <__aeabi_d2f+0x84>
    63ae:	4313      	orrs	r3, r2
    63b0:	d10e      	bne.n	63d0 <__aeabi_d2f+0x98>
    63b2:	2400      	movs	r4, #0
    63b4:	025b      	lsls	r3, r3, #9
    63b6:	0a5b      	lsrs	r3, r3, #9
    63b8:	b2e4      	uxtb	r4, r4
    63ba:	e7ec      	b.n	6396 <__aeabi_d2f+0x5e>
    63bc:	431a      	orrs	r2, r3
    63be:	d0e8      	beq.n	6392 <__aeabi_d2f+0x5a>
    63c0:	2080      	movs	r0, #128	; 0x80
    63c2:	00db      	lsls	r3, r3, #3
    63c4:	0480      	lsls	r0, r0, #18
    63c6:	4303      	orrs	r3, r0
    63c8:	24ff      	movs	r4, #255	; 0xff
    63ca:	e7d0      	b.n	636e <__aeabi_d2f+0x36>
    63cc:	3417      	adds	r4, #23
    63ce:	da0c      	bge.n	63ea <__aeabi_d2f+0xb2>
    63d0:	2305      	movs	r3, #5
    63d2:	2400      	movs	r4, #0
    63d4:	08db      	lsrs	r3, r3, #3
    63d6:	2cff      	cmp	r4, #255	; 0xff
    63d8:	d1ec      	bne.n	63b4 <__aeabi_d2f+0x7c>
    63da:	2b00      	cmp	r3, #0
    63dc:	d02d      	beq.n	643a <__aeabi_d2f+0x102>
    63de:	2280      	movs	r2, #128	; 0x80
    63e0:	03d2      	lsls	r2, r2, #15
    63e2:	4313      	orrs	r3, r2
    63e4:	025b      	lsls	r3, r3, #9
    63e6:	0a5b      	lsrs	r3, r3, #9
    63e8:	e7d5      	b.n	6396 <__aeabi_d2f+0x5e>
    63ea:	2480      	movs	r4, #128	; 0x80
    63ec:	4816      	ldr	r0, [pc, #88]	; (6448 <__aeabi_d2f+0x110>)
    63ee:	0424      	lsls	r4, r4, #16
    63f0:	4323      	orrs	r3, r4
    63f2:	1b40      	subs	r0, r0, r5
    63f4:	281f      	cmp	r0, #31
    63f6:	dc0d      	bgt.n	6414 <__aeabi_d2f+0xdc>
    63f8:	4c14      	ldr	r4, [pc, #80]	; (644c <__aeabi_d2f+0x114>)
    63fa:	46a4      	mov	ip, r4
    63fc:	4465      	add	r5, ip
    63fe:	40ab      	lsls	r3, r5
    6400:	1c1c      	adds	r4, r3, #0
    6402:	1c13      	adds	r3, r2, #0
    6404:	40ab      	lsls	r3, r5
    6406:	1e5d      	subs	r5, r3, #1
    6408:	41ab      	sbcs	r3, r5
    640a:	40c2      	lsrs	r2, r0
    640c:	4323      	orrs	r3, r4
    640e:	4313      	orrs	r3, r2
    6410:	2400      	movs	r4, #0
    6412:	e7ac      	b.n	636e <__aeabi_d2f+0x36>
    6414:	1c1e      	adds	r6, r3, #0
    6416:	4c0e      	ldr	r4, [pc, #56]	; (6450 <__aeabi_d2f+0x118>)
    6418:	1b64      	subs	r4, r4, r5
    641a:	40e6      	lsrs	r6, r4
    641c:	1c34      	adds	r4, r6, #0
    641e:	2820      	cmp	r0, #32
    6420:	d00d      	beq.n	643e <__aeabi_d2f+0x106>
    6422:	480c      	ldr	r0, [pc, #48]	; (6454 <__aeabi_d2f+0x11c>)
    6424:	4684      	mov	ip, r0
    6426:	4465      	add	r5, ip
    6428:	40ab      	lsls	r3, r5
    642a:	1c1d      	adds	r5, r3, #0
    642c:	432a      	orrs	r2, r5
    642e:	1e53      	subs	r3, r2, #1
    6430:	419a      	sbcs	r2, r3
    6432:	1c13      	adds	r3, r2, #0
    6434:	4323      	orrs	r3, r4
    6436:	2400      	movs	r4, #0
    6438:	e799      	b.n	636e <__aeabi_d2f+0x36>
    643a:	2300      	movs	r3, #0
    643c:	e7ab      	b.n	6396 <__aeabi_d2f+0x5e>
    643e:	2500      	movs	r5, #0
    6440:	e7f4      	b.n	642c <__aeabi_d2f+0xf4>
    6442:	46c0      	nop			; (mov r8, r8)
    6444:	fffffc80 	.word	0xfffffc80
    6448:	0000039e 	.word	0x0000039e
    644c:	fffffc82 	.word	0xfffffc82
    6450:	0000037e 	.word	0x0000037e
    6454:	fffffca2 	.word	0xfffffca2

00006458 <__clzsi2>:
    6458:	211c      	movs	r1, #28
    645a:	2301      	movs	r3, #1
    645c:	041b      	lsls	r3, r3, #16
    645e:	4298      	cmp	r0, r3
    6460:	d301      	bcc.n	6466 <__clzsi2+0xe>
    6462:	0c00      	lsrs	r0, r0, #16
    6464:	3910      	subs	r1, #16
    6466:	0a1b      	lsrs	r3, r3, #8
    6468:	4298      	cmp	r0, r3
    646a:	d301      	bcc.n	6470 <__clzsi2+0x18>
    646c:	0a00      	lsrs	r0, r0, #8
    646e:	3908      	subs	r1, #8
    6470:	091b      	lsrs	r3, r3, #4
    6472:	4298      	cmp	r0, r3
    6474:	d301      	bcc.n	647a <__clzsi2+0x22>
    6476:	0900      	lsrs	r0, r0, #4
    6478:	3904      	subs	r1, #4
    647a:	a202      	add	r2, pc, #8	; (adr r2, 6484 <__clzsi2+0x2c>)
    647c:	5c10      	ldrb	r0, [r2, r0]
    647e:	1840      	adds	r0, r0, r1
    6480:	4770      	bx	lr
    6482:	46c0      	nop			; (mov r8, r8)
    6484:	02020304 	.word	0x02020304
    6488:	01010101 	.word	0x01010101
	...

00006494 <__libc_init_array>:
    6494:	4b0e      	ldr	r3, [pc, #56]	; (64d0 <__libc_init_array+0x3c>)
    6496:	b570      	push	{r4, r5, r6, lr}
    6498:	2500      	movs	r5, #0
    649a:	1c1e      	adds	r6, r3, #0
    649c:	4c0d      	ldr	r4, [pc, #52]	; (64d4 <__libc_init_array+0x40>)
    649e:	1ae4      	subs	r4, r4, r3
    64a0:	10a4      	asrs	r4, r4, #2
    64a2:	42a5      	cmp	r5, r4
    64a4:	d004      	beq.n	64b0 <__libc_init_array+0x1c>
    64a6:	00ab      	lsls	r3, r5, #2
    64a8:	58f3      	ldr	r3, [r6, r3]
    64aa:	4798      	blx	r3
    64ac:	3501      	adds	r5, #1
    64ae:	e7f8      	b.n	64a2 <__libc_init_array+0xe>
    64b0:	f001 f9c4 	bl	783c <_init>
    64b4:	4b08      	ldr	r3, [pc, #32]	; (64d8 <__libc_init_array+0x44>)
    64b6:	2500      	movs	r5, #0
    64b8:	1c1e      	adds	r6, r3, #0
    64ba:	4c08      	ldr	r4, [pc, #32]	; (64dc <__libc_init_array+0x48>)
    64bc:	1ae4      	subs	r4, r4, r3
    64be:	10a4      	asrs	r4, r4, #2
    64c0:	42a5      	cmp	r5, r4
    64c2:	d004      	beq.n	64ce <__libc_init_array+0x3a>
    64c4:	00ab      	lsls	r3, r5, #2
    64c6:	58f3      	ldr	r3, [r6, r3]
    64c8:	4798      	blx	r3
    64ca:	3501      	adds	r5, #1
    64cc:	e7f8      	b.n	64c0 <__libc_init_array+0x2c>
    64ce:	bd70      	pop	{r4, r5, r6, pc}
    64d0:	00007848 	.word	0x00007848
    64d4:	00007848 	.word	0x00007848
    64d8:	00007848 	.word	0x00007848
    64dc:	0000784c 	.word	0x0000784c

000064e0 <memcpy>:
    64e0:	2300      	movs	r3, #0
    64e2:	b510      	push	{r4, lr}
    64e4:	4293      	cmp	r3, r2
    64e6:	d003      	beq.n	64f0 <memcpy+0x10>
    64e8:	5ccc      	ldrb	r4, [r1, r3]
    64ea:	54c4      	strb	r4, [r0, r3]
    64ec:	3301      	adds	r3, #1
    64ee:	e7f9      	b.n	64e4 <memcpy+0x4>
    64f0:	bd10      	pop	{r4, pc}

000064f2 <memset>:
    64f2:	1c03      	adds	r3, r0, #0
    64f4:	1882      	adds	r2, r0, r2
    64f6:	4293      	cmp	r3, r2
    64f8:	d002      	beq.n	6500 <memset+0xe>
    64fa:	7019      	strb	r1, [r3, #0]
    64fc:	3301      	adds	r3, #1
    64fe:	e7fa      	b.n	64f6 <memset+0x4>
    6500:	4770      	bx	lr
	...

00006504 <iprintf>:
    6504:	b40f      	push	{r0, r1, r2, r3}
    6506:	4b0b      	ldr	r3, [pc, #44]	; (6534 <iprintf+0x30>)
    6508:	b513      	push	{r0, r1, r4, lr}
    650a:	681c      	ldr	r4, [r3, #0]
    650c:	2c00      	cmp	r4, #0
    650e:	d005      	beq.n	651c <iprintf+0x18>
    6510:	69a3      	ldr	r3, [r4, #24]
    6512:	2b00      	cmp	r3, #0
    6514:	d102      	bne.n	651c <iprintf+0x18>
    6516:	1c20      	adds	r0, r4, #0
    6518:	f000 face 	bl	6ab8 <__sinit>
    651c:	ab05      	add	r3, sp, #20
    651e:	1c20      	adds	r0, r4, #0
    6520:	68a1      	ldr	r1, [r4, #8]
    6522:	9a04      	ldr	r2, [sp, #16]
    6524:	9301      	str	r3, [sp, #4]
    6526:	f000 fc81 	bl	6e2c <_vfiprintf_r>
    652a:	bc16      	pop	{r1, r2, r4}
    652c:	bc08      	pop	{r3}
    652e:	b004      	add	sp, #16
    6530:	4718      	bx	r3
    6532:	46c0      	nop			; (mov r8, r8)
    6534:	20000074 	.word	0x20000074

00006538 <_puts_r>:
    6538:	b570      	push	{r4, r5, r6, lr}
    653a:	1c05      	adds	r5, r0, #0
    653c:	1c0e      	adds	r6, r1, #0
    653e:	2800      	cmp	r0, #0
    6540:	d004      	beq.n	654c <_puts_r+0x14>
    6542:	6983      	ldr	r3, [r0, #24]
    6544:	2b00      	cmp	r3, #0
    6546:	d101      	bne.n	654c <_puts_r+0x14>
    6548:	f000 fab6 	bl	6ab8 <__sinit>
    654c:	68ac      	ldr	r4, [r5, #8]
    654e:	89a3      	ldrh	r3, [r4, #12]
    6550:	071b      	lsls	r3, r3, #28
    6552:	d502      	bpl.n	655a <_puts_r+0x22>
    6554:	6923      	ldr	r3, [r4, #16]
    6556:	2b00      	cmp	r3, #0
    6558:	d119      	bne.n	658e <_puts_r+0x56>
    655a:	1c28      	adds	r0, r5, #0
    655c:	1c21      	adds	r1, r4, #0
    655e:	f000 f93f 	bl	67e0 <__swsetup_r>
    6562:	2800      	cmp	r0, #0
    6564:	d013      	beq.n	658e <_puts_r+0x56>
    6566:	2001      	movs	r0, #1
    6568:	4240      	negs	r0, r0
    656a:	e045      	b.n	65f8 <_puts_r+0xc0>
    656c:	7831      	ldrb	r1, [r6, #0]
    656e:	2b00      	cmp	r3, #0
    6570:	da1b      	bge.n	65aa <_puts_r+0x72>
    6572:	69a2      	ldr	r2, [r4, #24]
    6574:	4293      	cmp	r3, r2
    6576:	da11      	bge.n	659c <_puts_r+0x64>
    6578:	1c22      	adds	r2, r4, #0
    657a:	1c28      	adds	r0, r5, #0
    657c:	f000 f8d8 	bl	6730 <__swbuf_r>
    6580:	3001      	adds	r0, #1
    6582:	4242      	negs	r2, r0
    6584:	4142      	adcs	r2, r0
    6586:	b2d0      	uxtb	r0, r2
    6588:	2800      	cmp	r0, #0
    658a:	d1ec      	bne.n	6566 <_puts_r+0x2e>
    658c:	3601      	adds	r6, #1
    658e:	68a3      	ldr	r3, [r4, #8]
    6590:	7832      	ldrb	r2, [r6, #0]
    6592:	3b01      	subs	r3, #1
    6594:	60a3      	str	r3, [r4, #8]
    6596:	2a00      	cmp	r2, #0
    6598:	d1e8      	bne.n	656c <_puts_r+0x34>
    659a:	e00c      	b.n	65b6 <_puts_r+0x7e>
    659c:	6823      	ldr	r3, [r4, #0]
    659e:	7019      	strb	r1, [r3, #0]
    65a0:	6823      	ldr	r3, [r4, #0]
    65a2:	7819      	ldrb	r1, [r3, #0]
    65a4:	290a      	cmp	r1, #10
    65a6:	d103      	bne.n	65b0 <_puts_r+0x78>
    65a8:	e7e6      	b.n	6578 <_puts_r+0x40>
    65aa:	6823      	ldr	r3, [r4, #0]
    65ac:	7019      	strb	r1, [r3, #0]
    65ae:	6823      	ldr	r3, [r4, #0]
    65b0:	3301      	adds	r3, #1
    65b2:	6023      	str	r3, [r4, #0]
    65b4:	e7ea      	b.n	658c <_puts_r+0x54>
    65b6:	2b00      	cmp	r3, #0
    65b8:	da17      	bge.n	65ea <_puts_r+0xb2>
    65ba:	69a2      	ldr	r2, [r4, #24]
    65bc:	4293      	cmp	r3, r2
    65be:	db08      	blt.n	65d2 <_puts_r+0x9a>
    65c0:	230a      	movs	r3, #10
    65c2:	6822      	ldr	r2, [r4, #0]
    65c4:	7013      	strb	r3, [r2, #0]
    65c6:	6823      	ldr	r3, [r4, #0]
    65c8:	7819      	ldrb	r1, [r3, #0]
    65ca:	290a      	cmp	r1, #10
    65cc:	d111      	bne.n	65f2 <_puts_r+0xba>
    65ce:	1c28      	adds	r0, r5, #0
    65d0:	e001      	b.n	65d6 <_puts_r+0x9e>
    65d2:	1c28      	adds	r0, r5, #0
    65d4:	210a      	movs	r1, #10
    65d6:	1c22      	adds	r2, r4, #0
    65d8:	f000 f8aa 	bl	6730 <__swbuf_r>
    65dc:	3001      	adds	r0, #1
    65de:	4242      	negs	r2, r0
    65e0:	4142      	adcs	r2, r0
    65e2:	b2d0      	uxtb	r0, r2
    65e4:	2800      	cmp	r0, #0
    65e6:	d006      	beq.n	65f6 <_puts_r+0xbe>
    65e8:	e7bd      	b.n	6566 <_puts_r+0x2e>
    65ea:	230a      	movs	r3, #10
    65ec:	6822      	ldr	r2, [r4, #0]
    65ee:	7013      	strb	r3, [r2, #0]
    65f0:	6823      	ldr	r3, [r4, #0]
    65f2:	3301      	adds	r3, #1
    65f4:	6023      	str	r3, [r4, #0]
    65f6:	200a      	movs	r0, #10
    65f8:	bd70      	pop	{r4, r5, r6, pc}
	...

000065fc <puts>:
    65fc:	b508      	push	{r3, lr}
    65fe:	4b03      	ldr	r3, [pc, #12]	; (660c <puts+0x10>)
    6600:	1c01      	adds	r1, r0, #0
    6602:	6818      	ldr	r0, [r3, #0]
    6604:	f7ff ff98 	bl	6538 <_puts_r>
    6608:	bd08      	pop	{r3, pc}
    660a:	46c0      	nop			; (mov r8, r8)
    660c:	20000074 	.word	0x20000074

00006610 <setbuf>:
    6610:	b508      	push	{r3, lr}
    6612:	424a      	negs	r2, r1
    6614:	414a      	adcs	r2, r1
    6616:	2380      	movs	r3, #128	; 0x80
    6618:	0052      	lsls	r2, r2, #1
    661a:	00db      	lsls	r3, r3, #3
    661c:	f000 f802 	bl	6624 <setvbuf>
    6620:	bd08      	pop	{r3, pc}
	...

00006624 <setvbuf>:
    6624:	b5f7      	push	{r0, r1, r2, r4, r5, r6, r7, lr}
    6626:	1c1e      	adds	r6, r3, #0
    6628:	4b3c      	ldr	r3, [pc, #240]	; (671c <setvbuf+0xf8>)
    662a:	1c04      	adds	r4, r0, #0
    662c:	681d      	ldr	r5, [r3, #0]
    662e:	1c0f      	adds	r7, r1, #0
    6630:	9201      	str	r2, [sp, #4]
    6632:	2d00      	cmp	r5, #0
    6634:	d005      	beq.n	6642 <setvbuf+0x1e>
    6636:	69ab      	ldr	r3, [r5, #24]
    6638:	2b00      	cmp	r3, #0
    663a:	d102      	bne.n	6642 <setvbuf+0x1e>
    663c:	1c28      	adds	r0, r5, #0
    663e:	f000 fa3b 	bl	6ab8 <__sinit>
    6642:	4b37      	ldr	r3, [pc, #220]	; (6720 <setvbuf+0xfc>)
    6644:	429c      	cmp	r4, r3
    6646:	d101      	bne.n	664c <setvbuf+0x28>
    6648:	686c      	ldr	r4, [r5, #4]
    664a:	e008      	b.n	665e <setvbuf+0x3a>
    664c:	4b35      	ldr	r3, [pc, #212]	; (6724 <setvbuf+0x100>)
    664e:	429c      	cmp	r4, r3
    6650:	d101      	bne.n	6656 <setvbuf+0x32>
    6652:	68ac      	ldr	r4, [r5, #8]
    6654:	e003      	b.n	665e <setvbuf+0x3a>
    6656:	4b34      	ldr	r3, [pc, #208]	; (6728 <setvbuf+0x104>)
    6658:	429c      	cmp	r4, r3
    665a:	d100      	bne.n	665e <setvbuf+0x3a>
    665c:	68ec      	ldr	r4, [r5, #12]
    665e:	9b01      	ldr	r3, [sp, #4]
    6660:	2b02      	cmp	r3, #2
    6662:	d858      	bhi.n	6716 <setvbuf+0xf2>
    6664:	2e00      	cmp	r6, #0
    6666:	db56      	blt.n	6716 <setvbuf+0xf2>
    6668:	1c28      	adds	r0, r5, #0
    666a:	1c21      	adds	r1, r4, #0
    666c:	f000 f9b6 	bl	69dc <_fflush_r>
    6670:	2300      	movs	r3, #0
    6672:	6063      	str	r3, [r4, #4]
    6674:	61a3      	str	r3, [r4, #24]
    6676:	89a3      	ldrh	r3, [r4, #12]
    6678:	061b      	lsls	r3, r3, #24
    667a:	d503      	bpl.n	6684 <setvbuf+0x60>
    667c:	1c28      	adds	r0, r5, #0
    667e:	6921      	ldr	r1, [r4, #16]
    6680:	f000 fb0e 	bl	6ca0 <_free_r>
    6684:	2283      	movs	r2, #131	; 0x83
    6686:	89a3      	ldrh	r3, [r4, #12]
    6688:	4393      	bics	r3, r2
    668a:	81a3      	strh	r3, [r4, #12]
    668c:	9b01      	ldr	r3, [sp, #4]
    668e:	2b02      	cmp	r3, #2
    6690:	d013      	beq.n	66ba <setvbuf+0x96>
    6692:	2f00      	cmp	r7, #0
    6694:	d125      	bne.n	66e2 <setvbuf+0xbe>
    6696:	2e00      	cmp	r6, #0
    6698:	d101      	bne.n	669e <setvbuf+0x7a>
    669a:	2680      	movs	r6, #128	; 0x80
    669c:	00f6      	lsls	r6, r6, #3
    669e:	1c30      	adds	r0, r6, #0
    66a0:	f000 faf4 	bl	6c8c <malloc>
    66a4:	1e07      	subs	r7, r0, #0
    66a6:	d118      	bne.n	66da <setvbuf+0xb6>
    66a8:	2080      	movs	r0, #128	; 0x80
    66aa:	00c0      	lsls	r0, r0, #3
    66ac:	f000 faee 	bl	6c8c <malloc>
    66b0:	1e07      	subs	r7, r0, #0
    66b2:	d110      	bne.n	66d6 <setvbuf+0xb2>
    66b4:	2001      	movs	r0, #1
    66b6:	4240      	negs	r0, r0
    66b8:	e000      	b.n	66bc <setvbuf+0x98>
    66ba:	2000      	movs	r0, #0
    66bc:	2202      	movs	r2, #2
    66be:	89a3      	ldrh	r3, [r4, #12]
    66c0:	4313      	orrs	r3, r2
    66c2:	81a3      	strh	r3, [r4, #12]
    66c4:	2300      	movs	r3, #0
    66c6:	60a3      	str	r3, [r4, #8]
    66c8:	1c23      	adds	r3, r4, #0
    66ca:	3347      	adds	r3, #71	; 0x47
    66cc:	6023      	str	r3, [r4, #0]
    66ce:	6123      	str	r3, [r4, #16]
    66d0:	2301      	movs	r3, #1
    66d2:	6163      	str	r3, [r4, #20]
    66d4:	e021      	b.n	671a <setvbuf+0xf6>
    66d6:	2680      	movs	r6, #128	; 0x80
    66d8:	00f6      	lsls	r6, r6, #3
    66da:	2280      	movs	r2, #128	; 0x80
    66dc:	89a3      	ldrh	r3, [r4, #12]
    66de:	4313      	orrs	r3, r2
    66e0:	81a3      	strh	r3, [r4, #12]
    66e2:	9b01      	ldr	r3, [sp, #4]
    66e4:	2b01      	cmp	r3, #1
    66e6:	d105      	bne.n	66f4 <setvbuf+0xd0>
    66e8:	89a3      	ldrh	r3, [r4, #12]
    66ea:	9a01      	ldr	r2, [sp, #4]
    66ec:	431a      	orrs	r2, r3
    66ee:	4273      	negs	r3, r6
    66f0:	81a2      	strh	r2, [r4, #12]
    66f2:	61a3      	str	r3, [r4, #24]
    66f4:	4b0d      	ldr	r3, [pc, #52]	; (672c <setvbuf+0x108>)
    66f6:	2000      	movs	r0, #0
    66f8:	62ab      	str	r3, [r5, #40]	; 0x28
    66fa:	89a2      	ldrh	r2, [r4, #12]
    66fc:	6027      	str	r7, [r4, #0]
    66fe:	6127      	str	r7, [r4, #16]
    6700:	6166      	str	r6, [r4, #20]
    6702:	0713      	lsls	r3, r2, #28
    6704:	d509      	bpl.n	671a <setvbuf+0xf6>
    6706:	2303      	movs	r3, #3
    6708:	401a      	ands	r2, r3
    670a:	4253      	negs	r3, r2
    670c:	4153      	adcs	r3, r2
    670e:	425b      	negs	r3, r3
    6710:	401e      	ands	r6, r3
    6712:	60a6      	str	r6, [r4, #8]
    6714:	e001      	b.n	671a <setvbuf+0xf6>
    6716:	2001      	movs	r0, #1
    6718:	4240      	negs	r0, r0
    671a:	bdfe      	pop	{r1, r2, r3, r4, r5, r6, r7, pc}
    671c:	20000074 	.word	0x20000074
    6720:	000077a8 	.word	0x000077a8
    6724:	000077c8 	.word	0x000077c8
    6728:	000077e8 	.word	0x000077e8
    672c:	00006a35 	.word	0x00006a35

00006730 <__swbuf_r>:
    6730:	b570      	push	{r4, r5, r6, lr}
    6732:	1c05      	adds	r5, r0, #0
    6734:	1c0e      	adds	r6, r1, #0
    6736:	1c14      	adds	r4, r2, #0
    6738:	2800      	cmp	r0, #0
    673a:	d004      	beq.n	6746 <__swbuf_r+0x16>
    673c:	6983      	ldr	r3, [r0, #24]
    673e:	2b00      	cmp	r3, #0
    6740:	d101      	bne.n	6746 <__swbuf_r+0x16>
    6742:	f000 f9b9 	bl	6ab8 <__sinit>
    6746:	4b23      	ldr	r3, [pc, #140]	; (67d4 <__swbuf_r+0xa4>)
    6748:	429c      	cmp	r4, r3
    674a:	d101      	bne.n	6750 <__swbuf_r+0x20>
    674c:	686c      	ldr	r4, [r5, #4]
    674e:	e008      	b.n	6762 <__swbuf_r+0x32>
    6750:	4b21      	ldr	r3, [pc, #132]	; (67d8 <__swbuf_r+0xa8>)
    6752:	429c      	cmp	r4, r3
    6754:	d101      	bne.n	675a <__swbuf_r+0x2a>
    6756:	68ac      	ldr	r4, [r5, #8]
    6758:	e003      	b.n	6762 <__swbuf_r+0x32>
    675a:	4b20      	ldr	r3, [pc, #128]	; (67dc <__swbuf_r+0xac>)
    675c:	429c      	cmp	r4, r3
    675e:	d100      	bne.n	6762 <__swbuf_r+0x32>
    6760:	68ec      	ldr	r4, [r5, #12]
    6762:	69a3      	ldr	r3, [r4, #24]
    6764:	60a3      	str	r3, [r4, #8]
    6766:	89a3      	ldrh	r3, [r4, #12]
    6768:	071b      	lsls	r3, r3, #28
    676a:	d50a      	bpl.n	6782 <__swbuf_r+0x52>
    676c:	6923      	ldr	r3, [r4, #16]
    676e:	2b00      	cmp	r3, #0
    6770:	d007      	beq.n	6782 <__swbuf_r+0x52>
    6772:	6823      	ldr	r3, [r4, #0]
    6774:	6922      	ldr	r2, [r4, #16]
    6776:	b2f6      	uxtb	r6, r6
    6778:	1a98      	subs	r0, r3, r2
    677a:	6963      	ldr	r3, [r4, #20]
    677c:	4298      	cmp	r0, r3
    677e:	db0f      	blt.n	67a0 <__swbuf_r+0x70>
    6780:	e008      	b.n	6794 <__swbuf_r+0x64>
    6782:	1c28      	adds	r0, r5, #0
    6784:	1c21      	adds	r1, r4, #0
    6786:	f000 f82b 	bl	67e0 <__swsetup_r>
    678a:	2800      	cmp	r0, #0
    678c:	d0f1      	beq.n	6772 <__swbuf_r+0x42>
    678e:	2001      	movs	r0, #1
    6790:	4240      	negs	r0, r0
    6792:	e01d      	b.n	67d0 <__swbuf_r+0xa0>
    6794:	1c28      	adds	r0, r5, #0
    6796:	1c21      	adds	r1, r4, #0
    6798:	f000 f920 	bl	69dc <_fflush_r>
    679c:	2800      	cmp	r0, #0
    679e:	d1f6      	bne.n	678e <__swbuf_r+0x5e>
    67a0:	68a3      	ldr	r3, [r4, #8]
    67a2:	3001      	adds	r0, #1
    67a4:	3b01      	subs	r3, #1
    67a6:	60a3      	str	r3, [r4, #8]
    67a8:	6823      	ldr	r3, [r4, #0]
    67aa:	1c5a      	adds	r2, r3, #1
    67ac:	6022      	str	r2, [r4, #0]
    67ae:	701e      	strb	r6, [r3, #0]
    67b0:	6963      	ldr	r3, [r4, #20]
    67b2:	4298      	cmp	r0, r3
    67b4:	d005      	beq.n	67c2 <__swbuf_r+0x92>
    67b6:	89a3      	ldrh	r3, [r4, #12]
    67b8:	1c30      	adds	r0, r6, #0
    67ba:	07db      	lsls	r3, r3, #31
    67bc:	d508      	bpl.n	67d0 <__swbuf_r+0xa0>
    67be:	2e0a      	cmp	r6, #10
    67c0:	d106      	bne.n	67d0 <__swbuf_r+0xa0>
    67c2:	1c28      	adds	r0, r5, #0
    67c4:	1c21      	adds	r1, r4, #0
    67c6:	f000 f909 	bl	69dc <_fflush_r>
    67ca:	2800      	cmp	r0, #0
    67cc:	d1df      	bne.n	678e <__swbuf_r+0x5e>
    67ce:	1c30      	adds	r0, r6, #0
    67d0:	bd70      	pop	{r4, r5, r6, pc}
    67d2:	46c0      	nop			; (mov r8, r8)
    67d4:	000077a8 	.word	0x000077a8
    67d8:	000077c8 	.word	0x000077c8
    67dc:	000077e8 	.word	0x000077e8

000067e0 <__swsetup_r>:
    67e0:	4b35      	ldr	r3, [pc, #212]	; (68b8 <__swsetup_r+0xd8>)
    67e2:	b570      	push	{r4, r5, r6, lr}
    67e4:	681d      	ldr	r5, [r3, #0]
    67e6:	1c06      	adds	r6, r0, #0
    67e8:	1c0c      	adds	r4, r1, #0
    67ea:	2d00      	cmp	r5, #0
    67ec:	d005      	beq.n	67fa <__swsetup_r+0x1a>
    67ee:	69ab      	ldr	r3, [r5, #24]
    67f0:	2b00      	cmp	r3, #0
    67f2:	d102      	bne.n	67fa <__swsetup_r+0x1a>
    67f4:	1c28      	adds	r0, r5, #0
    67f6:	f000 f95f 	bl	6ab8 <__sinit>
    67fa:	4b30      	ldr	r3, [pc, #192]	; (68bc <__swsetup_r+0xdc>)
    67fc:	429c      	cmp	r4, r3
    67fe:	d101      	bne.n	6804 <__swsetup_r+0x24>
    6800:	686c      	ldr	r4, [r5, #4]
    6802:	e008      	b.n	6816 <__swsetup_r+0x36>
    6804:	4b2e      	ldr	r3, [pc, #184]	; (68c0 <__swsetup_r+0xe0>)
    6806:	429c      	cmp	r4, r3
    6808:	d101      	bne.n	680e <__swsetup_r+0x2e>
    680a:	68ac      	ldr	r4, [r5, #8]
    680c:	e003      	b.n	6816 <__swsetup_r+0x36>
    680e:	4b2d      	ldr	r3, [pc, #180]	; (68c4 <__swsetup_r+0xe4>)
    6810:	429c      	cmp	r4, r3
    6812:	d100      	bne.n	6816 <__swsetup_r+0x36>
    6814:	68ec      	ldr	r4, [r5, #12]
    6816:	89a3      	ldrh	r3, [r4, #12]
    6818:	b29a      	uxth	r2, r3
    681a:	0711      	lsls	r1, r2, #28
    681c:	d423      	bmi.n	6866 <__swsetup_r+0x86>
    681e:	06d1      	lsls	r1, r2, #27
    6820:	d407      	bmi.n	6832 <__swsetup_r+0x52>
    6822:	2209      	movs	r2, #9
    6824:	2001      	movs	r0, #1
    6826:	6032      	str	r2, [r6, #0]
    6828:	3237      	adds	r2, #55	; 0x37
    682a:	4313      	orrs	r3, r2
    682c:	81a3      	strh	r3, [r4, #12]
    682e:	4240      	negs	r0, r0
    6830:	e040      	b.n	68b4 <__swsetup_r+0xd4>
    6832:	0753      	lsls	r3, r2, #29
    6834:	d513      	bpl.n	685e <__swsetup_r+0x7e>
    6836:	6b61      	ldr	r1, [r4, #52]	; 0x34
    6838:	2900      	cmp	r1, #0
    683a:	d008      	beq.n	684e <__swsetup_r+0x6e>
    683c:	1c23      	adds	r3, r4, #0
    683e:	3344      	adds	r3, #68	; 0x44
    6840:	4299      	cmp	r1, r3
    6842:	d002      	beq.n	684a <__swsetup_r+0x6a>
    6844:	1c30      	adds	r0, r6, #0
    6846:	f000 fa2b 	bl	6ca0 <_free_r>
    684a:	2300      	movs	r3, #0
    684c:	6363      	str	r3, [r4, #52]	; 0x34
    684e:	2224      	movs	r2, #36	; 0x24
    6850:	89a3      	ldrh	r3, [r4, #12]
    6852:	4393      	bics	r3, r2
    6854:	81a3      	strh	r3, [r4, #12]
    6856:	2300      	movs	r3, #0
    6858:	6063      	str	r3, [r4, #4]
    685a:	6923      	ldr	r3, [r4, #16]
    685c:	6023      	str	r3, [r4, #0]
    685e:	2208      	movs	r2, #8
    6860:	89a3      	ldrh	r3, [r4, #12]
    6862:	4313      	orrs	r3, r2
    6864:	81a3      	strh	r3, [r4, #12]
    6866:	6923      	ldr	r3, [r4, #16]
    6868:	2b00      	cmp	r3, #0
    686a:	d10b      	bne.n	6884 <__swsetup_r+0xa4>
    686c:	23a0      	movs	r3, #160	; 0xa0
    686e:	89a2      	ldrh	r2, [r4, #12]
    6870:	009b      	lsls	r3, r3, #2
    6872:	4013      	ands	r3, r2
    6874:	2280      	movs	r2, #128	; 0x80
    6876:	0092      	lsls	r2, r2, #2
    6878:	4293      	cmp	r3, r2
    687a:	d003      	beq.n	6884 <__swsetup_r+0xa4>
    687c:	1c30      	adds	r0, r6, #0
    687e:	1c21      	adds	r1, r4, #0
    6880:	f000 f9ac 	bl	6bdc <__smakebuf_r>
    6884:	2301      	movs	r3, #1
    6886:	89a2      	ldrh	r2, [r4, #12]
    6888:	4013      	ands	r3, r2
    688a:	d005      	beq.n	6898 <__swsetup_r+0xb8>
    688c:	2300      	movs	r3, #0
    688e:	60a3      	str	r3, [r4, #8]
    6890:	6963      	ldr	r3, [r4, #20]
    6892:	425b      	negs	r3, r3
    6894:	61a3      	str	r3, [r4, #24]
    6896:	e003      	b.n	68a0 <__swsetup_r+0xc0>
    6898:	0791      	lsls	r1, r2, #30
    689a:	d400      	bmi.n	689e <__swsetup_r+0xbe>
    689c:	6963      	ldr	r3, [r4, #20]
    689e:	60a3      	str	r3, [r4, #8]
    68a0:	2000      	movs	r0, #0
    68a2:	6923      	ldr	r3, [r4, #16]
    68a4:	4283      	cmp	r3, r0
    68a6:	d105      	bne.n	68b4 <__swsetup_r+0xd4>
    68a8:	0613      	lsls	r3, r2, #24
    68aa:	d503      	bpl.n	68b4 <__swsetup_r+0xd4>
    68ac:	2340      	movs	r3, #64	; 0x40
    68ae:	431a      	orrs	r2, r3
    68b0:	81a2      	strh	r2, [r4, #12]
    68b2:	3801      	subs	r0, #1
    68b4:	bd70      	pop	{r4, r5, r6, pc}
    68b6:	46c0      	nop			; (mov r8, r8)
    68b8:	20000074 	.word	0x20000074
    68bc:	000077a8 	.word	0x000077a8
    68c0:	000077c8 	.word	0x000077c8
    68c4:	000077e8 	.word	0x000077e8

000068c8 <__sflush_r>:
    68c8:	b5f7      	push	{r0, r1, r2, r4, r5, r6, r7, lr}
    68ca:	898a      	ldrh	r2, [r1, #12]
    68cc:	1c05      	adds	r5, r0, #0
    68ce:	1c0c      	adds	r4, r1, #0
    68d0:	0713      	lsls	r3, r2, #28
    68d2:	d45e      	bmi.n	6992 <__sflush_r+0xca>
    68d4:	684b      	ldr	r3, [r1, #4]
    68d6:	2b00      	cmp	r3, #0
    68d8:	dc02      	bgt.n	68e0 <__sflush_r+0x18>
    68da:	6c0b      	ldr	r3, [r1, #64]	; 0x40
    68dc:	2b00      	cmp	r3, #0
    68de:	dd1a      	ble.n	6916 <__sflush_r+0x4e>
    68e0:	6ae7      	ldr	r7, [r4, #44]	; 0x2c
    68e2:	2f00      	cmp	r7, #0
    68e4:	d017      	beq.n	6916 <__sflush_r+0x4e>
    68e6:	2300      	movs	r3, #0
    68e8:	682e      	ldr	r6, [r5, #0]
    68ea:	602b      	str	r3, [r5, #0]
    68ec:	2380      	movs	r3, #128	; 0x80
    68ee:	015b      	lsls	r3, r3, #5
    68f0:	401a      	ands	r2, r3
    68f2:	d001      	beq.n	68f8 <__sflush_r+0x30>
    68f4:	6d62      	ldr	r2, [r4, #84]	; 0x54
    68f6:	e015      	b.n	6924 <__sflush_r+0x5c>
    68f8:	1c28      	adds	r0, r5, #0
    68fa:	6a21      	ldr	r1, [r4, #32]
    68fc:	2301      	movs	r3, #1
    68fe:	47b8      	blx	r7
    6900:	1c02      	adds	r2, r0, #0
    6902:	1c43      	adds	r3, r0, #1
    6904:	d10e      	bne.n	6924 <__sflush_r+0x5c>
    6906:	682b      	ldr	r3, [r5, #0]
    6908:	2b00      	cmp	r3, #0
    690a:	d00b      	beq.n	6924 <__sflush_r+0x5c>
    690c:	2b1d      	cmp	r3, #29
    690e:	d001      	beq.n	6914 <__sflush_r+0x4c>
    6910:	2b16      	cmp	r3, #22
    6912:	d102      	bne.n	691a <__sflush_r+0x52>
    6914:	602e      	str	r6, [r5, #0]
    6916:	2000      	movs	r0, #0
    6918:	e05e      	b.n	69d8 <__sflush_r+0x110>
    691a:	2140      	movs	r1, #64	; 0x40
    691c:	89a3      	ldrh	r3, [r4, #12]
    691e:	430b      	orrs	r3, r1
    6920:	81a3      	strh	r3, [r4, #12]
    6922:	e059      	b.n	69d8 <__sflush_r+0x110>
    6924:	89a3      	ldrh	r3, [r4, #12]
    6926:	075b      	lsls	r3, r3, #29
    6928:	d506      	bpl.n	6938 <__sflush_r+0x70>
    692a:	6863      	ldr	r3, [r4, #4]
    692c:	1ad2      	subs	r2, r2, r3
    692e:	6b63      	ldr	r3, [r4, #52]	; 0x34
    6930:	2b00      	cmp	r3, #0
    6932:	d001      	beq.n	6938 <__sflush_r+0x70>
    6934:	6c23      	ldr	r3, [r4, #64]	; 0x40
    6936:	1ad2      	subs	r2, r2, r3
    6938:	2300      	movs	r3, #0
    693a:	1c28      	adds	r0, r5, #0
    693c:	6a21      	ldr	r1, [r4, #32]
    693e:	6ae7      	ldr	r7, [r4, #44]	; 0x2c
    6940:	47b8      	blx	r7
    6942:	89a3      	ldrh	r3, [r4, #12]
    6944:	1c42      	adds	r2, r0, #1
    6946:	d106      	bne.n	6956 <__sflush_r+0x8e>
    6948:	682a      	ldr	r2, [r5, #0]
    694a:	2a00      	cmp	r2, #0
    694c:	d003      	beq.n	6956 <__sflush_r+0x8e>
    694e:	2a1d      	cmp	r2, #29
    6950:	d001      	beq.n	6956 <__sflush_r+0x8e>
    6952:	2a16      	cmp	r2, #22
    6954:	d119      	bne.n	698a <__sflush_r+0xc2>
    6956:	2200      	movs	r2, #0
    6958:	6062      	str	r2, [r4, #4]
    695a:	6922      	ldr	r2, [r4, #16]
    695c:	6022      	str	r2, [r4, #0]
    695e:	04db      	lsls	r3, r3, #19
    6960:	d505      	bpl.n	696e <__sflush_r+0xa6>
    6962:	1c43      	adds	r3, r0, #1
    6964:	d102      	bne.n	696c <__sflush_r+0xa4>
    6966:	682b      	ldr	r3, [r5, #0]
    6968:	2b00      	cmp	r3, #0
    696a:	d100      	bne.n	696e <__sflush_r+0xa6>
    696c:	6560      	str	r0, [r4, #84]	; 0x54
    696e:	6b61      	ldr	r1, [r4, #52]	; 0x34
    6970:	602e      	str	r6, [r5, #0]
    6972:	2900      	cmp	r1, #0
    6974:	d0cf      	beq.n	6916 <__sflush_r+0x4e>
    6976:	1c23      	adds	r3, r4, #0
    6978:	3344      	adds	r3, #68	; 0x44
    697a:	4299      	cmp	r1, r3
    697c:	d002      	beq.n	6984 <__sflush_r+0xbc>
    697e:	1c28      	adds	r0, r5, #0
    6980:	f000 f98e 	bl	6ca0 <_free_r>
    6984:	2000      	movs	r0, #0
    6986:	6360      	str	r0, [r4, #52]	; 0x34
    6988:	e026      	b.n	69d8 <__sflush_r+0x110>
    698a:	2240      	movs	r2, #64	; 0x40
    698c:	4313      	orrs	r3, r2
    698e:	81a3      	strh	r3, [r4, #12]
    6990:	e022      	b.n	69d8 <__sflush_r+0x110>
    6992:	690f      	ldr	r7, [r1, #16]
    6994:	2f00      	cmp	r7, #0
    6996:	d0be      	beq.n	6916 <__sflush_r+0x4e>
    6998:	680b      	ldr	r3, [r1, #0]
    699a:	600f      	str	r7, [r1, #0]
    699c:	1bdb      	subs	r3, r3, r7
    699e:	9301      	str	r3, [sp, #4]
    69a0:	2300      	movs	r3, #0
    69a2:	0792      	lsls	r2, r2, #30
    69a4:	d100      	bne.n	69a8 <__sflush_r+0xe0>
    69a6:	694b      	ldr	r3, [r1, #20]
    69a8:	60a3      	str	r3, [r4, #8]
    69aa:	9b01      	ldr	r3, [sp, #4]
    69ac:	2b00      	cmp	r3, #0
    69ae:	ddb2      	ble.n	6916 <__sflush_r+0x4e>
    69b0:	1c28      	adds	r0, r5, #0
    69b2:	6a21      	ldr	r1, [r4, #32]
    69b4:	1c3a      	adds	r2, r7, #0
    69b6:	9b01      	ldr	r3, [sp, #4]
    69b8:	6aa6      	ldr	r6, [r4, #40]	; 0x28
    69ba:	47b0      	blx	r6
    69bc:	2800      	cmp	r0, #0
    69be:	dc06      	bgt.n	69ce <__sflush_r+0x106>
    69c0:	2240      	movs	r2, #64	; 0x40
    69c2:	2001      	movs	r0, #1
    69c4:	89a3      	ldrh	r3, [r4, #12]
    69c6:	4240      	negs	r0, r0
    69c8:	4313      	orrs	r3, r2
    69ca:	81a3      	strh	r3, [r4, #12]
    69cc:	e004      	b.n	69d8 <__sflush_r+0x110>
    69ce:	9b01      	ldr	r3, [sp, #4]
    69d0:	183f      	adds	r7, r7, r0
    69d2:	1a1b      	subs	r3, r3, r0
    69d4:	9301      	str	r3, [sp, #4]
    69d6:	e7e8      	b.n	69aa <__sflush_r+0xe2>
    69d8:	bdfe      	pop	{r1, r2, r3, r4, r5, r6, r7, pc}
	...

000069dc <_fflush_r>:
    69dc:	b538      	push	{r3, r4, r5, lr}
    69de:	690b      	ldr	r3, [r1, #16]
    69e0:	1c05      	adds	r5, r0, #0
    69e2:	1c0c      	adds	r4, r1, #0
    69e4:	2b00      	cmp	r3, #0
    69e6:	d101      	bne.n	69ec <_fflush_r+0x10>
    69e8:	2000      	movs	r0, #0
    69ea:	e01c      	b.n	6a26 <_fflush_r+0x4a>
    69ec:	2800      	cmp	r0, #0
    69ee:	d004      	beq.n	69fa <_fflush_r+0x1e>
    69f0:	6983      	ldr	r3, [r0, #24]
    69f2:	2b00      	cmp	r3, #0
    69f4:	d101      	bne.n	69fa <_fflush_r+0x1e>
    69f6:	f000 f85f 	bl	6ab8 <__sinit>
    69fa:	4b0b      	ldr	r3, [pc, #44]	; (6a28 <_fflush_r+0x4c>)
    69fc:	429c      	cmp	r4, r3
    69fe:	d101      	bne.n	6a04 <_fflush_r+0x28>
    6a00:	686c      	ldr	r4, [r5, #4]
    6a02:	e008      	b.n	6a16 <_fflush_r+0x3a>
    6a04:	4b09      	ldr	r3, [pc, #36]	; (6a2c <_fflush_r+0x50>)
    6a06:	429c      	cmp	r4, r3
    6a08:	d101      	bne.n	6a0e <_fflush_r+0x32>
    6a0a:	68ac      	ldr	r4, [r5, #8]
    6a0c:	e003      	b.n	6a16 <_fflush_r+0x3a>
    6a0e:	4b08      	ldr	r3, [pc, #32]	; (6a30 <_fflush_r+0x54>)
    6a10:	429c      	cmp	r4, r3
    6a12:	d100      	bne.n	6a16 <_fflush_r+0x3a>
    6a14:	68ec      	ldr	r4, [r5, #12]
    6a16:	220c      	movs	r2, #12
    6a18:	5ea3      	ldrsh	r3, [r4, r2]
    6a1a:	2b00      	cmp	r3, #0
    6a1c:	d0e4      	beq.n	69e8 <_fflush_r+0xc>
    6a1e:	1c28      	adds	r0, r5, #0
    6a20:	1c21      	adds	r1, r4, #0
    6a22:	f7ff ff51 	bl	68c8 <__sflush_r>
    6a26:	bd38      	pop	{r3, r4, r5, pc}
    6a28:	000077a8 	.word	0x000077a8
    6a2c:	000077c8 	.word	0x000077c8
    6a30:	000077e8 	.word	0x000077e8

00006a34 <_cleanup_r>:
    6a34:	b508      	push	{r3, lr}
    6a36:	4902      	ldr	r1, [pc, #8]	; (6a40 <_cleanup_r+0xc>)
    6a38:	f000 f8ae 	bl	6b98 <_fwalk_reent>
    6a3c:	bd08      	pop	{r3, pc}
    6a3e:	46c0      	nop			; (mov r8, r8)
    6a40:	000069dd 	.word	0x000069dd

00006a44 <std.isra.0>:
    6a44:	2300      	movs	r3, #0
    6a46:	b510      	push	{r4, lr}
    6a48:	1c04      	adds	r4, r0, #0
    6a4a:	6003      	str	r3, [r0, #0]
    6a4c:	6043      	str	r3, [r0, #4]
    6a4e:	6083      	str	r3, [r0, #8]
    6a50:	8181      	strh	r1, [r0, #12]
    6a52:	6643      	str	r3, [r0, #100]	; 0x64
    6a54:	81c2      	strh	r2, [r0, #14]
    6a56:	6103      	str	r3, [r0, #16]
    6a58:	6143      	str	r3, [r0, #20]
    6a5a:	6183      	str	r3, [r0, #24]
    6a5c:	1c19      	adds	r1, r3, #0
    6a5e:	2208      	movs	r2, #8
    6a60:	305c      	adds	r0, #92	; 0x5c
    6a62:	f7ff fd46 	bl	64f2 <memset>
    6a66:	4b05      	ldr	r3, [pc, #20]	; (6a7c <std.isra.0+0x38>)
    6a68:	6224      	str	r4, [r4, #32]
    6a6a:	6263      	str	r3, [r4, #36]	; 0x24
    6a6c:	4b04      	ldr	r3, [pc, #16]	; (6a80 <std.isra.0+0x3c>)
    6a6e:	62a3      	str	r3, [r4, #40]	; 0x28
    6a70:	4b04      	ldr	r3, [pc, #16]	; (6a84 <std.isra.0+0x40>)
    6a72:	62e3      	str	r3, [r4, #44]	; 0x2c
    6a74:	4b04      	ldr	r3, [pc, #16]	; (6a88 <std.isra.0+0x44>)
    6a76:	6323      	str	r3, [r4, #48]	; 0x30
    6a78:	bd10      	pop	{r4, pc}
    6a7a:	46c0      	nop			; (mov r8, r8)
    6a7c:	0000737d 	.word	0x0000737d
    6a80:	000073a5 	.word	0x000073a5
    6a84:	000073dd 	.word	0x000073dd
    6a88:	00007409 	.word	0x00007409

00006a8c <__sfmoreglue>:
    6a8c:	b570      	push	{r4, r5, r6, lr}
    6a8e:	2568      	movs	r5, #104	; 0x68
    6a90:	1e4b      	subs	r3, r1, #1
    6a92:	435d      	muls	r5, r3
    6a94:	1c0e      	adds	r6, r1, #0
    6a96:	1c29      	adds	r1, r5, #0
    6a98:	3174      	adds	r1, #116	; 0x74
    6a9a:	f000 f947 	bl	6d2c <_malloc_r>
    6a9e:	1e04      	subs	r4, r0, #0
    6aa0:	d008      	beq.n	6ab4 <__sfmoreglue+0x28>
    6aa2:	2100      	movs	r1, #0
    6aa4:	1c2a      	adds	r2, r5, #0
    6aa6:	6001      	str	r1, [r0, #0]
    6aa8:	6046      	str	r6, [r0, #4]
    6aaa:	300c      	adds	r0, #12
    6aac:	60a0      	str	r0, [r4, #8]
    6aae:	3268      	adds	r2, #104	; 0x68
    6ab0:	f7ff fd1f 	bl	64f2 <memset>
    6ab4:	1c20      	adds	r0, r4, #0
    6ab6:	bd70      	pop	{r4, r5, r6, pc}

00006ab8 <__sinit>:
    6ab8:	6983      	ldr	r3, [r0, #24]
    6aba:	b513      	push	{r0, r1, r4, lr}
    6abc:	2b00      	cmp	r3, #0
    6abe:	d128      	bne.n	6b12 <__sinit+0x5a>
    6ac0:	6483      	str	r3, [r0, #72]	; 0x48
    6ac2:	64c3      	str	r3, [r0, #76]	; 0x4c
    6ac4:	6503      	str	r3, [r0, #80]	; 0x50
    6ac6:	4b13      	ldr	r3, [pc, #76]	; (6b14 <__sinit+0x5c>)
    6ac8:	4a13      	ldr	r2, [pc, #76]	; (6b18 <__sinit+0x60>)
    6aca:	681b      	ldr	r3, [r3, #0]
    6acc:	6282      	str	r2, [r0, #40]	; 0x28
    6ace:	9301      	str	r3, [sp, #4]
    6ad0:	4298      	cmp	r0, r3
    6ad2:	d101      	bne.n	6ad8 <__sinit+0x20>
    6ad4:	2301      	movs	r3, #1
    6ad6:	6183      	str	r3, [r0, #24]
    6ad8:	1c04      	adds	r4, r0, #0
    6ada:	f000 f81f 	bl	6b1c <__sfp>
    6ade:	6060      	str	r0, [r4, #4]
    6ae0:	1c20      	adds	r0, r4, #0
    6ae2:	f000 f81b 	bl	6b1c <__sfp>
    6ae6:	60a0      	str	r0, [r4, #8]
    6ae8:	1c20      	adds	r0, r4, #0
    6aea:	f000 f817 	bl	6b1c <__sfp>
    6aee:	2104      	movs	r1, #4
    6af0:	60e0      	str	r0, [r4, #12]
    6af2:	2200      	movs	r2, #0
    6af4:	6860      	ldr	r0, [r4, #4]
    6af6:	f7ff ffa5 	bl	6a44 <std.isra.0>
    6afa:	68a0      	ldr	r0, [r4, #8]
    6afc:	2109      	movs	r1, #9
    6afe:	2201      	movs	r2, #1
    6b00:	f7ff ffa0 	bl	6a44 <std.isra.0>
    6b04:	68e0      	ldr	r0, [r4, #12]
    6b06:	2112      	movs	r1, #18
    6b08:	2202      	movs	r2, #2
    6b0a:	f7ff ff9b 	bl	6a44 <std.isra.0>
    6b0e:	2301      	movs	r3, #1
    6b10:	61a3      	str	r3, [r4, #24]
    6b12:	bd13      	pop	{r0, r1, r4, pc}
    6b14:	000077a4 	.word	0x000077a4
    6b18:	00006a35 	.word	0x00006a35

00006b1c <__sfp>:
    6b1c:	b5f8      	push	{r3, r4, r5, r6, r7, lr}
    6b1e:	4b1d      	ldr	r3, [pc, #116]	; (6b94 <__sfp+0x78>)
    6b20:	1c06      	adds	r6, r0, #0
    6b22:	681d      	ldr	r5, [r3, #0]
    6b24:	69ab      	ldr	r3, [r5, #24]
    6b26:	2b00      	cmp	r3, #0
    6b28:	d102      	bne.n	6b30 <__sfp+0x14>
    6b2a:	1c28      	adds	r0, r5, #0
    6b2c:	f7ff ffc4 	bl	6ab8 <__sinit>
    6b30:	3548      	adds	r5, #72	; 0x48
    6b32:	68ac      	ldr	r4, [r5, #8]
    6b34:	686b      	ldr	r3, [r5, #4]
    6b36:	3b01      	subs	r3, #1
    6b38:	d405      	bmi.n	6b46 <__sfp+0x2a>
    6b3a:	220c      	movs	r2, #12
    6b3c:	5ea7      	ldrsh	r7, [r4, r2]
    6b3e:	2f00      	cmp	r7, #0
    6b40:	d010      	beq.n	6b64 <__sfp+0x48>
    6b42:	3468      	adds	r4, #104	; 0x68
    6b44:	e7f7      	b.n	6b36 <__sfp+0x1a>
    6b46:	682b      	ldr	r3, [r5, #0]
    6b48:	2b00      	cmp	r3, #0
    6b4a:	d106      	bne.n	6b5a <__sfp+0x3e>
    6b4c:	1c30      	adds	r0, r6, #0
    6b4e:	2104      	movs	r1, #4
    6b50:	f7ff ff9c 	bl	6a8c <__sfmoreglue>
    6b54:	6028      	str	r0, [r5, #0]
    6b56:	2800      	cmp	r0, #0
    6b58:	d001      	beq.n	6b5e <__sfp+0x42>
    6b5a:	682d      	ldr	r5, [r5, #0]
    6b5c:	e7e9      	b.n	6b32 <__sfp+0x16>
    6b5e:	230c      	movs	r3, #12
    6b60:	6033      	str	r3, [r6, #0]
    6b62:	e016      	b.n	6b92 <__sfp+0x76>
    6b64:	2301      	movs	r3, #1
    6b66:	1c20      	adds	r0, r4, #0
    6b68:	425b      	negs	r3, r3
    6b6a:	81e3      	strh	r3, [r4, #14]
    6b6c:	3302      	adds	r3, #2
    6b6e:	81a3      	strh	r3, [r4, #12]
    6b70:	6667      	str	r7, [r4, #100]	; 0x64
    6b72:	6027      	str	r7, [r4, #0]
    6b74:	60a7      	str	r7, [r4, #8]
    6b76:	6067      	str	r7, [r4, #4]
    6b78:	6127      	str	r7, [r4, #16]
    6b7a:	6167      	str	r7, [r4, #20]
    6b7c:	61a7      	str	r7, [r4, #24]
    6b7e:	305c      	adds	r0, #92	; 0x5c
    6b80:	1c39      	adds	r1, r7, #0
    6b82:	2208      	movs	r2, #8
    6b84:	f7ff fcb5 	bl	64f2 <memset>
    6b88:	1c20      	adds	r0, r4, #0
    6b8a:	6367      	str	r7, [r4, #52]	; 0x34
    6b8c:	63a7      	str	r7, [r4, #56]	; 0x38
    6b8e:	64a7      	str	r7, [r4, #72]	; 0x48
    6b90:	64e7      	str	r7, [r4, #76]	; 0x4c
    6b92:	bdf8      	pop	{r3, r4, r5, r6, r7, pc}
    6b94:	000077a4 	.word	0x000077a4

00006b98 <_fwalk_reent>:
    6b98:	b5f7      	push	{r0, r1, r2, r4, r5, r6, r7, lr}
    6b9a:	1c04      	adds	r4, r0, #0
    6b9c:	1c07      	adds	r7, r0, #0
    6b9e:	2600      	movs	r6, #0
    6ba0:	9101      	str	r1, [sp, #4]
    6ba2:	3448      	adds	r4, #72	; 0x48
    6ba4:	2c00      	cmp	r4, #0
    6ba6:	d016      	beq.n	6bd6 <_fwalk_reent+0x3e>
    6ba8:	6863      	ldr	r3, [r4, #4]
    6baa:	68a5      	ldr	r5, [r4, #8]
    6bac:	9300      	str	r3, [sp, #0]
    6bae:	9b00      	ldr	r3, [sp, #0]
    6bb0:	3b01      	subs	r3, #1
    6bb2:	9300      	str	r3, [sp, #0]
    6bb4:	d40d      	bmi.n	6bd2 <_fwalk_reent+0x3a>
    6bb6:	89ab      	ldrh	r3, [r5, #12]
    6bb8:	2b01      	cmp	r3, #1
    6bba:	d908      	bls.n	6bce <_fwalk_reent+0x36>
    6bbc:	220e      	movs	r2, #14
    6bbe:	5eab      	ldrsh	r3, [r5, r2]
    6bc0:	3301      	adds	r3, #1
    6bc2:	d004      	beq.n	6bce <_fwalk_reent+0x36>
    6bc4:	1c38      	adds	r0, r7, #0
    6bc6:	1c29      	adds	r1, r5, #0
    6bc8:	9b01      	ldr	r3, [sp, #4]
    6bca:	4798      	blx	r3
    6bcc:	4306      	orrs	r6, r0
    6bce:	3568      	adds	r5, #104	; 0x68
    6bd0:	e7ed      	b.n	6bae <_fwalk_reent+0x16>
    6bd2:	6824      	ldr	r4, [r4, #0]
    6bd4:	e7e6      	b.n	6ba4 <_fwalk_reent+0xc>
    6bd6:	1c30      	adds	r0, r6, #0
    6bd8:	bdfe      	pop	{r1, r2, r3, r4, r5, r6, r7, pc}
	...

00006bdc <__smakebuf_r>:
    6bdc:	b5f0      	push	{r4, r5, r6, r7, lr}
    6bde:	898b      	ldrh	r3, [r1, #12]
    6be0:	b091      	sub	sp, #68	; 0x44
    6be2:	079b      	lsls	r3, r3, #30
    6be4:	d506      	bpl.n	6bf4 <__smakebuf_r+0x18>
    6be6:	1c0b      	adds	r3, r1, #0
    6be8:	3347      	adds	r3, #71	; 0x47
    6bea:	600b      	str	r3, [r1, #0]
    6bec:	610b      	str	r3, [r1, #16]
    6bee:	2301      	movs	r3, #1
    6bf0:	614b      	str	r3, [r1, #20]
    6bf2:	e045      	b.n	6c80 <__smakebuf_r+0xa4>
    6bf4:	1c0c      	adds	r4, r1, #0
    6bf6:	230e      	movs	r3, #14
    6bf8:	5ec9      	ldrsh	r1, [r1, r3]
    6bfa:	1c06      	adds	r6, r0, #0
    6bfc:	2900      	cmp	r1, #0
    6bfe:	da04      	bge.n	6c0a <__smakebuf_r+0x2e>
    6c00:	2380      	movs	r3, #128	; 0x80
    6c02:	89a5      	ldrh	r5, [r4, #12]
    6c04:	401d      	ands	r5, r3
    6c06:	d110      	bne.n	6c2a <__smakebuf_r+0x4e>
    6c08:	e00c      	b.n	6c24 <__smakebuf_r+0x48>
    6c0a:	aa01      	add	r2, sp, #4
    6c0c:	f000 fc28 	bl	7460 <_fstat_r>
    6c10:	2800      	cmp	r0, #0
    6c12:	dbf5      	blt.n	6c00 <__smakebuf_r+0x24>
    6c14:	23f0      	movs	r3, #240	; 0xf0
    6c16:	9d02      	ldr	r5, [sp, #8]
    6c18:	021b      	lsls	r3, r3, #8
    6c1a:	401d      	ands	r5, r3
    6c1c:	4b19      	ldr	r3, [pc, #100]	; (6c84 <__smakebuf_r+0xa8>)
    6c1e:	18ed      	adds	r5, r5, r3
    6c20:	426b      	negs	r3, r5
    6c22:	415d      	adcs	r5, r3
    6c24:	2780      	movs	r7, #128	; 0x80
    6c26:	00ff      	lsls	r7, r7, #3
    6c28:	e001      	b.n	6c2e <__smakebuf_r+0x52>
    6c2a:	2500      	movs	r5, #0
    6c2c:	2740      	movs	r7, #64	; 0x40
    6c2e:	1c30      	adds	r0, r6, #0
    6c30:	1c39      	adds	r1, r7, #0
    6c32:	f000 f87b 	bl	6d2c <_malloc_r>
    6c36:	2800      	cmp	r0, #0
    6c38:	d10c      	bne.n	6c54 <__smakebuf_r+0x78>
    6c3a:	89a3      	ldrh	r3, [r4, #12]
    6c3c:	059a      	lsls	r2, r3, #22
    6c3e:	d41f      	bmi.n	6c80 <__smakebuf_r+0xa4>
    6c40:	2202      	movs	r2, #2
    6c42:	4313      	orrs	r3, r2
    6c44:	81a3      	strh	r3, [r4, #12]
    6c46:	1c23      	adds	r3, r4, #0
    6c48:	3347      	adds	r3, #71	; 0x47
    6c4a:	6023      	str	r3, [r4, #0]
    6c4c:	6123      	str	r3, [r4, #16]
    6c4e:	2301      	movs	r3, #1
    6c50:	6163      	str	r3, [r4, #20]
    6c52:	e015      	b.n	6c80 <__smakebuf_r+0xa4>
    6c54:	2280      	movs	r2, #128	; 0x80
    6c56:	4b0c      	ldr	r3, [pc, #48]	; (6c88 <__smakebuf_r+0xac>)
    6c58:	62b3      	str	r3, [r6, #40]	; 0x28
    6c5a:	89a3      	ldrh	r3, [r4, #12]
    6c5c:	6020      	str	r0, [r4, #0]
    6c5e:	4313      	orrs	r3, r2
    6c60:	81a3      	strh	r3, [r4, #12]
    6c62:	6120      	str	r0, [r4, #16]
    6c64:	6167      	str	r7, [r4, #20]
    6c66:	2d00      	cmp	r5, #0
    6c68:	d00a      	beq.n	6c80 <__smakebuf_r+0xa4>
    6c6a:	230e      	movs	r3, #14
    6c6c:	5ee1      	ldrsh	r1, [r4, r3]
    6c6e:	1c30      	adds	r0, r6, #0
    6c70:	f000 fc08 	bl	7484 <_isatty_r>
    6c74:	2800      	cmp	r0, #0
    6c76:	d003      	beq.n	6c80 <__smakebuf_r+0xa4>
    6c78:	2201      	movs	r2, #1
    6c7a:	89a3      	ldrh	r3, [r4, #12]
    6c7c:	4313      	orrs	r3, r2
    6c7e:	81a3      	strh	r3, [r4, #12]
    6c80:	b011      	add	sp, #68	; 0x44
    6c82:	bdf0      	pop	{r4, r5, r6, r7, pc}
    6c84:	ffffe000 	.word	0xffffe000
    6c88:	00006a35 	.word	0x00006a35

00006c8c <malloc>:
    6c8c:	b508      	push	{r3, lr}
    6c8e:	4b03      	ldr	r3, [pc, #12]	; (6c9c <malloc+0x10>)
    6c90:	1c01      	adds	r1, r0, #0
    6c92:	6818      	ldr	r0, [r3, #0]
    6c94:	f000 f84a 	bl	6d2c <_malloc_r>
    6c98:	bd08      	pop	{r3, pc}
    6c9a:	46c0      	nop			; (mov r8, r8)
    6c9c:	20000074 	.word	0x20000074

00006ca0 <_free_r>:
    6ca0:	b530      	push	{r4, r5, lr}
    6ca2:	2900      	cmp	r1, #0
    6ca4:	d03e      	beq.n	6d24 <_free_r+0x84>
    6ca6:	3904      	subs	r1, #4
    6ca8:	680b      	ldr	r3, [r1, #0]
    6caa:	2b00      	cmp	r3, #0
    6cac:	da00      	bge.n	6cb0 <_free_r+0x10>
    6cae:	18c9      	adds	r1, r1, r3
    6cb0:	4a1d      	ldr	r2, [pc, #116]	; (6d28 <_free_r+0x88>)
    6cb2:	6813      	ldr	r3, [r2, #0]
    6cb4:	1c14      	adds	r4, r2, #0
    6cb6:	2b00      	cmp	r3, #0
    6cb8:	d102      	bne.n	6cc0 <_free_r+0x20>
    6cba:	604b      	str	r3, [r1, #4]
    6cbc:	6011      	str	r1, [r2, #0]
    6cbe:	e031      	b.n	6d24 <_free_r+0x84>
    6cc0:	4299      	cmp	r1, r3
    6cc2:	d20d      	bcs.n	6ce0 <_free_r+0x40>
    6cc4:	6808      	ldr	r0, [r1, #0]
    6cc6:	180a      	adds	r2, r1, r0
    6cc8:	429a      	cmp	r2, r3
    6cca:	d103      	bne.n	6cd4 <_free_r+0x34>
    6ccc:	6813      	ldr	r3, [r2, #0]
    6cce:	18c3      	adds	r3, r0, r3
    6cd0:	600b      	str	r3, [r1, #0]
    6cd2:	6853      	ldr	r3, [r2, #4]
    6cd4:	604b      	str	r3, [r1, #4]
    6cd6:	6021      	str	r1, [r4, #0]
    6cd8:	e024      	b.n	6d24 <_free_r+0x84>
    6cda:	428a      	cmp	r2, r1
    6cdc:	d803      	bhi.n	6ce6 <_free_r+0x46>
    6cde:	1c13      	adds	r3, r2, #0
    6ce0:	685a      	ldr	r2, [r3, #4]
    6ce2:	2a00      	cmp	r2, #0
    6ce4:	d1f9      	bne.n	6cda <_free_r+0x3a>
    6ce6:	681d      	ldr	r5, [r3, #0]
    6ce8:	195c      	adds	r4, r3, r5
    6cea:	428c      	cmp	r4, r1
    6cec:	d10b      	bne.n	6d06 <_free_r+0x66>
    6cee:	6809      	ldr	r1, [r1, #0]
    6cf0:	1869      	adds	r1, r5, r1
    6cf2:	1858      	adds	r0, r3, r1
    6cf4:	6019      	str	r1, [r3, #0]
    6cf6:	4290      	cmp	r0, r2
    6cf8:	d114      	bne.n	6d24 <_free_r+0x84>
    6cfa:	6810      	ldr	r0, [r2, #0]
    6cfc:	6852      	ldr	r2, [r2, #4]
    6cfe:	1809      	adds	r1, r1, r0
    6d00:	6019      	str	r1, [r3, #0]
    6d02:	605a      	str	r2, [r3, #4]
    6d04:	e00e      	b.n	6d24 <_free_r+0x84>
    6d06:	428c      	cmp	r4, r1
    6d08:	d902      	bls.n	6d10 <_free_r+0x70>
    6d0a:	230c      	movs	r3, #12
    6d0c:	6003      	str	r3, [r0, #0]
    6d0e:	e009      	b.n	6d24 <_free_r+0x84>
    6d10:	6808      	ldr	r0, [r1, #0]
    6d12:	180c      	adds	r4, r1, r0
    6d14:	4294      	cmp	r4, r2
    6d16:	d103      	bne.n	6d20 <_free_r+0x80>
    6d18:	6814      	ldr	r4, [r2, #0]
    6d1a:	6852      	ldr	r2, [r2, #4]
    6d1c:	1900      	adds	r0, r0, r4
    6d1e:	6008      	str	r0, [r1, #0]
    6d20:	604a      	str	r2, [r1, #4]
    6d22:	6059      	str	r1, [r3, #4]
    6d24:	bd30      	pop	{r4, r5, pc}
    6d26:	46c0      	nop			; (mov r8, r8)
    6d28:	20000194 	.word	0x20000194

00006d2c <_malloc_r>:
    6d2c:	2303      	movs	r3, #3
    6d2e:	b570      	push	{r4, r5, r6, lr}
    6d30:	1ccc      	adds	r4, r1, #3
    6d32:	439c      	bics	r4, r3
    6d34:	3408      	adds	r4, #8
    6d36:	1c05      	adds	r5, r0, #0
    6d38:	2c0c      	cmp	r4, #12
    6d3a:	d201      	bcs.n	6d40 <_malloc_r+0x14>
    6d3c:	240c      	movs	r4, #12
    6d3e:	e005      	b.n	6d4c <_malloc_r+0x20>
    6d40:	2c00      	cmp	r4, #0
    6d42:	da03      	bge.n	6d4c <_malloc_r+0x20>
    6d44:	230c      	movs	r3, #12
    6d46:	2000      	movs	r0, #0
    6d48:	602b      	str	r3, [r5, #0]
    6d4a:	e042      	b.n	6dd2 <_malloc_r+0xa6>
    6d4c:	428c      	cmp	r4, r1
    6d4e:	d3f9      	bcc.n	6d44 <_malloc_r+0x18>
    6d50:	4a20      	ldr	r2, [pc, #128]	; (6dd4 <_malloc_r+0xa8>)
    6d52:	6813      	ldr	r3, [r2, #0]
    6d54:	1c10      	adds	r0, r2, #0
    6d56:	1c19      	adds	r1, r3, #0
    6d58:	2900      	cmp	r1, #0
    6d5a:	d013      	beq.n	6d84 <_malloc_r+0x58>
    6d5c:	680a      	ldr	r2, [r1, #0]
    6d5e:	1b12      	subs	r2, r2, r4
    6d60:	d40d      	bmi.n	6d7e <_malloc_r+0x52>
    6d62:	2a0b      	cmp	r2, #11
    6d64:	d902      	bls.n	6d6c <_malloc_r+0x40>
    6d66:	600a      	str	r2, [r1, #0]
    6d68:	188b      	adds	r3, r1, r2
    6d6a:	e01f      	b.n	6dac <_malloc_r+0x80>
    6d6c:	428b      	cmp	r3, r1
    6d6e:	d102      	bne.n	6d76 <_malloc_r+0x4a>
    6d70:	685a      	ldr	r2, [r3, #4]
    6d72:	6002      	str	r2, [r0, #0]
    6d74:	e01b      	b.n	6dae <_malloc_r+0x82>
    6d76:	684a      	ldr	r2, [r1, #4]
    6d78:	605a      	str	r2, [r3, #4]
    6d7a:	1c0b      	adds	r3, r1, #0
    6d7c:	e017      	b.n	6dae <_malloc_r+0x82>
    6d7e:	1c0b      	adds	r3, r1, #0
    6d80:	6849      	ldr	r1, [r1, #4]
    6d82:	e7e9      	b.n	6d58 <_malloc_r+0x2c>
    6d84:	4e14      	ldr	r6, [pc, #80]	; (6dd8 <_malloc_r+0xac>)
    6d86:	6833      	ldr	r3, [r6, #0]
    6d88:	2b00      	cmp	r3, #0
    6d8a:	d103      	bne.n	6d94 <_malloc_r+0x68>
    6d8c:	1c28      	adds	r0, r5, #0
    6d8e:	f000 fae3 	bl	7358 <_sbrk_r>
    6d92:	6030      	str	r0, [r6, #0]
    6d94:	1c28      	adds	r0, r5, #0
    6d96:	1c21      	adds	r1, r4, #0
    6d98:	f000 fade 	bl	7358 <_sbrk_r>
    6d9c:	1c03      	adds	r3, r0, #0
    6d9e:	1c42      	adds	r2, r0, #1
    6da0:	d0d0      	beq.n	6d44 <_malloc_r+0x18>
    6da2:	2203      	movs	r2, #3
    6da4:	1cc6      	adds	r6, r0, #3
    6da6:	4396      	bics	r6, r2
    6da8:	4286      	cmp	r6, r0
    6daa:	d10a      	bne.n	6dc2 <_malloc_r+0x96>
    6dac:	601c      	str	r4, [r3, #0]
    6dae:	1c18      	adds	r0, r3, #0
    6db0:	2107      	movs	r1, #7
    6db2:	300b      	adds	r0, #11
    6db4:	1d1a      	adds	r2, r3, #4
    6db6:	4388      	bics	r0, r1
    6db8:	1a82      	subs	r2, r0, r2
    6dba:	d00a      	beq.n	6dd2 <_malloc_r+0xa6>
    6dbc:	4251      	negs	r1, r2
    6dbe:	5099      	str	r1, [r3, r2]
    6dc0:	e007      	b.n	6dd2 <_malloc_r+0xa6>
    6dc2:	1a31      	subs	r1, r6, r0
    6dc4:	1c28      	adds	r0, r5, #0
    6dc6:	f000 fac7 	bl	7358 <_sbrk_r>
    6dca:	1c43      	adds	r3, r0, #1
    6dcc:	d0ba      	beq.n	6d44 <_malloc_r+0x18>
    6dce:	1c33      	adds	r3, r6, #0
    6dd0:	e7ec      	b.n	6dac <_malloc_r+0x80>
    6dd2:	bd70      	pop	{r4, r5, r6, pc}
    6dd4:	20000194 	.word	0x20000194
    6dd8:	20000190 	.word	0x20000190

00006ddc <__sfputc_r>:
    6ddc:	6893      	ldr	r3, [r2, #8]
    6dde:	b510      	push	{r4, lr}
    6de0:	3b01      	subs	r3, #1
    6de2:	6093      	str	r3, [r2, #8]
    6de4:	2b00      	cmp	r3, #0
    6de6:	da05      	bge.n	6df4 <__sfputc_r+0x18>
    6de8:	6994      	ldr	r4, [r2, #24]
    6dea:	42a3      	cmp	r3, r4
    6dec:	db08      	blt.n	6e00 <__sfputc_r+0x24>
    6dee:	b2cb      	uxtb	r3, r1
    6df0:	2b0a      	cmp	r3, #10
    6df2:	d005      	beq.n	6e00 <__sfputc_r+0x24>
    6df4:	6813      	ldr	r3, [r2, #0]
    6df6:	1c58      	adds	r0, r3, #1
    6df8:	6010      	str	r0, [r2, #0]
    6dfa:	7019      	strb	r1, [r3, #0]
    6dfc:	b2c8      	uxtb	r0, r1
    6dfe:	e001      	b.n	6e04 <__sfputc_r+0x28>
    6e00:	f7ff fc96 	bl	6730 <__swbuf_r>
    6e04:	bd10      	pop	{r4, pc}

00006e06 <__sfputs_r>:
    6e06:	b5f8      	push	{r3, r4, r5, r6, r7, lr}
    6e08:	1c06      	adds	r6, r0, #0
    6e0a:	1c0f      	adds	r7, r1, #0
    6e0c:	1c14      	adds	r4, r2, #0
    6e0e:	18d5      	adds	r5, r2, r3
    6e10:	42ac      	cmp	r4, r5
    6e12:	d008      	beq.n	6e26 <__sfputs_r+0x20>
    6e14:	7821      	ldrb	r1, [r4, #0]
    6e16:	1c30      	adds	r0, r6, #0
    6e18:	1c3a      	adds	r2, r7, #0
    6e1a:	f7ff ffdf 	bl	6ddc <__sfputc_r>
    6e1e:	3401      	adds	r4, #1
    6e20:	1c43      	adds	r3, r0, #1
    6e22:	d1f5      	bne.n	6e10 <__sfputs_r+0xa>
    6e24:	e000      	b.n	6e28 <__sfputs_r+0x22>
    6e26:	2000      	movs	r0, #0
    6e28:	bdf8      	pop	{r3, r4, r5, r6, r7, pc}
	...

00006e2c <_vfiprintf_r>:
    6e2c:	b5f0      	push	{r4, r5, r6, r7, lr}
    6e2e:	b09f      	sub	sp, #124	; 0x7c
    6e30:	1c06      	adds	r6, r0, #0
    6e32:	1c0f      	adds	r7, r1, #0
    6e34:	9202      	str	r2, [sp, #8]
    6e36:	9305      	str	r3, [sp, #20]
    6e38:	2800      	cmp	r0, #0
    6e3a:	d004      	beq.n	6e46 <_vfiprintf_r+0x1a>
    6e3c:	6983      	ldr	r3, [r0, #24]
    6e3e:	2b00      	cmp	r3, #0
    6e40:	d101      	bne.n	6e46 <_vfiprintf_r+0x1a>
    6e42:	f7ff fe39 	bl	6ab8 <__sinit>
    6e46:	4b79      	ldr	r3, [pc, #484]	; (702c <_vfiprintf_r+0x200>)
    6e48:	429f      	cmp	r7, r3
    6e4a:	d101      	bne.n	6e50 <_vfiprintf_r+0x24>
    6e4c:	6877      	ldr	r7, [r6, #4]
    6e4e:	e008      	b.n	6e62 <_vfiprintf_r+0x36>
    6e50:	4b77      	ldr	r3, [pc, #476]	; (7030 <_vfiprintf_r+0x204>)
    6e52:	429f      	cmp	r7, r3
    6e54:	d101      	bne.n	6e5a <_vfiprintf_r+0x2e>
    6e56:	68b7      	ldr	r7, [r6, #8]
    6e58:	e003      	b.n	6e62 <_vfiprintf_r+0x36>
    6e5a:	4b76      	ldr	r3, [pc, #472]	; (7034 <_vfiprintf_r+0x208>)
    6e5c:	429f      	cmp	r7, r3
    6e5e:	d100      	bne.n	6e62 <_vfiprintf_r+0x36>
    6e60:	68f7      	ldr	r7, [r6, #12]
    6e62:	89bb      	ldrh	r3, [r7, #12]
    6e64:	071b      	lsls	r3, r3, #28
    6e66:	d50a      	bpl.n	6e7e <_vfiprintf_r+0x52>
    6e68:	693b      	ldr	r3, [r7, #16]
    6e6a:	2b00      	cmp	r3, #0
    6e6c:	d007      	beq.n	6e7e <_vfiprintf_r+0x52>
    6e6e:	2300      	movs	r3, #0
    6e70:	ad06      	add	r5, sp, #24
    6e72:	616b      	str	r3, [r5, #20]
    6e74:	3320      	adds	r3, #32
    6e76:	766b      	strb	r3, [r5, #25]
    6e78:	3310      	adds	r3, #16
    6e7a:	76ab      	strb	r3, [r5, #26]
    6e7c:	e03d      	b.n	6efa <_vfiprintf_r+0xce>
    6e7e:	1c30      	adds	r0, r6, #0
    6e80:	1c39      	adds	r1, r7, #0
    6e82:	f7ff fcad 	bl	67e0 <__swsetup_r>
    6e86:	2800      	cmp	r0, #0
    6e88:	d0f1      	beq.n	6e6e <_vfiprintf_r+0x42>
    6e8a:	2001      	movs	r0, #1
    6e8c:	4240      	negs	r0, r0
    6e8e:	e0ca      	b.n	7026 <_vfiprintf_r+0x1fa>
    6e90:	9a05      	ldr	r2, [sp, #20]
    6e92:	1d11      	adds	r1, r2, #4
    6e94:	6812      	ldr	r2, [r2, #0]
    6e96:	9105      	str	r1, [sp, #20]
    6e98:	2a00      	cmp	r2, #0
    6e9a:	db7e      	blt.n	6f9a <_vfiprintf_r+0x16e>
    6e9c:	9209      	str	r2, [sp, #36]	; 0x24
    6e9e:	3401      	adds	r4, #1
    6ea0:	7823      	ldrb	r3, [r4, #0]
    6ea2:	2b2e      	cmp	r3, #46	; 0x2e
    6ea4:	d100      	bne.n	6ea8 <_vfiprintf_r+0x7c>
    6ea6:	e089      	b.n	6fbc <_vfiprintf_r+0x190>
    6ea8:	7821      	ldrb	r1, [r4, #0]
    6eaa:	4863      	ldr	r0, [pc, #396]	; (7038 <_vfiprintf_r+0x20c>)
    6eac:	2203      	movs	r2, #3
    6eae:	f000 fb0f 	bl	74d0 <memchr>
    6eb2:	2800      	cmp	r0, #0
    6eb4:	d008      	beq.n	6ec8 <_vfiprintf_r+0x9c>
    6eb6:	4b60      	ldr	r3, [pc, #384]	; (7038 <_vfiprintf_r+0x20c>)
    6eb8:	3401      	adds	r4, #1
    6eba:	1ac0      	subs	r0, r0, r3
    6ebc:	2340      	movs	r3, #64	; 0x40
    6ebe:	4083      	lsls	r3, r0
    6ec0:	1c18      	adds	r0, r3, #0
    6ec2:	682b      	ldr	r3, [r5, #0]
    6ec4:	4318      	orrs	r0, r3
    6ec6:	6028      	str	r0, [r5, #0]
    6ec8:	7821      	ldrb	r1, [r4, #0]
    6eca:	1c63      	adds	r3, r4, #1
    6ecc:	485b      	ldr	r0, [pc, #364]	; (703c <_vfiprintf_r+0x210>)
    6ece:	2206      	movs	r2, #6
    6ed0:	9302      	str	r3, [sp, #8]
    6ed2:	7629      	strb	r1, [r5, #24]
    6ed4:	f000 fafc 	bl	74d0 <memchr>
    6ed8:	2800      	cmp	r0, #0
    6eda:	d100      	bne.n	6ede <_vfiprintf_r+0xb2>
    6edc:	e091      	b.n	7002 <_vfiprintf_r+0x1d6>
    6ede:	4b58      	ldr	r3, [pc, #352]	; (7040 <_vfiprintf_r+0x214>)
    6ee0:	2b00      	cmp	r3, #0
    6ee2:	d000      	beq.n	6ee6 <_vfiprintf_r+0xba>
    6ee4:	e084      	b.n	6ff0 <_vfiprintf_r+0x1c4>
    6ee6:	2207      	movs	r2, #7
    6ee8:	9b05      	ldr	r3, [sp, #20]
    6eea:	3307      	adds	r3, #7
    6eec:	4393      	bics	r3, r2
    6eee:	3308      	adds	r3, #8
    6ef0:	9305      	str	r3, [sp, #20]
    6ef2:	696b      	ldr	r3, [r5, #20]
    6ef4:	9a03      	ldr	r2, [sp, #12]
    6ef6:	189b      	adds	r3, r3, r2
    6ef8:	616b      	str	r3, [r5, #20]
    6efa:	9c02      	ldr	r4, [sp, #8]
    6efc:	7823      	ldrb	r3, [r4, #0]
    6efe:	2b00      	cmp	r3, #0
    6f00:	d104      	bne.n	6f0c <_vfiprintf_r+0xe0>
    6f02:	9b02      	ldr	r3, [sp, #8]
    6f04:	1ae3      	subs	r3, r4, r3
    6f06:	9304      	str	r3, [sp, #16]
    6f08:	d011      	beq.n	6f2e <_vfiprintf_r+0x102>
    6f0a:	e003      	b.n	6f14 <_vfiprintf_r+0xe8>
    6f0c:	2b25      	cmp	r3, #37	; 0x25
    6f0e:	d0f8      	beq.n	6f02 <_vfiprintf_r+0xd6>
    6f10:	3401      	adds	r4, #1
    6f12:	e7f3      	b.n	6efc <_vfiprintf_r+0xd0>
    6f14:	9b04      	ldr	r3, [sp, #16]
    6f16:	1c30      	adds	r0, r6, #0
    6f18:	1c39      	adds	r1, r7, #0
    6f1a:	9a02      	ldr	r2, [sp, #8]
    6f1c:	f7ff ff73 	bl	6e06 <__sfputs_r>
    6f20:	1c43      	adds	r3, r0, #1
    6f22:	d07b      	beq.n	701c <_vfiprintf_r+0x1f0>
    6f24:	696a      	ldr	r2, [r5, #20]
    6f26:	9b04      	ldr	r3, [sp, #16]
    6f28:	4694      	mov	ip, r2
    6f2a:	4463      	add	r3, ip
    6f2c:	616b      	str	r3, [r5, #20]
    6f2e:	7823      	ldrb	r3, [r4, #0]
    6f30:	2b00      	cmp	r3, #0
    6f32:	d073      	beq.n	701c <_vfiprintf_r+0x1f0>
    6f34:	2201      	movs	r2, #1
    6f36:	2300      	movs	r3, #0
    6f38:	4252      	negs	r2, r2
    6f3a:	606a      	str	r2, [r5, #4]
    6f3c:	a902      	add	r1, sp, #8
    6f3e:	3254      	adds	r2, #84	; 0x54
    6f40:	1852      	adds	r2, r2, r1
    6f42:	3401      	adds	r4, #1
    6f44:	602b      	str	r3, [r5, #0]
    6f46:	60eb      	str	r3, [r5, #12]
    6f48:	60ab      	str	r3, [r5, #8]
    6f4a:	7013      	strb	r3, [r2, #0]
    6f4c:	65ab      	str	r3, [r5, #88]	; 0x58
    6f4e:	7821      	ldrb	r1, [r4, #0]
    6f50:	483c      	ldr	r0, [pc, #240]	; (7044 <_vfiprintf_r+0x218>)
    6f52:	2205      	movs	r2, #5
    6f54:	f000 fabc 	bl	74d0 <memchr>
    6f58:	2800      	cmp	r0, #0
    6f5a:	d009      	beq.n	6f70 <_vfiprintf_r+0x144>
    6f5c:	4b39      	ldr	r3, [pc, #228]	; (7044 <_vfiprintf_r+0x218>)
    6f5e:	3401      	adds	r4, #1
    6f60:	1ac0      	subs	r0, r0, r3
    6f62:	2301      	movs	r3, #1
    6f64:	4083      	lsls	r3, r0
    6f66:	1c18      	adds	r0, r3, #0
    6f68:	682b      	ldr	r3, [r5, #0]
    6f6a:	4318      	orrs	r0, r3
    6f6c:	6028      	str	r0, [r5, #0]
    6f6e:	e7ee      	b.n	6f4e <_vfiprintf_r+0x122>
    6f70:	682b      	ldr	r3, [r5, #0]
    6f72:	06da      	lsls	r2, r3, #27
    6f74:	d504      	bpl.n	6f80 <_vfiprintf_r+0x154>
    6f76:	2253      	movs	r2, #83	; 0x53
    6f78:	2120      	movs	r1, #32
    6f7a:	a802      	add	r0, sp, #8
    6f7c:	1812      	adds	r2, r2, r0
    6f7e:	7011      	strb	r1, [r2, #0]
    6f80:	071a      	lsls	r2, r3, #28
    6f82:	d504      	bpl.n	6f8e <_vfiprintf_r+0x162>
    6f84:	2253      	movs	r2, #83	; 0x53
    6f86:	212b      	movs	r1, #43	; 0x2b
    6f88:	a802      	add	r0, sp, #8
    6f8a:	1812      	adds	r2, r2, r0
    6f8c:	7011      	strb	r1, [r2, #0]
    6f8e:	7822      	ldrb	r2, [r4, #0]
    6f90:	2a2a      	cmp	r2, #42	; 0x2a
    6f92:	d100      	bne.n	6f96 <_vfiprintf_r+0x16a>
    6f94:	e77c      	b.n	6e90 <_vfiprintf_r+0x64>
    6f96:	9b09      	ldr	r3, [sp, #36]	; 0x24
    6f98:	e005      	b.n	6fa6 <_vfiprintf_r+0x17a>
    6f9a:	4252      	negs	r2, r2
    6f9c:	60ea      	str	r2, [r5, #12]
    6f9e:	2202      	movs	r2, #2
    6fa0:	4313      	orrs	r3, r2
    6fa2:	602b      	str	r3, [r5, #0]
    6fa4:	e77b      	b.n	6e9e <_vfiprintf_r+0x72>
    6fa6:	7822      	ldrb	r2, [r4, #0]
    6fa8:	3a30      	subs	r2, #48	; 0x30
    6faa:	2a09      	cmp	r2, #9
    6fac:	d804      	bhi.n	6fb8 <_vfiprintf_r+0x18c>
    6fae:	210a      	movs	r1, #10
    6fb0:	434b      	muls	r3, r1
    6fb2:	3401      	adds	r4, #1
    6fb4:	189b      	adds	r3, r3, r2
    6fb6:	e7f6      	b.n	6fa6 <_vfiprintf_r+0x17a>
    6fb8:	9309      	str	r3, [sp, #36]	; 0x24
    6fba:	e771      	b.n	6ea0 <_vfiprintf_r+0x74>
    6fbc:	7863      	ldrb	r3, [r4, #1]
    6fbe:	2b2a      	cmp	r3, #42	; 0x2a
    6fc0:	d109      	bne.n	6fd6 <_vfiprintf_r+0x1aa>
    6fc2:	9b05      	ldr	r3, [sp, #20]
    6fc4:	3402      	adds	r4, #2
    6fc6:	1d1a      	adds	r2, r3, #4
    6fc8:	681b      	ldr	r3, [r3, #0]
    6fca:	9205      	str	r2, [sp, #20]
    6fcc:	2b00      	cmp	r3, #0
    6fce:	da0d      	bge.n	6fec <_vfiprintf_r+0x1c0>
    6fd0:	2301      	movs	r3, #1
    6fd2:	425b      	negs	r3, r3
    6fd4:	e00a      	b.n	6fec <_vfiprintf_r+0x1c0>
    6fd6:	2300      	movs	r3, #0
    6fd8:	3401      	adds	r4, #1
    6fda:	7822      	ldrb	r2, [r4, #0]
    6fdc:	3a30      	subs	r2, #48	; 0x30
    6fde:	2a09      	cmp	r2, #9
    6fe0:	d804      	bhi.n	6fec <_vfiprintf_r+0x1c0>
    6fe2:	210a      	movs	r1, #10
    6fe4:	434b      	muls	r3, r1
    6fe6:	3401      	adds	r4, #1
    6fe8:	189b      	adds	r3, r3, r2
    6fea:	e7f6      	b.n	6fda <_vfiprintf_r+0x1ae>
    6fec:	9307      	str	r3, [sp, #28]
    6fee:	e75b      	b.n	6ea8 <_vfiprintf_r+0x7c>
    6ff0:	ab05      	add	r3, sp, #20
    6ff2:	9300      	str	r3, [sp, #0]
    6ff4:	1c30      	adds	r0, r6, #0
    6ff6:	1c29      	adds	r1, r5, #0
    6ff8:	1c3a      	adds	r2, r7, #0
    6ffa:	4b13      	ldr	r3, [pc, #76]	; (7048 <_vfiprintf_r+0x21c>)
    6ffc:	e000      	b.n	7000 <_vfiprintf_r+0x1d4>
    6ffe:	bf00      	nop
    7000:	e007      	b.n	7012 <_vfiprintf_r+0x1e6>
    7002:	ab05      	add	r3, sp, #20
    7004:	9300      	str	r3, [sp, #0]
    7006:	1c30      	adds	r0, r6, #0
    7008:	1c29      	adds	r1, r5, #0
    700a:	1c3a      	adds	r2, r7, #0
    700c:	4b0e      	ldr	r3, [pc, #56]	; (7048 <_vfiprintf_r+0x21c>)
    700e:	f000 f88b 	bl	7128 <_printf_i>
    7012:	9003      	str	r0, [sp, #12]
    7014:	9b03      	ldr	r3, [sp, #12]
    7016:	3301      	adds	r3, #1
    7018:	d000      	beq.n	701c <_vfiprintf_r+0x1f0>
    701a:	e76a      	b.n	6ef2 <_vfiprintf_r+0xc6>
    701c:	89bb      	ldrh	r3, [r7, #12]
    701e:	065b      	lsls	r3, r3, #25
    7020:	d500      	bpl.n	7024 <_vfiprintf_r+0x1f8>
    7022:	e732      	b.n	6e8a <_vfiprintf_r+0x5e>
    7024:	980b      	ldr	r0, [sp, #44]	; 0x2c
    7026:	b01f      	add	sp, #124	; 0x7c
    7028:	bdf0      	pop	{r4, r5, r6, r7, pc}
    702a:	46c0      	nop			; (mov r8, r8)
    702c:	000077a8 	.word	0x000077a8
    7030:	000077c8 	.word	0x000077c8
    7034:	000077e8 	.word	0x000077e8
    7038:	0000780e 	.word	0x0000780e
    703c:	00007812 	.word	0x00007812
    7040:	00000000 	.word	0x00000000
    7044:	00007808 	.word	0x00007808
    7048:	00006e07 	.word	0x00006e07

0000704c <_printf_common>:
    704c:	b5f7      	push	{r0, r1, r2, r4, r5, r6, r7, lr}
    704e:	1c17      	adds	r7, r2, #0
    7050:	9301      	str	r3, [sp, #4]
    7052:	690a      	ldr	r2, [r1, #16]
    7054:	688b      	ldr	r3, [r1, #8]
    7056:	9000      	str	r0, [sp, #0]
    7058:	1c0c      	adds	r4, r1, #0
    705a:	4293      	cmp	r3, r2
    705c:	da00      	bge.n	7060 <_printf_common+0x14>
    705e:	1c13      	adds	r3, r2, #0
    7060:	1c22      	adds	r2, r4, #0
    7062:	603b      	str	r3, [r7, #0]
    7064:	3243      	adds	r2, #67	; 0x43
    7066:	7812      	ldrb	r2, [r2, #0]
    7068:	2a00      	cmp	r2, #0
    706a:	d001      	beq.n	7070 <_printf_common+0x24>
    706c:	3301      	adds	r3, #1
    706e:	603b      	str	r3, [r7, #0]
    7070:	6823      	ldr	r3, [r4, #0]
    7072:	069b      	lsls	r3, r3, #26
    7074:	d502      	bpl.n	707c <_printf_common+0x30>
    7076:	683b      	ldr	r3, [r7, #0]
    7078:	3302      	adds	r3, #2
    707a:	603b      	str	r3, [r7, #0]
    707c:	2506      	movs	r5, #6
    707e:	6823      	ldr	r3, [r4, #0]
    7080:	401d      	ands	r5, r3
    7082:	d01e      	beq.n	70c2 <_printf_common+0x76>
    7084:	1c23      	adds	r3, r4, #0
    7086:	3343      	adds	r3, #67	; 0x43
    7088:	781b      	ldrb	r3, [r3, #0]
    708a:	1e5a      	subs	r2, r3, #1
    708c:	4193      	sbcs	r3, r2
    708e:	6822      	ldr	r2, [r4, #0]
    7090:	0692      	lsls	r2, r2, #26
    7092:	d51c      	bpl.n	70ce <_printf_common+0x82>
    7094:	2030      	movs	r0, #48	; 0x30
    7096:	18e1      	adds	r1, r4, r3
    7098:	3140      	adds	r1, #64	; 0x40
    709a:	70c8      	strb	r0, [r1, #3]
    709c:	1c21      	adds	r1, r4, #0
    709e:	1c5a      	adds	r2, r3, #1
    70a0:	3145      	adds	r1, #69	; 0x45
    70a2:	7809      	ldrb	r1, [r1, #0]
    70a4:	18a2      	adds	r2, r4, r2
    70a6:	3240      	adds	r2, #64	; 0x40
    70a8:	3302      	adds	r3, #2
    70aa:	70d1      	strb	r1, [r2, #3]
    70ac:	e00f      	b.n	70ce <_printf_common+0x82>
    70ae:	1c22      	adds	r2, r4, #0
    70b0:	2301      	movs	r3, #1
    70b2:	9800      	ldr	r0, [sp, #0]
    70b4:	9901      	ldr	r1, [sp, #4]
    70b6:	3219      	adds	r2, #25
    70b8:	9e08      	ldr	r6, [sp, #32]
    70ba:	47b0      	blx	r6
    70bc:	1c43      	adds	r3, r0, #1
    70be:	d00e      	beq.n	70de <_printf_common+0x92>
    70c0:	3501      	adds	r5, #1
    70c2:	68e3      	ldr	r3, [r4, #12]
    70c4:	683a      	ldr	r2, [r7, #0]
    70c6:	1a9b      	subs	r3, r3, r2
    70c8:	429d      	cmp	r5, r3
    70ca:	dbf0      	blt.n	70ae <_printf_common+0x62>
    70cc:	e7da      	b.n	7084 <_printf_common+0x38>
    70ce:	1c22      	adds	r2, r4, #0
    70d0:	9800      	ldr	r0, [sp, #0]
    70d2:	9901      	ldr	r1, [sp, #4]
    70d4:	3243      	adds	r2, #67	; 0x43
    70d6:	9d08      	ldr	r5, [sp, #32]
    70d8:	47a8      	blx	r5
    70da:	1c43      	adds	r3, r0, #1
    70dc:	d102      	bne.n	70e4 <_printf_common+0x98>
    70de:	2001      	movs	r0, #1
    70e0:	4240      	negs	r0, r0
    70e2:	e020      	b.n	7126 <_printf_common+0xda>
    70e4:	2306      	movs	r3, #6
    70e6:	6820      	ldr	r0, [r4, #0]
    70e8:	68e1      	ldr	r1, [r4, #12]
    70ea:	683a      	ldr	r2, [r7, #0]
    70ec:	4003      	ands	r3, r0
    70ee:	2500      	movs	r5, #0
    70f0:	2b04      	cmp	r3, #4
    70f2:	d103      	bne.n	70fc <_printf_common+0xb0>
    70f4:	1a8d      	subs	r5, r1, r2
    70f6:	43eb      	mvns	r3, r5
    70f8:	17db      	asrs	r3, r3, #31
    70fa:	401d      	ands	r5, r3
    70fc:	68a3      	ldr	r3, [r4, #8]
    70fe:	6922      	ldr	r2, [r4, #16]
    7100:	4293      	cmp	r3, r2
    7102:	dd01      	ble.n	7108 <_printf_common+0xbc>
    7104:	1a9b      	subs	r3, r3, r2
    7106:	18ed      	adds	r5, r5, r3
    7108:	2700      	movs	r7, #0
    710a:	42af      	cmp	r7, r5
    710c:	da0a      	bge.n	7124 <_printf_common+0xd8>
    710e:	1c22      	adds	r2, r4, #0
    7110:	2301      	movs	r3, #1
    7112:	9800      	ldr	r0, [sp, #0]
    7114:	9901      	ldr	r1, [sp, #4]
    7116:	321a      	adds	r2, #26
    7118:	9e08      	ldr	r6, [sp, #32]
    711a:	47b0      	blx	r6
    711c:	1c43      	adds	r3, r0, #1
    711e:	d0de      	beq.n	70de <_printf_common+0x92>
    7120:	3701      	adds	r7, #1
    7122:	e7f2      	b.n	710a <_printf_common+0xbe>
    7124:	2000      	movs	r0, #0
    7126:	bdfe      	pop	{r1, r2, r3, r4, r5, r6, r7, pc}

00007128 <_printf_i>:
    7128:	b5f0      	push	{r4, r5, r6, r7, lr}
    712a:	b08b      	sub	sp, #44	; 0x2c
    712c:	9206      	str	r2, [sp, #24]
    712e:	1c0a      	adds	r2, r1, #0
    7130:	3243      	adds	r2, #67	; 0x43
    7132:	9307      	str	r3, [sp, #28]
    7134:	9005      	str	r0, [sp, #20]
    7136:	9204      	str	r2, [sp, #16]
    7138:	7e0a      	ldrb	r2, [r1, #24]
    713a:	1c0c      	adds	r4, r1, #0
    713c:	9b10      	ldr	r3, [sp, #64]	; 0x40
    713e:	2a6e      	cmp	r2, #110	; 0x6e
    7140:	d100      	bne.n	7144 <_printf_i+0x1c>
    7142:	e0a8      	b.n	7296 <_printf_i+0x16e>
    7144:	d811      	bhi.n	716a <_printf_i+0x42>
    7146:	2a63      	cmp	r2, #99	; 0x63
    7148:	d022      	beq.n	7190 <_printf_i+0x68>
    714a:	d809      	bhi.n	7160 <_printf_i+0x38>
    714c:	2a00      	cmp	r2, #0
    714e:	d100      	bne.n	7152 <_printf_i+0x2a>
    7150:	e0b2      	b.n	72b8 <_printf_i+0x190>
    7152:	2a58      	cmp	r2, #88	; 0x58
    7154:	d000      	beq.n	7158 <_printf_i+0x30>
    7156:	e0c2      	b.n	72de <_printf_i+0x1b6>
    7158:	3145      	adds	r1, #69	; 0x45
    715a:	700a      	strb	r2, [r1, #0]
    715c:	4a7c      	ldr	r2, [pc, #496]	; (7350 <_printf_i+0x228>)
    715e:	e04f      	b.n	7200 <_printf_i+0xd8>
    7160:	2a64      	cmp	r2, #100	; 0x64
    7162:	d01d      	beq.n	71a0 <_printf_i+0x78>
    7164:	2a69      	cmp	r2, #105	; 0x69
    7166:	d01b      	beq.n	71a0 <_printf_i+0x78>
    7168:	e0b9      	b.n	72de <_printf_i+0x1b6>
    716a:	2a73      	cmp	r2, #115	; 0x73
    716c:	d100      	bne.n	7170 <_printf_i+0x48>
    716e:	e0a7      	b.n	72c0 <_printf_i+0x198>
    7170:	d809      	bhi.n	7186 <_printf_i+0x5e>
    7172:	2a6f      	cmp	r2, #111	; 0x6f
    7174:	d029      	beq.n	71ca <_printf_i+0xa2>
    7176:	2a70      	cmp	r2, #112	; 0x70
    7178:	d000      	beq.n	717c <_printf_i+0x54>
    717a:	e0b0      	b.n	72de <_printf_i+0x1b6>
    717c:	2220      	movs	r2, #32
    717e:	6809      	ldr	r1, [r1, #0]
    7180:	430a      	orrs	r2, r1
    7182:	6022      	str	r2, [r4, #0]
    7184:	e037      	b.n	71f6 <_printf_i+0xce>
    7186:	2a75      	cmp	r2, #117	; 0x75
    7188:	d01f      	beq.n	71ca <_printf_i+0xa2>
    718a:	2a78      	cmp	r2, #120	; 0x78
    718c:	d033      	beq.n	71f6 <_printf_i+0xce>
    718e:	e0a6      	b.n	72de <_printf_i+0x1b6>
    7190:	1c0e      	adds	r6, r1, #0
    7192:	681a      	ldr	r2, [r3, #0]
    7194:	3642      	adds	r6, #66	; 0x42
    7196:	1d11      	adds	r1, r2, #4
    7198:	6019      	str	r1, [r3, #0]
    719a:	6813      	ldr	r3, [r2, #0]
    719c:	7033      	strb	r3, [r6, #0]
    719e:	e0a1      	b.n	72e4 <_printf_i+0x1bc>
    71a0:	6821      	ldr	r1, [r4, #0]
    71a2:	681a      	ldr	r2, [r3, #0]
    71a4:	0608      	lsls	r0, r1, #24
    71a6:	d406      	bmi.n	71b6 <_printf_i+0x8e>
    71a8:	0649      	lsls	r1, r1, #25
    71aa:	d504      	bpl.n	71b6 <_printf_i+0x8e>
    71ac:	1d11      	adds	r1, r2, #4
    71ae:	6019      	str	r1, [r3, #0]
    71b0:	2300      	movs	r3, #0
    71b2:	5ed5      	ldrsh	r5, [r2, r3]
    71b4:	e002      	b.n	71bc <_printf_i+0x94>
    71b6:	1d11      	adds	r1, r2, #4
    71b8:	6019      	str	r1, [r3, #0]
    71ba:	6815      	ldr	r5, [r2, #0]
    71bc:	2d00      	cmp	r5, #0
    71be:	da3b      	bge.n	7238 <_printf_i+0x110>
    71c0:	232d      	movs	r3, #45	; 0x2d
    71c2:	9a04      	ldr	r2, [sp, #16]
    71c4:	426d      	negs	r5, r5
    71c6:	7013      	strb	r3, [r2, #0]
    71c8:	e036      	b.n	7238 <_printf_i+0x110>
    71ca:	6821      	ldr	r1, [r4, #0]
    71cc:	681a      	ldr	r2, [r3, #0]
    71ce:	0608      	lsls	r0, r1, #24
    71d0:	d406      	bmi.n	71e0 <_printf_i+0xb8>
    71d2:	0649      	lsls	r1, r1, #25
    71d4:	d504      	bpl.n	71e0 <_printf_i+0xb8>
    71d6:	6815      	ldr	r5, [r2, #0]
    71d8:	1d11      	adds	r1, r2, #4
    71da:	6019      	str	r1, [r3, #0]
    71dc:	b2ad      	uxth	r5, r5
    71de:	e002      	b.n	71e6 <_printf_i+0xbe>
    71e0:	1d11      	adds	r1, r2, #4
    71e2:	6019      	str	r1, [r3, #0]
    71e4:	6815      	ldr	r5, [r2, #0]
    71e6:	4b5a      	ldr	r3, [pc, #360]	; (7350 <_printf_i+0x228>)
    71e8:	7e22      	ldrb	r2, [r4, #24]
    71ea:	9303      	str	r3, [sp, #12]
    71ec:	270a      	movs	r7, #10
    71ee:	2a6f      	cmp	r2, #111	; 0x6f
    71f0:	d11d      	bne.n	722e <_printf_i+0x106>
    71f2:	2708      	movs	r7, #8
    71f4:	e01b      	b.n	722e <_printf_i+0x106>
    71f6:	1c22      	adds	r2, r4, #0
    71f8:	2178      	movs	r1, #120	; 0x78
    71fa:	3245      	adds	r2, #69	; 0x45
    71fc:	7011      	strb	r1, [r2, #0]
    71fe:	4a55      	ldr	r2, [pc, #340]	; (7354 <_printf_i+0x22c>)
    7200:	6819      	ldr	r1, [r3, #0]
    7202:	9203      	str	r2, [sp, #12]
    7204:	1d08      	adds	r0, r1, #4
    7206:	6822      	ldr	r2, [r4, #0]
    7208:	6018      	str	r0, [r3, #0]
    720a:	680d      	ldr	r5, [r1, #0]
    720c:	0610      	lsls	r0, r2, #24
    720e:	d402      	bmi.n	7216 <_printf_i+0xee>
    7210:	0650      	lsls	r0, r2, #25
    7212:	d500      	bpl.n	7216 <_printf_i+0xee>
    7214:	b2ad      	uxth	r5, r5
    7216:	07d3      	lsls	r3, r2, #31
    7218:	d502      	bpl.n	7220 <_printf_i+0xf8>
    721a:	2320      	movs	r3, #32
    721c:	431a      	orrs	r2, r3
    721e:	6022      	str	r2, [r4, #0]
    7220:	2710      	movs	r7, #16
    7222:	2d00      	cmp	r5, #0
    7224:	d103      	bne.n	722e <_printf_i+0x106>
    7226:	2320      	movs	r3, #32
    7228:	6822      	ldr	r2, [r4, #0]
    722a:	439a      	bics	r2, r3
    722c:	6022      	str	r2, [r4, #0]
    722e:	1c23      	adds	r3, r4, #0
    7230:	2200      	movs	r2, #0
    7232:	3343      	adds	r3, #67	; 0x43
    7234:	701a      	strb	r2, [r3, #0]
    7236:	e002      	b.n	723e <_printf_i+0x116>
    7238:	270a      	movs	r7, #10
    723a:	4b45      	ldr	r3, [pc, #276]	; (7350 <_printf_i+0x228>)
    723c:	9303      	str	r3, [sp, #12]
    723e:	6863      	ldr	r3, [r4, #4]
    7240:	60a3      	str	r3, [r4, #8]
    7242:	2b00      	cmp	r3, #0
    7244:	db03      	blt.n	724e <_printf_i+0x126>
    7246:	2204      	movs	r2, #4
    7248:	6821      	ldr	r1, [r4, #0]
    724a:	4391      	bics	r1, r2
    724c:	6021      	str	r1, [r4, #0]
    724e:	2d00      	cmp	r5, #0
    7250:	d102      	bne.n	7258 <_printf_i+0x130>
    7252:	9e04      	ldr	r6, [sp, #16]
    7254:	2b00      	cmp	r3, #0
    7256:	d00e      	beq.n	7276 <_printf_i+0x14e>
    7258:	9e04      	ldr	r6, [sp, #16]
    725a:	1c28      	adds	r0, r5, #0
    725c:	1c39      	adds	r1, r7, #0
    725e:	f7fc fe4b 	bl	3ef8 <__aeabi_uidivmod>
    7262:	9b03      	ldr	r3, [sp, #12]
    7264:	3e01      	subs	r6, #1
    7266:	5c5b      	ldrb	r3, [r3, r1]
    7268:	1c28      	adds	r0, r5, #0
    726a:	7033      	strb	r3, [r6, #0]
    726c:	1c39      	adds	r1, r7, #0
    726e:	f7fc fdbd 	bl	3dec <__aeabi_uidiv>
    7272:	1e05      	subs	r5, r0, #0
    7274:	d1f1      	bne.n	725a <_printf_i+0x132>
    7276:	2f08      	cmp	r7, #8
    7278:	d109      	bne.n	728e <_printf_i+0x166>
    727a:	6823      	ldr	r3, [r4, #0]
    727c:	07db      	lsls	r3, r3, #31
    727e:	d506      	bpl.n	728e <_printf_i+0x166>
    7280:	6863      	ldr	r3, [r4, #4]
    7282:	6922      	ldr	r2, [r4, #16]
    7284:	4293      	cmp	r3, r2
    7286:	dc02      	bgt.n	728e <_printf_i+0x166>
    7288:	2330      	movs	r3, #48	; 0x30
    728a:	3e01      	subs	r6, #1
    728c:	7033      	strb	r3, [r6, #0]
    728e:	9b04      	ldr	r3, [sp, #16]
    7290:	1b9b      	subs	r3, r3, r6
    7292:	6123      	str	r3, [r4, #16]
    7294:	e02b      	b.n	72ee <_printf_i+0x1c6>
    7296:	6809      	ldr	r1, [r1, #0]
    7298:	681a      	ldr	r2, [r3, #0]
    729a:	0608      	lsls	r0, r1, #24
    729c:	d407      	bmi.n	72ae <_printf_i+0x186>
    729e:	0649      	lsls	r1, r1, #25
    72a0:	d505      	bpl.n	72ae <_printf_i+0x186>
    72a2:	1d11      	adds	r1, r2, #4
    72a4:	6019      	str	r1, [r3, #0]
    72a6:	6813      	ldr	r3, [r2, #0]
    72a8:	8aa2      	ldrh	r2, [r4, #20]
    72aa:	801a      	strh	r2, [r3, #0]
    72ac:	e004      	b.n	72b8 <_printf_i+0x190>
    72ae:	1d11      	adds	r1, r2, #4
    72b0:	6019      	str	r1, [r3, #0]
    72b2:	6813      	ldr	r3, [r2, #0]
    72b4:	6962      	ldr	r2, [r4, #20]
    72b6:	601a      	str	r2, [r3, #0]
    72b8:	2300      	movs	r3, #0
    72ba:	9e04      	ldr	r6, [sp, #16]
    72bc:	6123      	str	r3, [r4, #16]
    72be:	e016      	b.n	72ee <_printf_i+0x1c6>
    72c0:	681a      	ldr	r2, [r3, #0]
    72c2:	1d11      	adds	r1, r2, #4
    72c4:	6019      	str	r1, [r3, #0]
    72c6:	6816      	ldr	r6, [r2, #0]
    72c8:	2100      	movs	r1, #0
    72ca:	1c30      	adds	r0, r6, #0
    72cc:	6862      	ldr	r2, [r4, #4]
    72ce:	f000 f8ff 	bl	74d0 <memchr>
    72d2:	2800      	cmp	r0, #0
    72d4:	d001      	beq.n	72da <_printf_i+0x1b2>
    72d6:	1b80      	subs	r0, r0, r6
    72d8:	6060      	str	r0, [r4, #4]
    72da:	6863      	ldr	r3, [r4, #4]
    72dc:	e003      	b.n	72e6 <_printf_i+0x1be>
    72de:	1c26      	adds	r6, r4, #0
    72e0:	3642      	adds	r6, #66	; 0x42
    72e2:	7032      	strb	r2, [r6, #0]
    72e4:	2301      	movs	r3, #1
    72e6:	6123      	str	r3, [r4, #16]
    72e8:	2300      	movs	r3, #0
    72ea:	9a04      	ldr	r2, [sp, #16]
    72ec:	7013      	strb	r3, [r2, #0]
    72ee:	9b07      	ldr	r3, [sp, #28]
    72f0:	9805      	ldr	r0, [sp, #20]
    72f2:	9300      	str	r3, [sp, #0]
    72f4:	1c21      	adds	r1, r4, #0
    72f6:	9b06      	ldr	r3, [sp, #24]
    72f8:	aa09      	add	r2, sp, #36	; 0x24
    72fa:	f7ff fea7 	bl	704c <_printf_common>
    72fe:	1c43      	adds	r3, r0, #1
    7300:	d102      	bne.n	7308 <_printf_i+0x1e0>
    7302:	2001      	movs	r0, #1
    7304:	4240      	negs	r0, r0
    7306:	e021      	b.n	734c <_printf_i+0x224>
    7308:	6923      	ldr	r3, [r4, #16]
    730a:	9805      	ldr	r0, [sp, #20]
    730c:	9906      	ldr	r1, [sp, #24]
    730e:	1c32      	adds	r2, r6, #0
    7310:	9d07      	ldr	r5, [sp, #28]
    7312:	47a8      	blx	r5
    7314:	1c43      	adds	r3, r0, #1
    7316:	d0f4      	beq.n	7302 <_printf_i+0x1da>
    7318:	6823      	ldr	r3, [r4, #0]
    731a:	079b      	lsls	r3, r3, #30
    731c:	d405      	bmi.n	732a <_printf_i+0x202>
    731e:	9b09      	ldr	r3, [sp, #36]	; 0x24
    7320:	68e0      	ldr	r0, [r4, #12]
    7322:	4298      	cmp	r0, r3
    7324:	da12      	bge.n	734c <_printf_i+0x224>
    7326:	1c18      	adds	r0, r3, #0
    7328:	e010      	b.n	734c <_printf_i+0x224>
    732a:	2500      	movs	r5, #0
    732c:	68e3      	ldr	r3, [r4, #12]
    732e:	9a09      	ldr	r2, [sp, #36]	; 0x24
    7330:	1a9b      	subs	r3, r3, r2
    7332:	429d      	cmp	r5, r3
    7334:	daf3      	bge.n	731e <_printf_i+0x1f6>
    7336:	1c22      	adds	r2, r4, #0
    7338:	2301      	movs	r3, #1
    733a:	9805      	ldr	r0, [sp, #20]
    733c:	9906      	ldr	r1, [sp, #24]
    733e:	3219      	adds	r2, #25
    7340:	9e07      	ldr	r6, [sp, #28]
    7342:	47b0      	blx	r6
    7344:	1c43      	adds	r3, r0, #1
    7346:	d0dc      	beq.n	7302 <_printf_i+0x1da>
    7348:	3501      	adds	r5, #1
    734a:	e7ef      	b.n	732c <_printf_i+0x204>
    734c:	b00b      	add	sp, #44	; 0x2c
    734e:	bdf0      	pop	{r4, r5, r6, r7, pc}
    7350:	00007819 	.word	0x00007819
    7354:	0000782a 	.word	0x0000782a

00007358 <_sbrk_r>:
    7358:	b538      	push	{r3, r4, r5, lr}
    735a:	2300      	movs	r3, #0
    735c:	4c06      	ldr	r4, [pc, #24]	; (7378 <_sbrk_r+0x20>)
    735e:	1c05      	adds	r5, r0, #0
    7360:	1c08      	adds	r0, r1, #0
    7362:	6023      	str	r3, [r4, #0]
    7364:	f7fb fdb4 	bl	2ed0 <_sbrk>
    7368:	1c43      	adds	r3, r0, #1
    736a:	d103      	bne.n	7374 <_sbrk_r+0x1c>
    736c:	6823      	ldr	r3, [r4, #0]
    736e:	2b00      	cmp	r3, #0
    7370:	d000      	beq.n	7374 <_sbrk_r+0x1c>
    7372:	602b      	str	r3, [r5, #0]
    7374:	bd38      	pop	{r3, r4, r5, pc}
    7376:	46c0      	nop			; (mov r8, r8)
    7378:	200001f8 	.word	0x200001f8

0000737c <__sread>:
    737c:	b538      	push	{r3, r4, r5, lr}
    737e:	1c0c      	adds	r4, r1, #0
    7380:	250e      	movs	r5, #14
    7382:	5f49      	ldrsh	r1, [r1, r5]
    7384:	f000 f8b0 	bl	74e8 <_read_r>
    7388:	2800      	cmp	r0, #0
    738a:	db03      	blt.n	7394 <__sread+0x18>
    738c:	6d63      	ldr	r3, [r4, #84]	; 0x54
    738e:	181b      	adds	r3, r3, r0
    7390:	6563      	str	r3, [r4, #84]	; 0x54
    7392:	e003      	b.n	739c <__sread+0x20>
    7394:	89a2      	ldrh	r2, [r4, #12]
    7396:	4b02      	ldr	r3, [pc, #8]	; (73a0 <__sread+0x24>)
    7398:	4013      	ands	r3, r2
    739a:	81a3      	strh	r3, [r4, #12]
    739c:	bd38      	pop	{r3, r4, r5, pc}
    739e:	46c0      	nop			; (mov r8, r8)
    73a0:	ffffefff 	.word	0xffffefff

000073a4 <__swrite>:
    73a4:	b5f8      	push	{r3, r4, r5, r6, r7, lr}
    73a6:	1c1e      	adds	r6, r3, #0
    73a8:	898b      	ldrh	r3, [r1, #12]
    73aa:	1c05      	adds	r5, r0, #0
    73ac:	1c0c      	adds	r4, r1, #0
    73ae:	1c17      	adds	r7, r2, #0
    73b0:	05db      	lsls	r3, r3, #23
    73b2:	d505      	bpl.n	73c0 <__swrite+0x1c>
    73b4:	230e      	movs	r3, #14
    73b6:	5ec9      	ldrsh	r1, [r1, r3]
    73b8:	2200      	movs	r2, #0
    73ba:	2302      	movs	r3, #2
    73bc:	f000 f874 	bl	74a8 <_lseek_r>
    73c0:	89a2      	ldrh	r2, [r4, #12]
    73c2:	4b05      	ldr	r3, [pc, #20]	; (73d8 <__swrite+0x34>)
    73c4:	1c28      	adds	r0, r5, #0
    73c6:	4013      	ands	r3, r2
    73c8:	81a3      	strh	r3, [r4, #12]
    73ca:	1c3a      	adds	r2, r7, #0
    73cc:	230e      	movs	r3, #14
    73ce:	5ee1      	ldrsh	r1, [r4, r3]
    73d0:	1c33      	adds	r3, r6, #0
    73d2:	f000 f81f 	bl	7414 <_write_r>
    73d6:	bdf8      	pop	{r3, r4, r5, r6, r7, pc}
    73d8:	ffffefff 	.word	0xffffefff

000073dc <__sseek>:
    73dc:	b538      	push	{r3, r4, r5, lr}
    73de:	1c0c      	adds	r4, r1, #0
    73e0:	250e      	movs	r5, #14
    73e2:	5f49      	ldrsh	r1, [r1, r5]
    73e4:	f000 f860 	bl	74a8 <_lseek_r>
    73e8:	89a3      	ldrh	r3, [r4, #12]
    73ea:	1c42      	adds	r2, r0, #1
    73ec:	d103      	bne.n	73f6 <__sseek+0x1a>
    73ee:	4a05      	ldr	r2, [pc, #20]	; (7404 <__sseek+0x28>)
    73f0:	4013      	ands	r3, r2
    73f2:	81a3      	strh	r3, [r4, #12]
    73f4:	e004      	b.n	7400 <__sseek+0x24>
    73f6:	2280      	movs	r2, #128	; 0x80
    73f8:	0152      	lsls	r2, r2, #5
    73fa:	4313      	orrs	r3, r2
    73fc:	81a3      	strh	r3, [r4, #12]
    73fe:	6560      	str	r0, [r4, #84]	; 0x54
    7400:	bd38      	pop	{r3, r4, r5, pc}
    7402:	46c0      	nop			; (mov r8, r8)
    7404:	ffffefff 	.word	0xffffefff

00007408 <__sclose>:
    7408:	b508      	push	{r3, lr}
    740a:	230e      	movs	r3, #14
    740c:	5ec9      	ldrsh	r1, [r1, r3]
    740e:	f000 f815 	bl	743c <_close_r>
    7412:	bd08      	pop	{r3, pc}

00007414 <_write_r>:
    7414:	b538      	push	{r3, r4, r5, lr}
    7416:	1c05      	adds	r5, r0, #0
    7418:	2000      	movs	r0, #0
    741a:	4c07      	ldr	r4, [pc, #28]	; (7438 <_write_r+0x24>)
    741c:	6020      	str	r0, [r4, #0]
    741e:	1c08      	adds	r0, r1, #0
    7420:	1c11      	adds	r1, r2, #0
    7422:	1c1a      	adds	r2, r3, #0
    7424:	f7fa fce4 	bl	1df0 <_write>
    7428:	1c43      	adds	r3, r0, #1
    742a:	d103      	bne.n	7434 <_write_r+0x20>
    742c:	6823      	ldr	r3, [r4, #0]
    742e:	2b00      	cmp	r3, #0
    7430:	d000      	beq.n	7434 <_write_r+0x20>
    7432:	602b      	str	r3, [r5, #0]
    7434:	bd38      	pop	{r3, r4, r5, pc}
    7436:	46c0      	nop			; (mov r8, r8)
    7438:	200001f8 	.word	0x200001f8

0000743c <_close_r>:
    743c:	b538      	push	{r3, r4, r5, lr}
    743e:	2300      	movs	r3, #0
    7440:	4c06      	ldr	r4, [pc, #24]	; (745c <_close_r+0x20>)
    7442:	1c05      	adds	r5, r0, #0
    7444:	1c08      	adds	r0, r1, #0
    7446:	6023      	str	r3, [r4, #0]
    7448:	f7fb fd60 	bl	2f0c <_close>
    744c:	1c43      	adds	r3, r0, #1
    744e:	d103      	bne.n	7458 <_close_r+0x1c>
    7450:	6823      	ldr	r3, [r4, #0]
    7452:	2b00      	cmp	r3, #0
    7454:	d000      	beq.n	7458 <_close_r+0x1c>
    7456:	602b      	str	r3, [r5, #0]
    7458:	bd38      	pop	{r3, r4, r5, pc}
    745a:	46c0      	nop			; (mov r8, r8)
    745c:	200001f8 	.word	0x200001f8

00007460 <_fstat_r>:
    7460:	b538      	push	{r3, r4, r5, lr}
    7462:	2300      	movs	r3, #0
    7464:	4c06      	ldr	r4, [pc, #24]	; (7480 <_fstat_r+0x20>)
    7466:	1c05      	adds	r5, r0, #0
    7468:	1c08      	adds	r0, r1, #0
    746a:	1c11      	adds	r1, r2, #0
    746c:	6023      	str	r3, [r4, #0]
    746e:	f7fb fd57 	bl	2f20 <_fstat>
    7472:	1c43      	adds	r3, r0, #1
    7474:	d103      	bne.n	747e <_fstat_r+0x1e>
    7476:	6823      	ldr	r3, [r4, #0]
    7478:	2b00      	cmp	r3, #0
    747a:	d000      	beq.n	747e <_fstat_r+0x1e>
    747c:	602b      	str	r3, [r5, #0]
    747e:	bd38      	pop	{r3, r4, r5, pc}
    7480:	200001f8 	.word	0x200001f8

00007484 <_isatty_r>:
    7484:	b538      	push	{r3, r4, r5, lr}
    7486:	2300      	movs	r3, #0
    7488:	4c06      	ldr	r4, [pc, #24]	; (74a4 <_isatty_r+0x20>)
    748a:	1c05      	adds	r5, r0, #0
    748c:	1c08      	adds	r0, r1, #0
    748e:	6023      	str	r3, [r4, #0]
    7490:	f7fb fd54 	bl	2f3c <_isatty>
    7494:	1c43      	adds	r3, r0, #1
    7496:	d103      	bne.n	74a0 <_isatty_r+0x1c>
    7498:	6823      	ldr	r3, [r4, #0]
    749a:	2b00      	cmp	r3, #0
    749c:	d000      	beq.n	74a0 <_isatty_r+0x1c>
    749e:	602b      	str	r3, [r5, #0]
    74a0:	bd38      	pop	{r3, r4, r5, pc}
    74a2:	46c0      	nop			; (mov r8, r8)
    74a4:	200001f8 	.word	0x200001f8

000074a8 <_lseek_r>:
    74a8:	b538      	push	{r3, r4, r5, lr}
    74aa:	1c05      	adds	r5, r0, #0
    74ac:	2000      	movs	r0, #0
    74ae:	4c07      	ldr	r4, [pc, #28]	; (74cc <_lseek_r+0x24>)
    74b0:	6020      	str	r0, [r4, #0]
    74b2:	1c08      	adds	r0, r1, #0
    74b4:	1c11      	adds	r1, r2, #0
    74b6:	1c1a      	adds	r2, r3, #0
    74b8:	f7fb fd4a 	bl	2f50 <_lseek>
    74bc:	1c43      	adds	r3, r0, #1
    74be:	d103      	bne.n	74c8 <_lseek_r+0x20>
    74c0:	6823      	ldr	r3, [r4, #0]
    74c2:	2b00      	cmp	r3, #0
    74c4:	d000      	beq.n	74c8 <_lseek_r+0x20>
    74c6:	602b      	str	r3, [r5, #0]
    74c8:	bd38      	pop	{r3, r4, r5, pc}
    74ca:	46c0      	nop			; (mov r8, r8)
    74cc:	200001f8 	.word	0x200001f8

000074d0 <memchr>:
    74d0:	b2c9      	uxtb	r1, r1
    74d2:	1882      	adds	r2, r0, r2
    74d4:	4290      	cmp	r0, r2
    74d6:	d004      	beq.n	74e2 <memchr+0x12>
    74d8:	7803      	ldrb	r3, [r0, #0]
    74da:	428b      	cmp	r3, r1
    74dc:	d002      	beq.n	74e4 <memchr+0x14>
    74de:	3001      	adds	r0, #1
    74e0:	e7f8      	b.n	74d4 <memchr+0x4>
    74e2:	2000      	movs	r0, #0
    74e4:	4770      	bx	lr
	...

000074e8 <_read_r>:
    74e8:	b538      	push	{r3, r4, r5, lr}
    74ea:	1c05      	adds	r5, r0, #0
    74ec:	2000      	movs	r0, #0
    74ee:	4c07      	ldr	r4, [pc, #28]	; (750c <_read_r+0x24>)
    74f0:	6020      	str	r0, [r4, #0]
    74f2:	1c08      	adds	r0, r1, #0
    74f4:	1c11      	adds	r1, r2, #0
    74f6:	1c1a      	adds	r2, r3, #0
    74f8:	f7fa fc4e 	bl	1d98 <_read>
    74fc:	1c43      	adds	r3, r0, #1
    74fe:	d103      	bne.n	7508 <_read_r+0x20>
    7500:	6823      	ldr	r3, [r4, #0]
    7502:	2b00      	cmp	r3, #0
    7504:	d000      	beq.n	7508 <_read_r+0x20>
    7506:	602b      	str	r3, [r5, #0]
    7508:	bd38      	pop	{r3, r4, r5, pc}
    750a:	46c0      	nop			; (mov r8, r8)
    750c:	200001f8 	.word	0x200001f8
    7510:	42000800 	.word	0x42000800
    7514:	42000c00 	.word	0x42000c00
    7518:	42001000 	.word	0x42001000
    751c:	42001400 	.word	0x42001400
    7520:	42001800 	.word	0x42001800
    7524:	42001c00 	.word	0x42001c00
    7528:	0c0b0a09 	.word	0x0c0b0a09
    752c:	00000e0d 	.word	0x00000e0d
    7530:	0000251e 	.word	0x0000251e
    7534:	0000259a 	.word	0x0000259a
    7538:	0000259a 	.word	0x0000259a
    753c:	00002540 	.word	0x00002540
    7540:	0000253a 	.word	0x0000253a
    7544:	00002546 	.word	0x00002546
    7548:	00002524 	.word	0x00002524
    754c:	0000254c 	.word	0x0000254c
    7550:	00002580 	.word	0x00002580
    7554:	00002674 	.word	0x00002674
    7558:	000026c4 	.word	0x000026c4
    755c:	000026c4 	.word	0x000026c4
    7560:	000026c0 	.word	0x000026c0
    7564:	00002666 	.word	0x00002666
    7568:	00002686 	.word	0x00002686
    756c:	00002656 	.word	0x00002656
    7570:	00002698 	.word	0x00002698
    7574:	000026aa 	.word	0x000026aa
    7578:	0002001e 	.word	0x0002001e
    757c:	2000000c 	.word	0x2000000c
    7580:	00000000 	.word	0x00000000
    7584:	0002001e 	.word	0x0002001e
    7588:	20000008 	.word	0x20000008
    758c:	00000000 	.word	0x00000000
    7590:	0002001e 	.word	0x0002001e
    7594:	20000010 	.word	0x20000010
    7598:	00000000 	.word	0x00000000
    759c:	20433249 	.word	0x20433249
    75a0:	7473616d 	.word	0x7473616d
    75a4:	69207265 	.word	0x69207265
    75a8:	2074696e 	.word	0x2074696e
    75ac:	74617473 	.word	0x74617473
    75b0:	203a7375 	.word	0x203a7375
    75b4:	0a0d6425 	.word	0x0a0d6425
    75b8:	00000000 	.word	0x00000000
    75bc:	20433249 	.word	0x20433249
    75c0:	7473616d 	.word	0x7473616d
    75c4:	69207265 	.word	0x69207265
    75c8:	2074696e 	.word	0x2074696e
    75cc:	6f727265 	.word	0x6f727265
    75d0:	74732072 	.word	0x74732072
    75d4:	73757461 	.word	0x73757461
    75d8:	6425203a 	.word	0x6425203a
    75dc:	00000a0d 	.word	0x00000a0d
    75e0:	5f633269 	.word	0x5f633269
    75e4:	7473616d 	.word	0x7473616d
    75e8:	775f7265 	.word	0x775f7265
    75ec:	65746972 	.word	0x65746972
    75f0:	6361705f 	.word	0x6361705f
    75f4:	5f74656b 	.word	0x5f74656b
    75f8:	74696177 	.word	0x74696177
    75fc:	61747320 	.word	0x61747320
    7600:	3a737574 	.word	0x3a737574
    7604:	0d642520 	.word	0x0d642520
    7608:	0000000a 	.word	0x0000000a
    760c:	20433249 	.word	0x20433249
    7610:	74697277 	.word	0x74697277
    7614:	69742065 	.word	0x69742065
    7618:	2064656d 	.word	0x2064656d
    761c:	2e74756f 	.word	0x2e74756f
    7620:	0000000d 	.word	0x0000000d
    7624:	46202d2d 	.word	0x46202d2d
    7628:	72656572 	.word	0x72656572
    762c:	20736f74 	.word	0x20736f74
    7630:	6d617845 	.word	0x6d617845
    7634:	20656c70 	.word	0x20656c70
    7638:	0d0a2d2d 	.word	0x0d0a2d2d
    763c:	00000000 	.word	0x00000000
    7640:	25202d2d 	.word	0x25202d2d
    7644:	000d0a73 	.word	0x000d0a73
    7648:	444d4153 	.word	0x444d4153
    764c:	585f3132 	.word	0x585f3132
    7650:	49414c50 	.word	0x49414c50
    7654:	5f44454e 	.word	0x5f44454e
    7658:	004f5250 	.word	0x004f5250
    765c:	43202d2d 	.word	0x43202d2d
    7660:	69706d6f 	.word	0x69706d6f
    7664:	3a64656c 	.word	0x3a64656c
    7668:	20732520 	.word	0x20732520
    766c:	2d207325 	.word	0x2d207325
    7670:	000d0a2d 	.word	0x000d0a2d
    7674:	20636544 	.word	0x20636544
    7678:	32203220 	.word	0x32203220
    767c:	00353130 	.word	0x00353130
    7680:	343a3032 	.word	0x343a3032
    7684:	30303a31 	.word	0x30303a31
    7688:	00000000 	.word	0x00000000
    768c:	00207825 	.word	0x00207825
    7690:	00000d0a 	.word	0x00000d0a
    7694:	25206425 	.word	0x25206425
    7698:	64252064 	.word	0x64252064
    769c:	00000d0a 	.word	0x00000d0a

000076a0 <atanlo>:
    76a0:	222f65e2 3c7a2b7f 33145c07 3c81a626     .e/".+z<.\.3&..<
    76b0:	7af0cbbd 3c700788 33145c07 3c91a626     ...z..p<.\.3&..<

000076c0 <atanhi>:
    76c0:	0561bb4f 3fddac67 54442d18 3fe921fb     O.a.g..?.-DT.!.?
    76d0:	d281f69b 3fef730b 54442d18 3ff921fb     .....s.?.-DT.!.?
    76e0:	000045fa 000045f2 000045f2 000045ea     .E...E...E...E..
    76f0:	0000453c 0000453c 000045e0 000045ea     <E..<E...E...E..
    7700:	0000453c 000045e0 0000453c 000045ea     <E...E..<E...E..
    7710:	0000453e 0000453e 0000453e 00004684     >E..>E..>E...F..
    7720:	00004f48 00004e36 00004f1c 00004e22     HO..6N...O.."N..
    7730:	00004f1c 00004f26 00004f1c 00004e22     .O..&O...O.."N..
    7740:	00004e36 00004e36 00004f26 00004e22     6N..6N..&O.."N..
    7750:	00004e2c 00004e2c 00004e2c 0000518e     ,N..,N..,N...Q..
    7760:	000057dc 000057ba 000057ba 000057ae     .W...W...W...W..
    7770:	000056a2 000056a2 000057a2 000057ae     .V...V...W...W..
    7780:	000056a2 000057a2 000056a2 000057ae     .V...W...V...W..
    7790:	000056a6 000056a6 000056a6 000059bc     .V...V...V...Y..
    77a0:	00000043                                C...

000077a4 <_global_impure_ptr>:
    77a4:	20000014                                ... 

000077a8 <__sf_fake_stdin>:
	...

000077c8 <__sf_fake_stdout>:
	...

000077e8 <__sf_fake_stderr>:
	...
    7808:	2b302d23 6c680020 6665004c 47464567     #-0+ .hlL.efgEFG
    7818:	32313000 36353433 41393837 45444342     .0123456789ABCDE
    7828:	31300046 35343332 39383736 64636261     F.0123456789abcd
    7838:	00006665                                ef..

0000783c <_init>:
    783c:	b5f8      	push	{r3, r4, r5, r6, r7, lr}
    783e:	46c0      	nop			; (mov r8, r8)
    7840:	bcf8      	pop	{r3, r4, r5, r6, r7}
    7842:	bc08      	pop	{r3}
    7844:	469e      	mov	lr, r3
    7846:	4770      	bx	lr

00007848 <__init_array_start>:
    7848:	000000d9 	.word	0x000000d9

0000784c <_fini>:
    784c:	b5f8      	push	{r3, r4, r5, r6, r7, lr}
    784e:	46c0      	nop			; (mov r8, r8)
    7850:	bcf8      	pop	{r3, r4, r5, r6, r7}
    7852:	bc08      	pop	{r3}
    7854:	469e      	mov	lr, r3
    7856:	4770      	bx	lr

00007858 <__fini_array_start>:
    7858:	000000b1 	.word	0x000000b1
